; Listing generated by Microsoft (R) Optimizing Compiler Version 19.29.30133.0 

	TITLE	F:\лабы\КПО\1 лаба\kpo_lab1v2\kpo_lab1v2\Debug\kpo_lab1v2.obj
	.686P
	.XMM
	include listing.inc
	.model	flat

INCLUDELIB MSVCRTD
INCLUDELIB OLDNAMES

msvcjmc	SEGMENT
__97D3638F_vcruntime_new@h DB 01H
__741AE07E_corecrt_math@h DB 01H
__B49664B7_stdlib@h DB 01H
__244AF085_cstdlib DB 01H
__60BC708E_cmath DB 01H
__A2143F22_corecrt_stdio_config@h DB 01H
__829E1958_corecrt_wstdio@h DB 01H
__6DFAE8B8_stdio@h DB 01H
__1FEB9909_corecrt_memcpy_s@h DB 01H
__A751F051_corecrt_memory@h DB 01H
__9200769A_corecrt_wstring@h DB 01H
__32E5F013_string@h DB 01H
__C6E16F6F_corecrt_wconio@h DB 01H
__6D390390_corecrt_wio@h DB 01H
__1157D6BA_corecrt_wtime@h DB 01H
__1DC1E279_stat@h DB 01H
__93DC0B45_wchar@h DB 01H
__589FA321_type_traits DB 01H
__12269DE6_xutility DB 01H
__20BB4341_malloc@h DB 01H
__B0A13A33_vcruntime_exception@h DB 01H
__FF458F76_exception DB 01H
__7FE5F402_limits DB 01H
__79D216CD_xmemory DB 01H
__0D019051_xstring DB 01H
__760BB52B_stdexcept DB 01H
__A4685E82_xcall_once@h DB 01H
__A0B61CF9_time@h DB 01H
__DDB379A0_xthreads@h DB 01H
__14D0A8C0_atomic DB 01H
__1B354CA2_system_error DB 01H
__65ADBEC9_vcruntime_typeinfo@h DB 01H
__62F96EFF_typeinfo DB 01H
__C34BF88C_memory DB 01H
__EF0EAF83_xfacet DB 01H
__B2D2BA86_ctype@h DB 01H
__7D708D37_xlocinfo DB 01H
__D23FE460_xlocale DB 01H
__4495FA24_xiosbase DB 01H
__4CB88277_xlocnum DB 01H
__845859A3_ios DB 01H
__B7987E10_string DB 01H
__94B3D082_kpo_lab1v2@cpp DB 01H
__A2FF0B9E_istream DB 01H
__C12F3EA4_ostream DB 01H
__74AB0D97_streambuf DB 01H
__038A2AA6_iterator DB 01H
__B30C2184_iosfwd DB 01H
__1347750E_utility DB 01H
__E458E21C_xstddef DB 01H
__F54903A0_xatomic@h DB 01H
msvcjmc	ENDS
PUBLIC	?__empty_global_delete@@YAXPAX@Z		; __empty_global_delete
PUBLIC	?__empty_global_delete@@YAXPAXI@Z		; __empty_global_delete
PUBLIC	??2@YAPAXIPAX@Z					; operator new
PUBLIC	??0exception@std@@QAE@QBDH@Z			; std::exception::exception
PUBLIC	??0exception@std@@QAE@ABV01@@Z			; std::exception::exception
PUBLIC	??1exception@std@@UAE@XZ			; std::exception::~exception
PUBLIC	?what@exception@std@@UBEPBDXZ			; std::exception::what
PUBLIC	??_Gexception@std@@UAEPAXI@Z			; std::exception::`scalar deleting destructor'
PUBLIC	??0bad_alloc@std@@AAE@QBD@Z			; std::bad_alloc::bad_alloc
PUBLIC	??1bad_alloc@std@@UAE@XZ			; std::bad_alloc::~bad_alloc
PUBLIC	??0bad_alloc@std@@QAE@ABV01@@Z			; std::bad_alloc::bad_alloc
PUBLIC	??_Gbad_alloc@std@@UAEPAXI@Z			; std::bad_alloc::`scalar deleting destructor'
PUBLIC	??0bad_array_new_length@std@@QAE@XZ		; std::bad_array_new_length::bad_array_new_length
PUBLIC	??1bad_array_new_length@std@@UAE@XZ		; std::bad_array_new_length::~bad_array_new_length
PUBLIC	??0bad_array_new_length@std@@QAE@ABV01@@Z	; std::bad_array_new_length::bad_array_new_length
PUBLIC	??_Gbad_array_new_length@std@@UAEPAXI@Z		; std::bad_array_new_length::`scalar deleting destructor'
PUBLIC	?_Throw_bad_array_new_length@std@@YAXXZ		; std::_Throw_bad_array_new_length
PUBLIC	?max@?$numeric_limits@H@std@@SAHXZ		; std::numeric_limits<int>::max
PUBLIC	?_Allocate@_Default_allocate_traits@std@@SAPAXI@Z ; std::_Default_allocate_traits::_Allocate
PUBLIC	?_Adjust_manually_vector_aligned@std@@YAXAAPAXAAI@Z ; std::_Adjust_manually_vector_aligned
PUBLIC	??$_Convert_size@I@std@@YAII@Z			; std::_Convert_size<unsigned int>
PUBLIC	??0_Container_proxy@std@@QAE@PAU_Container_base12@1@@Z ; std::_Container_proxy::_Container_proxy
PUBLIC	??0_Container_base12@std@@QAE@XZ		; std::_Container_base12::_Container_base12
PUBLIC	?_Orphan_all@_Container_base12@std@@QAEXXZ	; std::_Container_base12::_Orphan_all
PUBLIC	?_Orphan_all_unlocked@_Container_base12@std@@AAEXXZ ; std::_Container_base12::_Orphan_all_unlocked
PUBLIC	?_Orphan_all_locked@_Container_base12@std@@AAEXXZ ; std::_Container_base12::_Orphan_all_locked
PUBLIC	?_Release@_Basic_container_proxy_ptr12@std@@QAEXXZ ; std::_Basic_container_proxy_ptr12::_Release
PUBLIC	??0_Basic_container_proxy_ptr12@std@@IAE@XZ	; std::_Basic_container_proxy_ptr12::_Basic_container_proxy_ptr12
PUBLIC	??$addressof@U_Container_base12@std@@@std@@YAPAU_Container_base12@0@AAU10@@Z ; std::addressof<std::_Container_base12>
PUBLIC	??$_Construct_in_place@U_Container_proxy@std@@PAU_Container_base12@2@@std@@YAXAAU_Container_proxy@0@$$QAPAU_Container_base12@0@@Z ; std::_Construct_in_place<std::_Container_proxy,std::_Container_base12 *>
PUBLIC	?copy@?$_Char_traits@DH@std@@SAPADQADQBDI@Z	; std::_Char_traits<char,int>::copy
PUBLIC	?move@?$_Char_traits@DH@std@@SAPADQADQBDI@Z	; std::_Char_traits<char,int>::move
PUBLIC	?length@?$_Narrow_char_traits@DH@std@@SAIQBD@Z	; std::_Narrow_char_traits<char,int>::length
PUBLIC	?assign@?$_Narrow_char_traits@DH@std@@SAXAADABD@Z ; std::_Narrow_char_traits<char,int>::assign
PUBLIC	?to_char_type@?$_Narrow_char_traits@DH@std@@SADABH@Z ; std::_Narrow_char_traits<char,int>::to_char_type
PUBLIC	?eq_int_type@?$_Narrow_char_traits@DH@std@@SA_NABH0@Z ; std::_Narrow_char_traits<char,int>::eq_int_type
PUBLIC	?eof@?$_Narrow_char_traits@DH@std@@SAHXZ	; std::_Narrow_char_traits<char,int>::eof
PUBLIC	?_Xlen_string@std@@YAXXZ			; std::_Xlen_string
PUBLIC	??0?$allocator@D@std@@QAE@XZ			; std::allocator<char>::allocator<char>
PUBLIC	?deallocate@?$allocator@D@std@@QAEXQADI@Z	; std::allocator<char>::deallocate
PUBLIC	?allocate@?$allocator@D@std@@QAEPADI@Z		; std::allocator<char>::allocate
PUBLIC	?max_size@?$_Default_allocator_traits@V?$allocator@D@std@@@std@@SAIABV?$allocator@D@2@@Z ; std::_Default_allocator_traits<std::allocator<char> >::max_size
PUBLIC	??0?$_String_val@U?$_Simple_types@D@std@@@std@@QAE@XZ ; std::_String_val<std::_Simple_types<char> >::_String_val<std::_Simple_types<char> >
PUBLIC	?_Myptr@?$_String_val@U?$_Simple_types@D@std@@@std@@QAEPADXZ ; std::_String_val<std::_Simple_types<char> >::_Myptr
PUBLIC	?_Myptr@?$_String_val@U?$_Simple_types@D@std@@@std@@QBEPBDXZ ; std::_String_val<std::_Simple_types<char> >::_Myptr
PUBLIC	?_Large_string_engaged@?$_String_val@U?$_Simple_types@D@std@@@std@@QBE_NXZ ; std::_String_val<std::_Simple_types<char> >::_Large_string_engaged
PUBLIC	??0_Bxty@?$_String_val@U?$_Simple_types@D@std@@@std@@QAE@XZ ; std::_String_val<std::_Simple_types<char> >::_Bxty::_Bxty
PUBLIC	??1_Bxty@?$_String_val@U?$_Simple_types@D@std@@@std@@QAE@XZ ; std::_String_val<std::_Simple_types<char> >::_Bxty::~_Bxty
PUBLIC	??1?$_String_val@U?$_Simple_types@D@std@@@std@@QAE@XZ ; std::_String_val<std::_Simple_types<char> >::~_String_val<std::_Simple_types<char> >
PUBLIC	??0?$basic_string@DU?$char_traits@D@std@@V?$allocator@D@2@@std@@QAE@QBD@Z ; std::basic_string<char,std::char_traits<char>,std::allocator<char> >::basic_string<char,std::char_traits<char>,std::allocator<char> >
PUBLIC	??1?$basic_string@DU?$char_traits@D@std@@V?$allocator@D@2@@std@@QAE@XZ ; std::basic_string<char,std::char_traits<char>,std::allocator<char> >::~basic_string<char,std::char_traits<char>,std::allocator<char> >
PUBLIC	?assign@?$basic_string@DU?$char_traits@D@std@@V?$allocator@D@2@@std@@QAEAAV12@QBDI@Z ; std::basic_string<char,std::char_traits<char>,std::allocator<char> >::assign
PUBLIC	?assign@?$basic_string@DU?$char_traits@D@std@@V?$allocator@D@2@@std@@QAEAAV12@QBD@Z ; std::basic_string<char,std::char_traits<char>,std::allocator<char> >::assign
PUBLIC	?c_str@?$basic_string@DU?$char_traits@D@std@@V?$allocator@D@2@@std@@QBEPBDXZ ; std::basic_string<char,std::char_traits<char>,std::allocator<char> >::c_str
PUBLIC	?max_size@?$basic_string@DU?$char_traits@D@std@@V?$allocator@D@2@@std@@QBEIXZ ; std::basic_string<char,std::char_traits<char>,std::allocator<char> >::max_size
PUBLIC	?_Calculate_growth@?$basic_string@DU?$char_traits@D@std@@V?$allocator@D@2@@std@@CAIIII@Z ; std::basic_string<char,std::char_traits<char>,std::allocator<char> >::_Calculate_growth
PUBLIC	?_Calculate_growth@?$basic_string@DU?$char_traits@D@std@@V?$allocator@D@2@@std@@ABEII@Z ; std::basic_string<char,std::char_traits<char>,std::allocator<char> >::_Calculate_growth
PUBLIC	?_Tidy_init@?$basic_string@DU?$char_traits@D@std@@V?$allocator@D@2@@std@@AAEXXZ ; std::basic_string<char,std::char_traits<char>,std::allocator<char> >::_Tidy_init
PUBLIC	?_Tidy_deallocate@?$basic_string@DU?$char_traits@D@std@@V?$allocator@D@2@@std@@AAEXXZ ; std::basic_string<char,std::char_traits<char>,std::allocator<char> >::_Tidy_deallocate
PUBLIC	?_Getal@?$basic_string@DU?$char_traits@D@std@@V?$allocator@D@2@@std@@AAEAAV?$allocator@D@2@XZ ; std::basic_string<char,std::char_traits<char>,std::allocator<char> >::_Getal
PUBLIC	?_Getal@?$basic_string@DU?$char_traits@D@std@@V?$allocator@D@2@@std@@ABEABV?$allocator@D@2@XZ ; std::basic_string<char,std::char_traits<char>,std::allocator<char> >::_Getal
PUBLIC	?_Get_first@?$_Compressed_pair@V?$allocator@D@std@@V?$_String_val@U?$_Simple_types@D@std@@@2@$00@std@@QAEAAV?$allocator@D@2@XZ ; std::_Compressed_pair<std::allocator<char>,std::_String_val<std::_Simple_types<char> >,1>::_Get_first
PUBLIC	?_Get_first@?$_Compressed_pair@V?$allocator@D@std@@V?$_String_val@U?$_Simple_types@D@std@@@2@$00@std@@QBEABV?$allocator@D@2@XZ ; std::_Compressed_pair<std::allocator<char>,std::_String_val<std::_Simple_types<char> >,1>::_Get_first
PUBLIC	??1?$_Compressed_pair@V?$allocator@D@std@@V?$_String_val@U?$_Simple_types@D@std@@@2@$00@std@@QAE@XZ ; std::_Compressed_pair<std::allocator<char>,std::_String_val<std::_Simple_types<char> >,1>::~_Compressed_pair<std::allocator<char>,std::_String_val<std::_Simple_types<char> >,1>
PUBLIC	?stoi@std@@YAHABV?$basic_string@DU?$char_traits@D@std@@V?$allocator@D@2@@1@PAIH@Z ; std::stoi
PUBLIC	?CheackValidnost@@YAXHHH@Z			; CheackValidnost
PUBLIC	?CheackLeapYear@@YA_NH@Z			; CheackLeapYear
PUBLIC	?forInput@@YAXPAH00@Z				; forInput
PUBLIC	?GetOrdinalNumber@@YAHHHH@Z			; GetOrdinalNumber
PUBLIC	?GetDaysBeforeBirthday@@YAHHHH@Z		; GetDaysBeforeBirthday
PUBLIC	_main
PUBLIC	??$?6U?$char_traits@D@std@@@std@@YAAAV?$basic_ostream@DU?$char_traits@D@std@@@0@AAV10@PBD@Z ; std::operator<<<std::char_traits<char> >
PUBLIC	??$endl@DU?$char_traits@D@std@@@std@@YAAAV?$basic_ostream@DU?$char_traits@D@std@@@0@AAV10@@Z ; std::endl<char,std::char_traits<char> >
PUBLIC	??$?5DU?$char_traits@D@std@@@std@@YAAAV?$basic_istream@DU?$char_traits@D@std@@@0@AAV10@AAD@Z ; std::operator>><char,std::char_traits<char> >
PUBLIC	??0_Sentry_base@?$basic_ostream@DU?$char_traits@D@std@@@std@@QAE@AAV12@@Z ; std::basic_ostream<char,std::char_traits<char> >::_Sentry_base::_Sentry_base
PUBLIC	??1_Sentry_base@?$basic_ostream@DU?$char_traits@D@std@@@std@@QAE@XZ ; std::basic_ostream<char,std::char_traits<char> >::_Sentry_base::~_Sentry_base
PUBLIC	??0sentry@?$basic_ostream@DU?$char_traits@D@std@@@std@@QAE@AAV12@@Z ; std::basic_ostream<char,std::char_traits<char> >::sentry::sentry
PUBLIC	??1sentry@?$basic_ostream@DU?$char_traits@D@std@@@std@@QAE@XZ ; std::basic_ostream<char,std::char_traits<char> >::sentry::~sentry
PUBLIC	??Bsentry@?$basic_ostream@DU?$char_traits@D@std@@@std@@QBE_NXZ ; std::basic_ostream<char,std::char_traits<char> >::sentry::operator bool
PUBLIC	??$min@I@std@@YAABIABI0@Z			; std::min<unsigned int>
PUBLIC	?allocate@?$allocator@U_Container_proxy@std@@@std@@QAEPAU_Container_proxy@2@I@Z ; std::allocator<std::_Container_proxy>::allocate
PUBLIC	??$_Delete_plain_internal@V?$allocator@U_Container_proxy@std@@@std@@@std@@YAXAAV?$allocator@U_Container_proxy@std@@@0@QAU_Container_proxy@0@@Z ; std::_Delete_plain_internal<std::allocator<std::_Container_proxy> >
PUBLIC	??0?$_Container_proxy_ptr12@V?$allocator@U_Container_proxy@std@@@std@@@std@@QAE@AAV?$allocator@U_Container_proxy@std@@@1@AAU_Container_base12@1@@Z ; std::_Container_proxy_ptr12<std::allocator<std::_Container_proxy> >::_Container_proxy_ptr12<std::allocator<std::_Container_proxy> >
PUBLIC	??1?$_Container_proxy_ptr12@V?$allocator@U_Container_proxy@std@@@std@@@std@@QAE@XZ ; std::_Container_proxy_ptr12<std::allocator<std::_Container_proxy> >::~_Container_proxy_ptr12<std::allocator<std::_Container_proxy> >
PUBLIC	??$?0D@?$allocator@U_Container_proxy@std@@@std@@QAE@ABV?$allocator@D@1@@Z ; std::allocator<std::_Container_proxy>::allocator<std::_Container_proxy><char>
PUBLIC	??$?0$$V@?$_Compressed_pair@V?$allocator@D@std@@V?$_String_val@U?$_Simple_types@D@std@@@2@$00@std@@QAE@U_Zero_then_variadic_args_t@1@@Z ; std::_Compressed_pair<std::allocator<char>,std::_String_val<std::_Simple_types<char> >,1>::_Compressed_pair<std::allocator<char>,std::_String_val<std::_Simple_types<char> >,1><>
PUBLIC	??$_Unfancy@U_Container_proxy@std@@@std@@YAPAU_Container_proxy@0@PAU10@@Z ; std::_Unfancy<std::_Container_proxy>
PUBLIC	??$_Destroy_in_place@PAD@std@@YAXAAPAD@Z	; std::_Destroy_in_place<char *>
PUBLIC	??R<lambda_9366063389c5f42a00a5088cf24e69de>@@QBE@QADIQBD@Z ; <lambda_9366063389c5f42a00a5088cf24e69de>::operator()
PUBLIC	??$_Reallocate_for@V<lambda_9366063389c5f42a00a5088cf24e69de>@@PBD@?$basic_string@DU?$char_traits@D@std@@V?$allocator@D@2@@std@@AAEAAV01@IV<lambda_9366063389c5f42a00a5088cf24e69de>@@PBD@Z ; std::basic_string<char,std::char_traits<char>,std::allocator<char> >::_Reallocate_for<<lambda_9366063389c5f42a00a5088cf24e69de>,char const *>
PUBLIC	??$_Construct_in_place@PADABQAD@std@@YAXAAPADABQAD@Z ; std::_Construct_in_place<char *,char * const &>
PUBLIC	??$_Unfancy@D@std@@YAPADPAD@Z			; std::_Unfancy<char>
PUBLIC	??$max@I@std@@YAABIABI0@Z			; std::max<unsigned int>
PUBLIC	??$_Get_size_of_n@$07@std@@YAII@Z		; std::_Get_size_of_n<8>
PUBLIC	??$_Allocate@$07U_Default_allocate_traits@std@@$0A@@std@@YAPAXI@Z ; std::_Allocate<8,std::_Default_allocate_traits,0>
PUBLIC	??$_Deallocate@$07$0A@@std@@YAXPAXI@Z		; std::_Deallocate<8,0>
PUBLIC	??$_Get_size_of_n@$00@std@@YAII@Z		; std::_Get_size_of_n<1>
PUBLIC	??$addressof@U_Container_proxy@std@@@std@@YAPAU_Container_proxy@0@AAU10@@Z ; std::addressof<std::_Container_proxy>
PUBLIC	??$_Voidify_iter@PAU_Container_proxy@std@@@std@@YAPAXPAU_Container_proxy@0@@Z ; std::_Voidify_iter<std::_Container_proxy *>
PUBLIC	??$forward@PAU_Container_base12@std@@@std@@YA$$QAPAU_Container_base12@0@AAPAU10@@Z ; std::forward<std::_Container_base12 *>
PUBLIC	??0_Sentry_base@?$basic_istream@DU?$char_traits@D@std@@@std@@QAE@AAV12@@Z ; std::basic_istream<char,std::char_traits<char> >::_Sentry_base::_Sentry_base
PUBLIC	??1_Sentry_base@?$basic_istream@DU?$char_traits@D@std@@@std@@QAE@XZ ; std::basic_istream<char,std::char_traits<char> >::_Sentry_base::~_Sentry_base
PUBLIC	??0sentry@?$basic_istream@DU?$char_traits@D@std@@@std@@QAE@AAV12@_N@Z ; std::basic_istream<char,std::char_traits<char> >::sentry::sentry
PUBLIC	??Bsentry@?$basic_istream@DU?$char_traits@D@std@@@std@@QBE_NXZ ; std::basic_istream<char,std::char_traits<char> >::sentry::operator bool
PUBLIC	??1sentry@?$basic_istream@DU?$char_traits@D@std@@@std@@QAE@XZ ; std::basic_istream<char,std::char_traits<char> >::sentry::~sentry
PUBLIC	??$_Deallocate_plain@V?$allocator@U_Container_proxy@std@@@std@@@std@@YAXAAV?$allocator@U_Container_proxy@std@@@0@QAU_Container_proxy@0@@Z ; std::_Deallocate_plain<std::allocator<std::_Container_proxy> >
PUBLIC	??$addressof@PAD@std@@YAPAPADAAPAD@Z		; std::addressof<char *>
PUBLIC	??$_Voidify_iter@PAPAD@std@@YAPAXPAPAD@Z	; std::_Voidify_iter<char * *>
PUBLIC	??$forward@ABQAD@std@@YAABQADABQAD@Z		; std::forward<char * const &>
PUBLIC	??$_Allocate_manually_vector_aligned@U_Default_allocate_traits@std@@@std@@YAPAXI@Z ; std::_Allocate_manually_vector_aligned<std::_Default_allocate_traits>
PUBLIC	?deallocate@?$_Default_allocator_traits@V?$allocator@U_Container_proxy@std@@@std@@@std@@SAXAAV?$allocator@U_Container_proxy@std@@@2@QAU_Container_proxy@2@I@Z ; std::_Default_allocator_traits<std::allocator<std::_Container_proxy> >::deallocate
PUBLIC	__JustMyCode_Default
PUBLIC	??_7exception@std@@6B@				; std::exception::`vftable'
PUBLIC	??_C@_0BC@EOODALEL@Unknown?5exception@		; `string'
PUBLIC	??_7bad_alloc@std@@6B@				; std::bad_alloc::`vftable'
PUBLIC	??_7bad_array_new_length@std@@6B@		; std::bad_array_new_length::`vftable'
PUBLIC	??_C@_0BF@KINCDENJ@bad?5array?5new?5length@	; `string'
PUBLIC	__TI3?AVbad_array_new_length@std@@
PUBLIC	__CTA3?AVbad_array_new_length@std@@
PUBLIC	??_R0?AVbad_array_new_length@std@@@8		; std::bad_array_new_length `RTTI Type Descriptor'
PUBLIC	__CT??_R0?AVbad_array_new_length@std@@@8??0bad_array_new_length@std@@QAE@ABV01@@Z12
PUBLIC	??_R0?AVbad_alloc@std@@@8			; std::bad_alloc `RTTI Type Descriptor'
PUBLIC	__CT??_R0?AVbad_alloc@std@@@8??0bad_alloc@std@@QAE@ABV01@@Z12
PUBLIC	??_R0?AVexception@std@@@8			; std::exception `RTTI Type Descriptor'
PUBLIC	__CT??_R0?AVexception@std@@@8??0exception@std@@QAE@ABV01@@Z12
PUBLIC	?__LINE__Var@?0??_Adjust_manually_vector_aligned@std@@YAXAAPAXAAI@Z@4JA ; `std::_Adjust_manually_vector_aligned'::`1'::__LINE__Var
PUBLIC	??_C@_0BB@FCMFBGOM@invalid?5argument@		; `string'
PUBLIC	??_C@_02DKCKIIND@?$CFs@				; `string'
PUBLIC	??_C@_0GI@MNEMJBML@C?3?2Program?5Files?5?$CIx86?$CJ?2Microsof@ ; `string'
PUBLIC	??_C@_1NA@MJBOBEJL@?$AAC?$AA?3?$AA?2?$AAP?$AAr?$AAo?$AAg?$AAr?$AAa?$AAm?$AA?5?$AAF?$AAi?$AAl?$AAe@ ; `string'
PUBLIC	??_C@_1EK@NIFDJFDG@?$AAs?$AAt?$AAd?$AA?3?$AA?3?$AA_?$AAA?$AAd?$AAj?$AAu?$AAs?$AAt?$AA_?$AAm?$AAa@ ; `string'
PUBLIC	??_C@_1CG@JNLFBNGN@?$AA?$CC?$AAi?$AAn?$AAv?$AAa?$AAl?$AAi?$AAd?$AA?5?$AAa?$AAr?$AAg?$AAu?$AAm?$AAe@ ; `string'
PUBLIC	??_C@_0BA@JFNIOLAK@string?5too?5long@		; `string'
PUBLIC	??_C@_0BG@HGEDEDEC@invalid?5stoi?5argument@	; `string'
PUBLIC	??_C@_0BL@MFFNMGGC@stoi?5argument?5out?5of?5range@ ; `string'
PUBLIC	??_C@_03EEFOAFAG@RUS@				; `string'
PUBLIC	??_C@_0OH@HLCNKNIA@?B?$PL?a?e?p?h?r?e?5?t?s?m?j?v?h?$PO?3?6?51?5?9?5?n?o?p?e?d?e?k?h@ ; `string'
PUBLIC	??_C@_0P@KPEAGGJF@?C?n?d?5?b?h?q?n?j?n?q?m?$PL?i@ ; `string'
PUBLIC	??_C@_0BC@GEBLIKEH@?C?n?d?5?m?e?5?b?h?q?n?j?n?q?m?$PL?i@ ; `string'
PUBLIC	??_C@_0BH@KNEJGAJJ@?O?n?p?$PP?d?j?n?b?$PL?i?5?m?n?l?e?p?5?d?m?$PP?3?5@ ; `string'
PUBLIC	??_C@_0CB@DMLDBMFI@?B?b?e?d?h?r?e?5?d?$OA?r?s?5?b?$OA?x?e?c?n?5?d?m?$PP?5?p?n?f?d?e?m?h@ ; `string'
PUBLIC	??_C@_0DK@MJBHBFKA@?M?e?h?g?b?e?q?r?m?$OA?$PP?5?n?o?e?p?$OA?v?h?$PP?0?5?o?n?f?$OA?k?s?i?q?r@ ; `string'
PUBLIC	??_C@_0M@NDJIFNPC@?D?D?L?L?C?C?C?C?5?$DN?5@	; `string'
PUBLIC	??_C@_0CA@DCOGFNOO@?B?b?e?d?h?r?e?5?d?$OA?r?s?5?b?5?t?n?p?l?$OA?r?e?5?D?D?L?L?C?C?C?C@ ; `string'
PUBLIC	??_C@_0CJ@GBAPBDAC@?M?e?j?n?p?p?e?j?r?m?$PL?i?5?b?b?n?d?0?5?o?n?o?p?n?a?s?i?r?e?5?e@ ; `string'
PUBLIC	??_C@_0BP@LMBHMHKM@?J?5?q?n?f?$OA?k?e?m?h?$PO?5?b?$PL?5?e?y?$LI?5?m?e?5?p?n?d?e?k?h?q?$PM@ ; `string'
PUBLIC	??_C@_0BK@HIPHAHND@?D?m?e?i?5?d?n?5?b?$OA?x?e?c?n?5?p?n?f?d?e?m?h?$PP?3?5@ ; `string'
PUBLIC	??_C@_0CC@HOIDFCJH@?J?n?k?h?w?e?q?r?b?n?5?d?m?e?i?5?d?n?5?d?m?$PP?5?p?n?f?d?e?m?h?$PP@ ; `string'
PUBLIC	??_C@_0CA@DKPLGFLM@?S?p?$OA?$CB?5?Q?e?c?n?d?m?$PP?5?b?$OA?x?5?d?e?m?$PM?5?p?n?f?d?e?m?h?$PP?$CB@ ; `string'
PUBLIC	??_C@_1EO@GFNCMDLA@?$AAs?$AAt?$AAd?$AA?3?$AA?3?$AA_?$AAA?$AAl?$AAl?$AAo?$AAc?$AAa?$AAt?$AAe?$AA_@ ; `string'
PUBLIC	??_R4exception@std@@6B@				; std::exception::`RTTI Complete Object Locator'
PUBLIC	??_R3exception@std@@8				; std::exception::`RTTI Class Hierarchy Descriptor'
PUBLIC	??_R2exception@std@@8				; std::exception::`RTTI Base Class Array'
PUBLIC	??_R1A@?0A@EA@exception@std@@8			; std::exception::`RTTI Base Class Descriptor at (0,-1,0,64)'
PUBLIC	??_R4bad_alloc@std@@6B@				; std::bad_alloc::`RTTI Complete Object Locator'
PUBLIC	??_R3bad_alloc@std@@8				; std::bad_alloc::`RTTI Class Hierarchy Descriptor'
PUBLIC	??_R2bad_alloc@std@@8				; std::bad_alloc::`RTTI Base Class Array'
PUBLIC	??_R1A@?0A@EA@bad_alloc@std@@8			; std::bad_alloc::`RTTI Base Class Descriptor at (0,-1,0,64)'
PUBLIC	??_R4bad_array_new_length@std@@6B@		; std::bad_array_new_length::`RTTI Complete Object Locator'
PUBLIC	??_R3bad_array_new_length@std@@8		; std::bad_array_new_length::`RTTI Class Hierarchy Descriptor'
PUBLIC	??_R2bad_array_new_length@std@@8		; std::bad_array_new_length::`RTTI Base Class Array'
PUBLIC	??_R1A@?0A@EA@bad_array_new_length@std@@8	; std::bad_array_new_length::`RTTI Base Class Descriptor at (0,-1,0,64)'
EXTRN	??2@YAPAXI@Z:PROC				; operator new
EXTRN	??3@YAXPAXI@Z:PROC				; operator delete
EXTRN	??_U@YAPAXI@Z:PROC				; operator new[]
EXTRN	??_V@YAXPAX@Z:PROC				; operator delete[]
EXTRN	___report_rangecheckfailure:PROC
EXTRN	__imp___invalid_parameter:PROC
EXTRN	__imp___CrtDbgReport:PROC
EXTRN	__imp_??0_Lockit@std@@QAE@H@Z:PROC
EXTRN	__imp_??1_Lockit@std@@QAE@XZ:PROC
EXTRN	__imp___errno:PROC
EXTRN	__imp__exit:PROC
EXTRN	__imp__strtol:PROC
EXTRN	_memcpy:PROC
EXTRN	_memmove:PROC
EXTRN	_strlen:PROC
EXTRN	?_Xinvalid_argument@std@@YAXPBD@Z:PROC		; std::_Xinvalid_argument
EXTRN	?_Xlength_error@std@@YAXPBD@Z:PROC		; std::_Xlength_error
EXTRN	?_Xout_of_range@std@@YAXPBD@Z:PROC		; std::_Xout_of_range
EXTRN	?uncaught_exception@std@@YA_NXZ:PROC		; std::uncaught_exception
EXTRN	___std_exception_copy:PROC
EXTRN	___std_exception_destroy:PROC
EXTRN	??_Eexception@std@@UAEPAXI@Z:PROC		; std::exception::`vector deleting destructor'
EXTRN	??_Ebad_alloc@std@@UAEPAXI@Z:PROC		; std::bad_alloc::`vector deleting destructor'
EXTRN	??_Ebad_array_new_length@std@@UAEPAXI@Z:PROC	; std::bad_array_new_length::`vector deleting destructor'
EXTRN	__imp__setlocale:PROC
EXTRN	__imp_?good@ios_base@std@@QBE_NXZ:PROC
EXTRN	__imp_?flags@ios_base@std@@QBEHXZ:PROC
EXTRN	__imp_?width@ios_base@std@@QBE_JXZ:PROC
EXTRN	__imp_?width@ios_base@std@@QAE_J_J@Z:PROC
EXTRN	__imp_?sbumpc@?$basic_streambuf@DU?$char_traits@D@std@@@std@@QAEHXZ:PROC
EXTRN	__imp_?sputc@?$basic_streambuf@DU?$char_traits@D@std@@@std@@QAEHD@Z:PROC
EXTRN	__imp_?sputn@?$basic_streambuf@DU?$char_traits@D@std@@@std@@QAE_JPBD_J@Z:PROC
EXTRN	__imp_?setstate@?$basic_ios@DU?$char_traits@D@std@@@std@@QAEXH_N@Z:PROC
EXTRN	__imp_?tie@?$basic_ios@DU?$char_traits@D@std@@@std@@QBEPAV?$basic_ostream@DU?$char_traits@D@std@@@2@XZ:PROC
EXTRN	__imp_?rdbuf@?$basic_ios@DU?$char_traits@D@std@@@std@@QBEPAV?$basic_streambuf@DU?$char_traits@D@std@@@2@XZ:PROC
EXTRN	__imp_?fill@?$basic_ios@DU?$char_traits@D@std@@@std@@QBEDXZ:PROC
EXTRN	__imp_?widen@?$basic_ios@DU?$char_traits@D@std@@@std@@QBEDD@Z:PROC
EXTRN	__imp_?_Osfx@?$basic_ostream@DU?$char_traits@D@std@@@std@@QAEXXZ:PROC
EXTRN	__imp_??6?$basic_ostream@DU?$char_traits@D@std@@@std@@QAEAAV01@P6AAAV01@AAV01@@Z@Z:PROC
EXTRN	__imp_??6?$basic_ostream@DU?$char_traits@D@std@@@std@@QAEAAV01@H@Z:PROC
EXTRN	__imp_?put@?$basic_ostream@DU?$char_traits@D@std@@@std@@QAEAAV12@D@Z:PROC
EXTRN	__imp_?flush@?$basic_ostream@DU?$char_traits@D@std@@@std@@QAEAAV12@XZ:PROC
EXTRN	__imp_?_Ipfx@?$basic_istream@DU?$char_traits@D@std@@@std@@QAE_N_N@Z:PROC
EXTRN	__imp_??5?$basic_istream@DU?$char_traits@D@std@@@std@@QAEAAV01@AAH@Z:PROC
EXTRN	@_RTC_CheckStackVars@8:PROC
EXTRN	@__CheckForDebuggerJustMyCode@4:PROC
EXTRN	@__security_check_cookie@4:PROC
EXTRN	__CxxThrowException@8:PROC
EXTRN	__RTC_CheckEsp:PROC
EXTRN	__RTC_InitBase:PROC
EXTRN	__RTC_Shutdown:PROC
EXTRN	___CxxFrameHandler3:PROC
EXTRN	??_7type_info@@6B@:QWORD			; type_info::`vftable'
EXTRN	__imp_?cin@std@@3V?$basic_istream@DU?$char_traits@D@std@@@1@A:BYTE
EXTRN	__imp_?cout@std@@3V?$basic_ostream@DU?$char_traits@D@std@@@1@A:BYTE
EXTRN	___security_cookie:DWORD
;	COMDAT rtc$TMZ
rtc$TMZ	SEGMENT
__RTC_Shutdown.rtc$TMZ DD FLAT:__RTC_Shutdown
rtc$TMZ	ENDS
;	COMDAT rtc$IMZ
rtc$IMZ	SEGMENT
__RTC_InitBase.rtc$IMZ DD FLAT:__RTC_InitBase
rtc$IMZ	ENDS
;	COMDAT ??_R1A@?0A@EA@bad_array_new_length@std@@8
rdata$r	SEGMENT
??_R1A@?0A@EA@bad_array_new_length@std@@8 DD FLAT:??_R0?AVbad_array_new_length@std@@@8 ; std::bad_array_new_length::`RTTI Base Class Descriptor at (0,-1,0,64)'
	DD	02H
	DD	00H
	DD	0ffffffffH
	DD	00H
	DD	040H
	DD	FLAT:??_R3bad_array_new_length@std@@8
rdata$r	ENDS
;	COMDAT ??_R2bad_array_new_length@std@@8
rdata$r	SEGMENT
??_R2bad_array_new_length@std@@8 DD FLAT:??_R1A@?0A@EA@bad_array_new_length@std@@8 ; std::bad_array_new_length::`RTTI Base Class Array'
	DD	FLAT:??_R1A@?0A@EA@bad_alloc@std@@8
	DD	FLAT:??_R1A@?0A@EA@exception@std@@8
rdata$r	ENDS
;	COMDAT ??_R3bad_array_new_length@std@@8
rdata$r	SEGMENT
??_R3bad_array_new_length@std@@8 DD 00H			; std::bad_array_new_length::`RTTI Class Hierarchy Descriptor'
	DD	00H
	DD	03H
	DD	FLAT:??_R2bad_array_new_length@std@@8
rdata$r	ENDS
;	COMDAT ??_R4bad_array_new_length@std@@6B@
rdata$r	SEGMENT
??_R4bad_array_new_length@std@@6B@ DD 00H		; std::bad_array_new_length::`RTTI Complete Object Locator'
	DD	00H
	DD	00H
	DD	FLAT:??_R0?AVbad_array_new_length@std@@@8
	DD	FLAT:??_R3bad_array_new_length@std@@8
rdata$r	ENDS
;	COMDAT ??_R1A@?0A@EA@bad_alloc@std@@8
rdata$r	SEGMENT
??_R1A@?0A@EA@bad_alloc@std@@8 DD FLAT:??_R0?AVbad_alloc@std@@@8 ; std::bad_alloc::`RTTI Base Class Descriptor at (0,-1,0,64)'
	DD	01H
	DD	00H
	DD	0ffffffffH
	DD	00H
	DD	040H
	DD	FLAT:??_R3bad_alloc@std@@8
rdata$r	ENDS
;	COMDAT ??_R2bad_alloc@std@@8
rdata$r	SEGMENT
??_R2bad_alloc@std@@8 DD FLAT:??_R1A@?0A@EA@bad_alloc@std@@8 ; std::bad_alloc::`RTTI Base Class Array'
	DD	FLAT:??_R1A@?0A@EA@exception@std@@8
rdata$r	ENDS
;	COMDAT ??_R3bad_alloc@std@@8
rdata$r	SEGMENT
??_R3bad_alloc@std@@8 DD 00H				; std::bad_alloc::`RTTI Class Hierarchy Descriptor'
	DD	00H
	DD	02H
	DD	FLAT:??_R2bad_alloc@std@@8
rdata$r	ENDS
;	COMDAT ??_R4bad_alloc@std@@6B@
rdata$r	SEGMENT
??_R4bad_alloc@std@@6B@ DD 00H				; std::bad_alloc::`RTTI Complete Object Locator'
	DD	00H
	DD	00H
	DD	FLAT:??_R0?AVbad_alloc@std@@@8
	DD	FLAT:??_R3bad_alloc@std@@8
rdata$r	ENDS
;	COMDAT ??_R1A@?0A@EA@exception@std@@8
rdata$r	SEGMENT
??_R1A@?0A@EA@exception@std@@8 DD FLAT:??_R0?AVexception@std@@@8 ; std::exception::`RTTI Base Class Descriptor at (0,-1,0,64)'
	DD	00H
	DD	00H
	DD	0ffffffffH
	DD	00H
	DD	040H
	DD	FLAT:??_R3exception@std@@8
rdata$r	ENDS
;	COMDAT ??_R2exception@std@@8
rdata$r	SEGMENT
??_R2exception@std@@8 DD FLAT:??_R1A@?0A@EA@exception@std@@8 ; std::exception::`RTTI Base Class Array'
rdata$r	ENDS
;	COMDAT ??_R3exception@std@@8
rdata$r	SEGMENT
??_R3exception@std@@8 DD 00H				; std::exception::`RTTI Class Hierarchy Descriptor'
	DD	00H
	DD	01H
	DD	FLAT:??_R2exception@std@@8
rdata$r	ENDS
;	COMDAT ??_R4exception@std@@6B@
rdata$r	SEGMENT
??_R4exception@std@@6B@ DD 00H				; std::exception::`RTTI Complete Object Locator'
	DD	00H
	DD	00H
	DD	FLAT:??_R0?AVexception@std@@@8
	DD	FLAT:??_R3exception@std@@8
rdata$r	ENDS
;	COMDAT ??_C@_1EO@GFNCMDLA@?$AAs?$AAt?$AAd?$AA?3?$AA?3?$AA_?$AAA?$AAl?$AAl?$AAo?$AAc?$AAa?$AAt?$AAe?$AA_@
CONST	SEGMENT
??_C@_1EO@GFNCMDLA@?$AAs?$AAt?$AAd?$AA?3?$AA?3?$AA_?$AAA?$AAl?$AAl?$AAo?$AAc?$AAa?$AAt?$AAe?$AA_@ DB 's'
	DB	00H, 't', 00H, 'd', 00H, ':', 00H, ':', 00H, '_', 00H, 'A', 00H
	DB	'l', 00H, 'l', 00H, 'o', 00H, 'c', 00H, 'a', 00H, 't', 00H, 'e'
	DB	00H, '_', 00H, 'm', 00H, 'a', 00H, 'n', 00H, 'u', 00H, 'a', 00H
	DB	'l', 00H, 'l', 00H, 'y', 00H, '_', 00H, 'v', 00H, 'e', 00H, 'c'
	DB	00H, 't', 00H, 'o', 00H, 'r', 00H, '_', 00H, 'a', 00H, 'l', 00H
	DB	'i', 00H, 'g', 00H, 'n', 00H, 'e', 00H, 'd', 00H, 00H, 00H ; `string'
CONST	ENDS
;	COMDAT ??_C@_0CA@DKPLGFLM@?S?p?$OA?$CB?5?Q?e?c?n?d?m?$PP?5?b?$OA?x?5?d?e?m?$PM?5?p?n?f?d?e?m?h?$PP?$CB@
CONST	SEGMENT
??_C@_0CA@DKPLGFLM@?S?p?$OA?$CB?5?Q?e?c?n?d?m?$PP?5?b?$OA?x?5?d?e?m?$PM?5?p?n?f?d?e?m?h?$PP?$CB@ DB 0d3H
	DB	0f0H, 0e0H, '! ', 0d1H, 0e5H, 0e3H, 0eeH, 0e4H, 0edH, 0ffH, ' '
	DB	0e2H, 0e0H, 0f8H, ' ', 0e4H, 0e5H, 0edH, 0fcH, ' ', 0f0H, 0eeH
	DB	0e6H, 0e4H, 0e5H, 0edH, 0e8H, 0ffH, '!', 00H	; `string'
CONST	ENDS
;	COMDAT ??_C@_0CC@HOIDFCJH@?J?n?k?h?w?e?q?r?b?n?5?d?m?e?i?5?d?n?5?d?m?$PP?5?p?n?f?d?e?m?h?$PP@
CONST	SEGMENT
??_C@_0CC@HOIDFCJH@?J?n?k?h?w?e?q?r?b?n?5?d?m?e?i?5?d?n?5?d?m?$PP?5?p?n?f?d?e?m?h?$PP@ DB 0caH
	DB	0eeH, 0ebH, 0e8H, 0f7H, 0e5H, 0f1H, 0f2H, 0e2H, 0eeH, ' ', 0e4H
	DB	0edH, 0e5H, 0e9H, ' ', 0e4H, 0eeH, ' ', 0e4H, 0edH, 0ffH, ' ', 0f0H
	DB	0eeH, 0e6H, 0e4H, 0e5H, 0edH, 0e8H, 0ffH, ': ', 00H ; `string'
CONST	ENDS
;	COMDAT ??_C@_0BK@HIPHAHND@?D?m?e?i?5?d?n?5?b?$OA?x?e?c?n?5?p?n?f?d?e?m?h?$PP?3?5@
CONST	SEGMENT
??_C@_0BK@HIPHAHND@?D?m?e?i?5?d?n?5?b?$OA?x?e?c?n?5?p?n?f?d?e?m?h?$PP?3?5@ DB 0c4H
	DB	0edH, 0e5H, 0e9H, ' ', 0e4H, 0eeH, ' ', 0e2H, 0e0H, 0f8H, 0e5H
	DB	0e3H, 0eeH, ' ', 0f0H, 0eeH, 0e6H, 0e4H, 0e5H, 0edH, 0e8H, 0ffH
	DB	': ', 00H					; `string'
CONST	ENDS
;	COMDAT ??_C@_0BP@LMBHMHKM@?J?5?q?n?f?$OA?k?e?m?h?$PO?5?b?$PL?5?e?y?$LI?5?m?e?5?p?n?d?e?k?h?q?$PM@
CONST	SEGMENT
??_C@_0BP@LMBHMHKM@?J?5?q?n?f?$OA?k?e?m?h?$PO?5?b?$PL?5?e?y?$LI?5?m?e?5?p?n?d?e?k?h?q?$PM@ DB 0caH
	DB	' ', 0f1H, 0eeH, 0e6H, 0e0H, 0ebH, 0e5H, 0edH, 0e8H, 0feH, ' ', 0e2H
	DB	0fbH, ' ', 0e5H, 0f9H, 0b8H, ' ', 0edH, 0e5H, ' ', 0f0H, 0eeH, 0e4H
	DB	0e5H, 0ebH, 0e8H, 0f1H, 0fcH, 00H		; `string'
CONST	ENDS
;	COMDAT ??_C@_0CJ@GBAPBDAC@?M?e?j?n?p?p?e?j?r?m?$PL?i?5?b?b?n?d?0?5?o?n?o?p?n?a?s?i?r?e?5?e@
CONST	SEGMENT
??_C@_0CJ@GBAPBDAC@?M?e?j?n?p?p?e?j?r?m?$PL?i?5?b?b?n?d?0?5?o?n?o?p?n?a?s?i?r?e?5?e@ DB 0cdH
	DB	0e5H, 0eaH, 0eeH, 0f0H, 0f0H, 0e5H, 0eaH, 0f2H, 0edH, 0fbH, 0e9H
	DB	' ', 0e2H, 0e2H, 0eeH, 0e4H, ', ', 0efH, 0eeH, 0efH, 0f0H, 0eeH
	DB	0e1H, 0f3H, 0e9H, 0f2H, 0e5H, ' ', 0e5H, 0f9H, 0b8H, ' ', 0f0H
	DB	0e0H, 0e7H, '.', 0aH, ' ', 00H		; `string'
CONST	ENDS
;	COMDAT ??_C@_0CA@DCOGFNOO@?B?b?e?d?h?r?e?5?d?$OA?r?s?5?b?5?t?n?p?l?$OA?r?e?5?D?D?L?L?C?C?C?C@
CONST	SEGMENT
??_C@_0CA@DCOGFNOO@?B?b?e?d?h?r?e?5?d?$OA?r?s?5?b?5?t?n?p?l?$OA?r?e?5?D?D?L?L?C?C?C?C@ DB 0c2H
	DB	0e2H, 0e5H, 0e4H, 0e8H, 0f2H, 0e5H, ' ', 0e4H, 0e0H, 0f2H, 0f3H
	DB	' ', 0e2H, ' ', 0f4H, 0eeH, 0f0H, 0ecH, 0e0H, 0f2H, 0e5H, ' ', 0c4H
	DB	0c4H, 0ccH, 0ccH, 0c3H, 0c3H, 0c3H, 0c3H, 00H ; `string'
CONST	ENDS
;	COMDAT ??_C@_0M@NDJIFNPC@?D?D?L?L?C?C?C?C?5?$DN?5@
CONST	SEGMENT
??_C@_0M@NDJIFNPC@?D?D?L?L?C?C?C?C?5?$DN?5@ DB 0c4H, 0c4H, 0ccH, 0ccH, 0c3H
	DB	0c3H, 0c3H, 0c3H, ' = ', 00H			; `string'
CONST	ENDS
;	COMDAT ??_C@_0DK@MJBHBFKA@?M?e?h?g?b?e?q?r?m?$OA?$PP?5?n?o?e?p?$OA?v?h?$PP?0?5?o?n?f?$OA?k?s?i?q?r@
CONST	SEGMENT
??_C@_0DK@MJBHBFKA@?M?e?h?g?b?e?q?r?m?$OA?$PP?5?n?o?e?p?$OA?v?h?$PP?0?5?o?n?f?$OA?k?s?i?q?r@ DB 0cdH
	DB	0e5H, 0e8H, 0e7H, 0e2H, 0e5H, 0f1H, 0f2H, 0edH, 0e0H, 0ffH, ' '
	DB	0eeH, 0efH, 0e5H, 0f0H, 0e0H, 0f6H, 0e8H, 0ffH, ', ', 0efH, 0eeH
	DB	0e6H, 0e0H, 0ebH, 0f3H, 0e9H, 0f1H, 0f2H, 0e0H, ' ', 0e2H, 0fbH
	DB	0e1H, 0e5H, 0f0H, 0e8H, 0f2H, 0e5H, ' ', 0f6H, 0e8H, 0f4H, 0f0H
	DB	0f3H, ' ', 0eeH, 0f2H, ' 1 ', 0e4H, 0eeH, ' 5', 00H ; `string'
CONST	ENDS
;	COMDAT ??_C@_0CB@DMLDBMFI@?B?b?e?d?h?r?e?5?d?$OA?r?s?5?b?$OA?x?e?c?n?5?d?m?$PP?5?p?n?f?d?e?m?h@
CONST	SEGMENT
??_C@_0CB@DMLDBMFI@?B?b?e?d?h?r?e?5?d?$OA?r?s?5?b?$OA?x?e?c?n?5?d?m?$PP?5?p?n?f?d?e?m?h@ DB 0c2H
	DB	0e2H, 0e5H, 0e4H, 0e8H, 0f2H, 0e5H, ' ', 0e4H, 0e0H, 0f2H, 0f3H
	DB	' ', 0e2H, 0e0H, 0f8H, 0e5H, 0e3H, 0eeH, ' ', 0e4H, 0edH, 0ffH
	DB	' ', 0f0H, 0eeH, 0e6H, 0e4H, 0e5H, 0edH, 0e8H, 0ffH, 00H ; `string'
CONST	ENDS
;	COMDAT ??_C@_0BH@KNEJGAJJ@?O?n?p?$PP?d?j?n?b?$PL?i?5?m?n?l?e?p?5?d?m?$PP?3?5@
CONST	SEGMENT
??_C@_0BH@KNEJGAJJ@?O?n?p?$PP?d?j?n?b?$PL?i?5?m?n?l?e?p?5?d?m?$PP?3?5@ DB 0cfH
	DB	0eeH, 0f0H, 0ffH, 0e4H, 0eaH, 0eeH, 0e2H, 0fbH, 0e9H, ' ', 0edH
	DB	0eeH, 0ecH, 0e5H, 0f0H, ' ', 0e4H, 0edH, 0ffH, ': ', 00H ; `string'
CONST	ENDS
;	COMDAT ??_C@_0BC@GEBLIKEH@?C?n?d?5?m?e?5?b?h?q?n?j?n?q?m?$PL?i@
CONST	SEGMENT
??_C@_0BC@GEBLIKEH@?C?n?d?5?m?e?5?b?h?q?n?j?n?q?m?$PL?i@ DB 0c3H, 0eeH, 0e4H
	DB	' ', 0edH, 0e5H, ' ', 0e2H, 0e8H, 0f1H, 0eeH, 0eaH, 0eeH, 0f1H
	DB	0edH, 0fbH, 0e9H, 00H			; `string'
CONST	ENDS
;	COMDAT ??_C@_0P@KPEAGGJF@?C?n?d?5?b?h?q?n?j?n?q?m?$PL?i@
CONST	SEGMENT
??_C@_0P@KPEAGGJF@?C?n?d?5?b?h?q?n?j?n?q?m?$PL?i@ DB 0c3H, 0eeH, 0e4H, ' '
	DB	0e2H, 0e8H, 0f1H, 0eeH, 0eaH, 0eeH, 0f1H, 0edH, 0fbH, 0e9H, 00H ; `string'
CONST	ENDS
;	COMDAT ??_C@_0OH@HLCNKNIA@?B?$PL?a?e?p?h?r?e?5?t?s?m?j?v?h?$PO?3?6?51?5?9?5?n?o?p?e?d?e?k?h@
CONST	SEGMENT
??_C@_0OH@HLCNKNIA@?B?$PL?a?e?p?h?r?e?5?t?s?m?j?v?h?$PO?3?6?51?5?9?5?n?o?p?e?d?e?k?h@ DB 0c2H
	DB	0fbH, 0e1H, 0e5H, 0f0H, 0e8H, 0f2H, 0e5H, ' ', 0f4H, 0f3H, 0edH
	DB	0eaH, 0f6H, 0e8H, 0feH, ':', 0aH, ' 1 - ', 0eeH, 0efH, 0f0H, 0e5H
	DB	0e4H, 0e5H, 0ebH, 0e8H, 0f2H, 0fcH, ', ', 0ffH, 0e2H, 0ebH, 0ffH
	DB	0e5H, 0f2H, 0f1H, 0ffH, ' ', 0ebH, 0e8H, ' ', 0e2H, 0e2H, 0e5H
	DB	0e4H, 0e5H, 0edH, 0edH, 0fbH, 0e9H, ' ', 0e3H, 0eeH, 0e4H, ' ', 0e2H
	DB	0e8H, 0f1H, 0eeH, 0eaH, 0eeH, 0f1H, 0edH, 0fbH, 0ecH, 0aH, ' 2'
	DB	' - ', 0e2H, 0fbH, 0f7H, 0e8H, 0f1H, 0ebH, 0e8H, 0f2H, 0fcH, ' '
	DB	0efH, 0eeH, 0f0H, 0ffH, 0e4H, 0eaH, 0eeH, 0e2H, 0fbH, 0e9H, ' '
	DB	0edH, 0eeH, 0ecH, 0e5H, 0f0H, ' ', 0e2H, 0e2H, 0e5H, 0e4H, 0e5H
	DB	0edH, 0edH, 0eeH, 0e3H, 0eeH, ' ', 0e4H, 0edH, 0ffH, ' ', 0e2H
	DB	' ', 0e3H, 0eeH, 0e4H, 0f3H, 0aH, ' 3 - ', 0e2H, 0fbH, 0f7H, 0e8H
	DB	0f1H, 0ebH, 0e8H, 0f2H, 0fcH, ' ', 0f1H, 0eaH, 0eeH, 0ebH, 0fcH
	DB	0eaH, 0eeH, ' ', 0e4H, 0edH, 0e5H, 0e9H, ' ', 0eeH, 0f1H, 0f2H
	DB	0e0H, 0ebH, 0eeH, 0f1H, 0fcH, ' ', 0e4H, 0eeH, ' ', 0e1H, 0ebH
	DB	0e8H, 0e6H, 0e0H, 0e9H, 0f8H, 0e5H, 0e3H, 0eeH, ' ', 0e4H, 0edH
	DB	0ffH, ' ', 0e2H, 0e0H, 0f8H, 0e5H, 0e3H, 0eeH, ' ', 0f0H, 0eeH
	DB	0e6H, 0e4H, 0e5H, 0edH, 0e8H, 0ffH, 0aH, ' 4 - ', 0e2H, 0e2H, 0e5H
	DB	0f1H, 0f2H, 0e8H, ' ', 0edH, 0eeH, 0e2H, 0f3H, 0feH, ' ', 0e4H
	DB	0e0H, 0f2H, 0f3H, 0aH, ' 5 - ', 0e2H, 0fbH, 0f5H, 0eeH, 0e4H, 00H ; `string'
CONST	ENDS
;	COMDAT ??_C@_03EEFOAFAG@RUS@
CONST	SEGMENT
??_C@_03EEFOAFAG@RUS@ DB 'RUS', 00H			; `string'
CONST	ENDS
;	COMDAT ??_C@_0BL@MFFNMGGC@stoi?5argument?5out?5of?5range@
CONST	SEGMENT
??_C@_0BL@MFFNMGGC@stoi?5argument?5out?5of?5range@ DB 'stoi argument out '
	DB	'of range', 00H				; `string'
CONST	ENDS
;	COMDAT ??_C@_0BG@HGEDEDEC@invalid?5stoi?5argument@
CONST	SEGMENT
??_C@_0BG@HGEDEDEC@invalid?5stoi?5argument@ DB 'invalid stoi argument', 00H ; `string'
CONST	ENDS
;	COMDAT ??_C@_0BA@JFNIOLAK@string?5too?5long@
CONST	SEGMENT
??_C@_0BA@JFNIOLAK@string?5too?5long@ DB 'string too long', 00H ; `string'
CONST	ENDS
;	COMDAT ??_C@_1CG@JNLFBNGN@?$AA?$CC?$AAi?$AAn?$AAv?$AAa?$AAl?$AAi?$AAd?$AA?5?$AAa?$AAr?$AAg?$AAu?$AAm?$AAe@
CONST	SEGMENT
??_C@_1CG@JNLFBNGN@?$AA?$CC?$AAi?$AAn?$AAv?$AAa?$AAl?$AAi?$AAd?$AA?5?$AAa?$AAr?$AAg?$AAu?$AAm?$AAe@ DB '"'
	DB	00H, 'i', 00H, 'n', 00H, 'v', 00H, 'a', 00H, 'l', 00H, 'i', 00H
	DB	'd', 00H, ' ', 00H, 'a', 00H, 'r', 00H, 'g', 00H, 'u', 00H, 'm'
	DB	00H, 'e', 00H, 'n', 00H, 't', 00H, '"', 00H, 00H, 00H ; `string'
CONST	ENDS
;	COMDAT ??_C@_1EK@NIFDJFDG@?$AAs?$AAt?$AAd?$AA?3?$AA?3?$AA_?$AAA?$AAd?$AAj?$AAu?$AAs?$AAt?$AA_?$AAm?$AAa@
CONST	SEGMENT
??_C@_1EK@NIFDJFDG@?$AAs?$AAt?$AAd?$AA?3?$AA?3?$AA_?$AAA?$AAd?$AAj?$AAu?$AAs?$AAt?$AA_?$AAm?$AAa@ DB 's'
	DB	00H, 't', 00H, 'd', 00H, ':', 00H, ':', 00H, '_', 00H, 'A', 00H
	DB	'd', 00H, 'j', 00H, 'u', 00H, 's', 00H, 't', 00H, '_', 00H, 'm'
	DB	00H, 'a', 00H, 'n', 00H, 'u', 00H, 'a', 00H, 'l', 00H, 'l', 00H
	DB	'y', 00H, '_', 00H, 'v', 00H, 'e', 00H, 'c', 00H, 't', 00H, 'o'
	DB	00H, 'r', 00H, '_', 00H, 'a', 00H, 'l', 00H, 'i', 00H, 'g', 00H
	DB	'n', 00H, 'e', 00H, 'd', 00H, 00H, 00H	; `string'
CONST	ENDS
;	COMDAT ??_C@_1NA@MJBOBEJL@?$AAC?$AA?3?$AA?2?$AAP?$AAr?$AAo?$AAg?$AAr?$AAa?$AAm?$AA?5?$AAF?$AAi?$AAl?$AAe@
CONST	SEGMENT
??_C@_1NA@MJBOBEJL@?$AAC?$AA?3?$AA?2?$AAP?$AAr?$AAo?$AAg?$AAr?$AAa?$AAm?$AA?5?$AAF?$AAi?$AAl?$AAe@ DB 'C'
	DB	00H, ':', 00H, '\', 00H, 'P', 00H, 'r', 00H, 'o', 00H, 'g', 00H
	DB	'r', 00H, 'a', 00H, 'm', 00H, ' ', 00H, 'F', 00H, 'i', 00H, 'l'
	DB	00H, 'e', 00H, 's', 00H, ' ', 00H, '(', 00H, 'x', 00H, '8', 00H
	DB	'6', 00H, ')', 00H, '\', 00H, 'M', 00H, 'i', 00H, 'c', 00H, 'r'
	DB	00H, 'o', 00H, 's', 00H, 'o', 00H, 'f', 00H, 't', 00H, ' ', 00H
	DB	'V', 00H, 'i', 00H, 's', 00H, 'u', 00H, 'a', 00H, 'l', 00H, ' '
	DB	00H, 'S', 00H, 't', 00H, 'u', 00H, 'd', 00H, 'i', 00H, 'o', 00H
	DB	'\', 00H, '2', 00H, '0', 00H, '1', 00H, '9', 00H, '\', 00H, 'C'
	DB	00H, 'o', 00H, 'm', 00H, 'm', 00H, 'u', 00H, 'n', 00H, 'i', 00H
	DB	't', 00H, 'y', 00H, '\', 00H, 'V', 00H, 'C', 00H, '\', 00H, 'T'
	DB	00H, 'o', 00H, 'o', 00H, 'l', 00H, 's', 00H, '\', 00H, 'M', 00H
	DB	'S', 00H, 'V', 00H, 'C', 00H, '\', 00H, '1', 00H, '4', 00H, '.'
	DB	00H, '2', 00H, '9', 00H, '.', 00H, '3', 00H, '0', 00H, '1', 00H
	DB	'3', 00H, '3', 00H, '\', 00H, 'i', 00H, 'n', 00H, 'c', 00H, 'l'
	DB	00H, 'u', 00H, 'd', 00H, 'e', 00H, '\', 00H, 'x', 00H, 'm', 00H
	DB	'e', 00H, 'm', 00H, 'o', 00H, 'r', 00H, 'y', 00H, 00H, 00H ; `string'
CONST	ENDS
;	COMDAT ??_C@_0GI@MNEMJBML@C?3?2Program?5Files?5?$CIx86?$CJ?2Microsof@
CONST	SEGMENT
??_C@_0GI@MNEMJBML@C?3?2Program?5Files?5?$CIx86?$CJ?2Microsof@ DB 'C:\Pro'
	DB	'gram Files (x86)\Microsoft Visual Studio\2019\Community\VC\To'
	DB	'ols\MSVC\14.29.30133\include\xmemory', 00H	; `string'
CONST	ENDS
;	COMDAT ??_C@_02DKCKIIND@?$CFs@
CONST	SEGMENT
??_C@_02DKCKIIND@?$CFs@ DB '%s', 00H			; `string'
CONST	ENDS
;	COMDAT ??_C@_0BB@FCMFBGOM@invalid?5argument@
CONST	SEGMENT
??_C@_0BB@FCMFBGOM@invalid?5argument@ DB 'invalid argument', 00H ; `string'
CONST	ENDS
;	COMDAT ?__LINE__Var@?0??_Adjust_manually_vector_aligned@std@@YAXAAPAXAAI@Z@4JA
_DATA	SEGMENT
?__LINE__Var@?0??_Adjust_manually_vector_aligned@std@@YAXAAPAXAAI@Z@4JA DD 099H ; `std::_Adjust_manually_vector_aligned'::`1'::__LINE__Var
_DATA	ENDS
;	COMDAT __CT??_R0?AVexception@std@@@8??0exception@std@@QAE@ABV01@@Z12
xdata$x	SEGMENT
__CT??_R0?AVexception@std@@@8??0exception@std@@QAE@ABV01@@Z12 DD 00H
	DD	FLAT:??_R0?AVexception@std@@@8
	DD	00H
	DD	0ffffffffH
	ORG $+4
	DD	0cH
	DD	FLAT:??0exception@std@@QAE@ABV01@@Z
xdata$x	ENDS
;	COMDAT ??_R0?AVexception@std@@@8
data$r	SEGMENT
??_R0?AVexception@std@@@8 DD FLAT:??_7type_info@@6B@	; std::exception `RTTI Type Descriptor'
	DD	00H
	DB	'.?AVexception@std@@', 00H
data$r	ENDS
;	COMDAT __CT??_R0?AVbad_alloc@std@@@8??0bad_alloc@std@@QAE@ABV01@@Z12
xdata$x	SEGMENT
__CT??_R0?AVbad_alloc@std@@@8??0bad_alloc@std@@QAE@ABV01@@Z12 DD 010H
	DD	FLAT:??_R0?AVbad_alloc@std@@@8
	DD	00H
	DD	0ffffffffH
	ORG $+4
	DD	0cH
	DD	FLAT:??0bad_alloc@std@@QAE@ABV01@@Z
xdata$x	ENDS
;	COMDAT ??_R0?AVbad_alloc@std@@@8
data$r	SEGMENT
??_R0?AVbad_alloc@std@@@8 DD FLAT:??_7type_info@@6B@	; std::bad_alloc `RTTI Type Descriptor'
	DD	00H
	DB	'.?AVbad_alloc@std@@', 00H
data$r	ENDS
;	COMDAT __CT??_R0?AVbad_array_new_length@std@@@8??0bad_array_new_length@std@@QAE@ABV01@@Z12
xdata$x	SEGMENT
__CT??_R0?AVbad_array_new_length@std@@@8??0bad_array_new_length@std@@QAE@ABV01@@Z12 DD 00H
	DD	FLAT:??_R0?AVbad_array_new_length@std@@@8
	DD	00H
	DD	0ffffffffH
	ORG $+4
	DD	0cH
	DD	FLAT:??0bad_array_new_length@std@@QAE@ABV01@@Z
xdata$x	ENDS
;	COMDAT ??_R0?AVbad_array_new_length@std@@@8
data$r	SEGMENT
??_R0?AVbad_array_new_length@std@@@8 DD FLAT:??_7type_info@@6B@ ; std::bad_array_new_length `RTTI Type Descriptor'
	DD	00H
	DB	'.?AVbad_array_new_length@std@@', 00H
data$r	ENDS
;	COMDAT __CTA3?AVbad_array_new_length@std@@
xdata$x	SEGMENT
__CTA3?AVbad_array_new_length@std@@ DD 03H
	DD	FLAT:__CT??_R0?AVbad_array_new_length@std@@@8??0bad_array_new_length@std@@QAE@ABV01@@Z12
	DD	FLAT:__CT??_R0?AVbad_alloc@std@@@8??0bad_alloc@std@@QAE@ABV01@@Z12
	DD	FLAT:__CT??_R0?AVexception@std@@@8??0exception@std@@QAE@ABV01@@Z12
xdata$x	ENDS
;	COMDAT __TI3?AVbad_array_new_length@std@@
xdata$x	SEGMENT
__TI3?AVbad_array_new_length@std@@ DD 00H
	DD	FLAT:??1bad_array_new_length@std@@UAE@XZ
	DD	00H
	DD	FLAT:__CTA3?AVbad_array_new_length@std@@
xdata$x	ENDS
;	COMDAT ??_C@_0BF@KINCDENJ@bad?5array?5new?5length@
CONST	SEGMENT
??_C@_0BF@KINCDENJ@bad?5array?5new?5length@ DB 'bad array new length', 00H ; `string'
CONST	ENDS
;	COMDAT ??_7bad_array_new_length@std@@6B@
CONST	SEGMENT
??_7bad_array_new_length@std@@6B@ DD FLAT:??_R4bad_array_new_length@std@@6B@ ; std::bad_array_new_length::`vftable'
	DD	FLAT:??_Ebad_array_new_length@std@@UAEPAXI@Z
	DD	FLAT:?what@exception@std@@UBEPBDXZ
CONST	ENDS
;	COMDAT ??_7bad_alloc@std@@6B@
CONST	SEGMENT
??_7bad_alloc@std@@6B@ DD FLAT:??_R4bad_alloc@std@@6B@	; std::bad_alloc::`vftable'
	DD	FLAT:??_Ebad_alloc@std@@UAEPAXI@Z
	DD	FLAT:?what@exception@std@@UBEPBDXZ
CONST	ENDS
;	COMDAT ??_C@_0BC@EOODALEL@Unknown?5exception@
CONST	SEGMENT
??_C@_0BC@EOODALEL@Unknown?5exception@ DB 'Unknown exception', 00H ; `string'
CONST	ENDS
;	COMDAT ??_7exception@std@@6B@
CONST	SEGMENT
??_7exception@std@@6B@ DD FLAT:??_R4exception@std@@6B@	; std::exception::`vftable'
	DD	FLAT:??_Eexception@std@@UAEPAXI@Z
	DD	FLAT:?what@exception@std@@UBEPBDXZ
CONST	ENDS
;	COMDAT voltbl
voltbl	SEGMENT
_volmd	DB	09H
voltbl	ENDS
;	COMDAT xdata$x
xdata$x	SEGMENT
__ehfuncinfo$??$_Deallocate_plain@V?$allocator@U_Container_proxy@std@@@std@@@std@@YAXAAV?$allocator@U_Container_proxy@std@@@0@QAU_Container_proxy@0@@Z DD 019930522H
	DD	00H
	DD	00H
	DD	2 DUP(00H)
	DD	2 DUP(00H)
	DD	00H
	DD	05H
xdata$x	ENDS
;	COMDAT voltbl
voltbl	SEGMENT
_volmd	DB	016H
voltbl	ENDS
;	COMDAT xdata$x
xdata$x	SEGMENT
__unwindtable$??0sentry@?$basic_istream@DU?$char_traits@D@std@@@std@@QAE@AAV12@_N@Z DD 0ffffffffH
	DD	FLAT:__unwindfunclet$??0sentry@?$basic_istream@DU?$char_traits@D@std@@@std@@QAE@AAV12@_N@Z$0
__ehfuncinfo$??0sentry@?$basic_istream@DU?$char_traits@D@std@@@std@@QAE@AAV12@_N@Z DD 019930522H
	DD	01H
	DD	FLAT:__unwindtable$??0sentry@?$basic_istream@DU?$char_traits@D@std@@@std@@QAE@AAV12@_N@Z
	DD	2 DUP(00H)
	DD	2 DUP(00H)
	DD	00H
	DD	01H
xdata$x	ENDS
;	COMDAT voltbl
voltbl	SEGMENT
_volmd	DB	09H
voltbl	ENDS
;	COMDAT xdata$x
xdata$x	SEGMENT
__ehfuncinfo$??1_Sentry_base@?$basic_istream@DU?$char_traits@D@std@@@std@@QAE@XZ DD 019930522H
	DD	00H
	DD	00H
	DD	2 DUP(00H)
	DD	2 DUP(00H)
	DD	00H
	DD	05H
xdata$x	ENDS
;	COMDAT voltbl
voltbl	SEGMENT
_volmd	DB	09H
voltbl	ENDS
;	COMDAT xdata$x
xdata$x	SEGMENT
__ehfuncinfo$??$_Deallocate@$07$0A@@std@@YAXPAXI@Z DD 019930522H
	DD	00H
	DD	00H
	DD	2 DUP(00H)
	DD	2 DUP(00H)
	DD	00H
	DD	05H
xdata$x	ENDS
;	COMDAT voltbl
voltbl	SEGMENT
_volmd	DW	024H
	DW	010cH
voltbl	ENDS
;	COMDAT voltbl
voltbl	SEGMENT
_volmd	DB	09H
voltbl	ENDS
;	COMDAT xdata$x
xdata$x	SEGMENT
__ehfuncinfo$??1sentry@?$basic_ostream@DU?$char_traits@D@std@@@std@@QAE@XZ DD 019930522H
	DD	00H
	DD	00H
	DD	2 DUP(00H)
	DD	2 DUP(00H)
	DD	00H
	DD	05H
xdata$x	ENDS
;	COMDAT voltbl
voltbl	SEGMENT
_volmd	DB	016H
voltbl	ENDS
;	COMDAT xdata$x
xdata$x	SEGMENT
__unwindtable$??0sentry@?$basic_ostream@DU?$char_traits@D@std@@@std@@QAE@AAV12@@Z DD 0ffffffffH
	DD	FLAT:__unwindfunclet$??0sentry@?$basic_ostream@DU?$char_traits@D@std@@@std@@QAE@AAV12@@Z$0
__ehfuncinfo$??0sentry@?$basic_ostream@DU?$char_traits@D@std@@@std@@QAE@AAV12@@Z DD 019930522H
	DD	01H
	DD	FLAT:__unwindtable$??0sentry@?$basic_ostream@DU?$char_traits@D@std@@@std@@QAE@AAV12@@Z
	DD	2 DUP(00H)
	DD	2 DUP(00H)
	DD	00H
	DD	01H
xdata$x	ENDS
;	COMDAT voltbl
voltbl	SEGMENT
_volmd	DB	09H
voltbl	ENDS
;	COMDAT xdata$x
xdata$x	SEGMENT
__ehfuncinfo$??1_Sentry_base@?$basic_ostream@DU?$char_traits@D@std@@@std@@QAE@XZ DD 019930522H
	DD	00H
	DD	00H
	DD	2 DUP(00H)
	DD	2 DUP(00H)
	DD	00H
	DD	05H
xdata$x	ENDS
;	COMDAT voltbl
voltbl	SEGMENT
_volmd	DB	016H
	DB	023H
voltbl	ENDS
;	COMDAT voltbl
voltbl	SEGMENT
_volmd	DW	031H
	DW	019aH
voltbl	ENDS
;	COMDAT xdata$x
xdata$x	SEGMENT
__catchsym$??$?5DU?$char_traits@D@std@@@std@@YAAAV?$basic_istream@DU?$char_traits@D@std@@@0@AAV10@AAD@Z$3 DD 040H
	DD	00H
	DD	00H
	DD	FLAT:__catch$??$?5DU?$char_traits@D@std@@@std@@YAAAV?$basic_istream@DU?$char_traits@D@std@@@0@AAV10@AAD@Z$0
__tryblocktable$??$?5DU?$char_traits@D@std@@@std@@YAAAV?$basic_istream@DU?$char_traits@D@std@@@0@AAV10@AAD@Z DD 01H
	DD	01H
	DD	02H
	DD	01H
	DD	FLAT:__catchsym$??$?5DU?$char_traits@D@std@@@std@@YAAAV?$basic_istream@DU?$char_traits@D@std@@@0@AAV10@AAD@Z$3
__unwindtable$??$?5DU?$char_traits@D@std@@@std@@YAAAV?$basic_istream@DU?$char_traits@D@std@@@0@AAV10@AAD@Z DD 0ffffffffH
	DD	FLAT:__unwindfunclet$??$?5DU?$char_traits@D@std@@@std@@YAAAV?$basic_istream@DU?$char_traits@D@std@@@0@AAV10@AAD@Z$2
	DD	00H
	DD	00H
	DD	00H
	DD	00H
__ehfuncinfo$??$?5DU?$char_traits@D@std@@@std@@YAAAV?$basic_istream@DU?$char_traits@D@std@@@0@AAV10@AAD@Z DD 019930522H
	DD	03H
	DD	FLAT:__unwindtable$??$?5DU?$char_traits@D@std@@@std@@YAAAV?$basic_istream@DU?$char_traits@D@std@@@0@AAV10@AAD@Z
	DD	01H
	DD	FLAT:__tryblocktable$??$?5DU?$char_traits@D@std@@@std@@YAAAV?$basic_istream@DU?$char_traits@D@std@@@0@AAV10@AAD@Z
	DD	2 DUP(00H)
	DD	00H
	DD	01H
xdata$x	ENDS
;	COMDAT voltbl
voltbl	SEGMENT
_volmd	DB	016H
	DB	023H
voltbl	ENDS
;	COMDAT voltbl
voltbl	SEGMENT
_volmd	DW	034H
	DW	0477H
voltbl	ENDS
;	COMDAT xdata$x
xdata$x	SEGMENT
__catchsym$??$?6U?$char_traits@D@std@@@std@@YAAAV?$basic_ostream@DU?$char_traits@D@std@@@0@AAV10@PBD@Z$3 DD 040H
	DD	00H
	DD	00H
	DD	FLAT:__catch$??$?6U?$char_traits@D@std@@@std@@YAAAV?$basic_ostream@DU?$char_traits@D@std@@@0@AAV10@PBD@Z$0
__tryblocktable$??$?6U?$char_traits@D@std@@@std@@YAAAV?$basic_ostream@DU?$char_traits@D@std@@@0@AAV10@PBD@Z DD 01H
	DD	01H
	DD	02H
	DD	01H
	DD	FLAT:__catchsym$??$?6U?$char_traits@D@std@@@std@@YAAAV?$basic_ostream@DU?$char_traits@D@std@@@0@AAV10@PBD@Z$3
__unwindtable$??$?6U?$char_traits@D@std@@@std@@YAAAV?$basic_ostream@DU?$char_traits@D@std@@@0@AAV10@PBD@Z DD 0ffffffffH
	DD	FLAT:__unwindfunclet$??$?6U?$char_traits@D@std@@@std@@YAAAV?$basic_ostream@DU?$char_traits@D@std@@@0@AAV10@PBD@Z$2
	DD	00H
	DD	00H
	DD	00H
	DD	00H
__ehfuncinfo$??$?6U?$char_traits@D@std@@@std@@YAAAV?$basic_ostream@DU?$char_traits@D@std@@@0@AAV10@PBD@Z DD 019930522H
	DD	03H
	DD	FLAT:__unwindtable$??$?6U?$char_traits@D@std@@@std@@YAAAV?$basic_ostream@DU?$char_traits@D@std@@@0@AAV10@PBD@Z
	DD	01H
	DD	FLAT:__tryblocktable$??$?6U?$char_traits@D@std@@@std@@YAAAV?$basic_ostream@DU?$char_traits@D@std@@@0@AAV10@PBD@Z
	DD	2 DUP(00H)
	DD	00H
	DD	01H
xdata$x	ENDS
;	COMDAT voltbl
voltbl	SEGMENT
_volmd	DW	022H
	DW	0306H
voltbl	ENDS
;	COMDAT voltbl
voltbl	SEGMENT
_volmd	DW	022H
	DW	0288H
voltbl	ENDS
;	COMDAT voltbl
voltbl	SEGMENT
_volmd	DB	02fH
	DB	03cH
voltbl	ENDS
;	COMDAT voltbl
voltbl	SEGMENT
_volmd	DW	033H
	DW	066bH
voltbl	ENDS
;	COMDAT xdata$x
xdata$x	SEGMENT
__unwindtable$?forInput@@YAXPAH00@Z DD 0ffffffffH
	DD	FLAT:__unwindfunclet$?forInput@@YAXPAH00@Z$0
	DD	0ffffffffH
	DD	FLAT:__unwindfunclet$?forInput@@YAXPAH00@Z$1
	DD	0ffffffffH
	DD	FLAT:__unwindfunclet$?forInput@@YAXPAH00@Z$2
__ehfuncinfo$?forInput@@YAXPAH00@Z DD 019930522H
	DD	03H
	DD	FLAT:__unwindtable$?forInput@@YAXPAH00@Z
	DD	2 DUP(00H)
	DD	2 DUP(00H)
	DD	00H
	DD	01H
xdata$x	ENDS
;	COMDAT voltbl
voltbl	SEGMENT
_volmd	DB	022H
	DB	0d4H
voltbl	ENDS
;	COMDAT voltbl
voltbl	SEGMENT
_volmd	DB	09H
voltbl	ENDS
;	COMDAT xdata$x
xdata$x	SEGMENT
__ehfuncinfo$?_Tidy_deallocate@?$basic_string@DU?$char_traits@D@std@@V?$allocator@D@2@@std@@AAEXXZ DD 019930522H
	DD	00H
	DD	00H
	DD	2 DUP(00H)
	DD	2 DUP(00H)
	DD	00H
	DD	05H
xdata$x	ENDS
;	COMDAT voltbl
voltbl	SEGMENT
_volmd	DB	022H
	DB	090H
voltbl	ENDS
;	COMDAT voltbl
voltbl	SEGMENT
_volmd	DB	024H
	DB	0adH
voltbl	ENDS
;	COMDAT voltbl
voltbl	SEGMENT
_volmd	DB	024H
	DB	090H
voltbl	ENDS
;	COMDAT voltbl
voltbl	SEGMENT
_volmd	DB	01eH
	DB	02bH
voltbl	ENDS
;	COMDAT voltbl
voltbl	SEGMENT
_volmd	DB	032H
	DB	0dfH
voltbl	ENDS
;	COMDAT xdata$x
xdata$x	SEGMENT
__unwindtable$??0?$basic_string@DU?$char_traits@D@std@@V?$allocator@D@2@@std@@QAE@QBD@Z DD 0ffffffffH
	DD	FLAT:__unwindfunclet$??0?$basic_string@DU?$char_traits@D@std@@V?$allocator@D@2@@std@@QAE@QBD@Z$0
	DD	00H
	DD	FLAT:__unwindfunclet$??0?$basic_string@DU?$char_traits@D@std@@V?$allocator@D@2@@std@@QAE@QBD@Z$1
__ehfuncinfo$??0?$basic_string@DU?$char_traits@D@std@@V?$allocator@D@2@@std@@QAE@QBD@Z DD 019930522H
	DD	02H
	DD	FLAT:__unwindtable$??0?$basic_string@DU?$char_traits@D@std@@V?$allocator@D@2@@std@@QAE@QBD@Z
	DD	2 DUP(00H)
	DD	2 DUP(00H)
	DD	00H
	DD	01H
xdata$x	ENDS
;	COMDAT voltbl
voltbl	SEGMENT
_volmd	DB	024H
	DB	076H
voltbl	ENDS
; Function compile flags: /Odt
;	COMDAT __JustMyCode_Default
_TEXT	SEGMENT
__JustMyCode_Default PROC				; COMDAT
  00000	55		 push	 ebp
  00001	8b ec		 mov	 ebp, esp
  00003	5d		 pop	 ebp
  00004	c3		 ret	 0
__JustMyCode_Default ENDP
_TEXT	ENDS
; Function compile flags: /Odtp /RTCsu /ZI
; File C:\Program Files (x86)\Microsoft Visual Studio\2019\Community\VC\Tools\MSVC\14.29.30133\include\xmemory
;	COMDAT ?deallocate@?$_Default_allocator_traits@V?$allocator@U_Container_proxy@std@@@std@@@std@@SAXAAV?$allocator@U_Container_proxy@std@@@2@QAU_Container_proxy@2@I@Z
_TEXT	SEGMENT
__Al$ = 8						; size = 4
__Ptr$ = 12						; size = 4
__Count$ = 16						; size = 4
?deallocate@?$_Default_allocator_traits@V?$allocator@U_Container_proxy@std@@@std@@@std@@SAXAAV?$allocator@U_Container_proxy@std@@@2@QAU_Container_proxy@2@I@Z PROC ; std::_Default_allocator_traits<std::allocator<std::_Container_proxy> >::deallocate, COMDAT

; 693  :     static _CONSTEXPR20_DYNALLOC void deallocate(_Alloc& _Al, const pointer _Ptr, const size_type _Count) {

  00000	55		 push	 ebp
  00001	8b ec		 mov	 ebp, esp
  00003	81 ec c0 00 00
	00		 sub	 esp, 192		; 000000c0H
  00009	53		 push	 ebx
  0000a	56		 push	 esi
  0000b	57		 push	 edi
  0000c	8b fd		 mov	 edi, ebp
  0000e	33 c9		 xor	 ecx, ecx
  00010	b8 cc cc cc cc	 mov	 eax, -858993460		; ccccccccH
  00015	f3 ab		 rep stosd
  00017	b9 00 00 00 00	 mov	 ecx, OFFSET __79D216CD_xmemory
  0001c	e8 00 00 00 00	 call	 @__CheckForDebuggerJustMyCode@4

; 694  :         // no overflow check on the following multiply; we assume _Allocate did that check
; 695  : #ifdef __cpp_lib_constexpr_dynamic_alloc // TRANSITION, GH-1532
; 696  :         if (_STD is_constant_evaluated()) {
; 697  :             _Al.deallocate(_Ptr, _Count);
; 698  :         } else
; 699  : #endif // __cpp_lib_constexpr_dynamic_alloc
; 700  :         {
; 701  :             (void) _Al;
; 702  :             _Deallocate<_New_alignof<value_type>>(_Ptr, sizeof(value_type) * _Count);

  00021	8b 45 10	 mov	 eax, DWORD PTR __Count$[ebp]
  00024	c1 e0 03	 shl	 eax, 3
  00027	50		 push	 eax
  00028	8b 4d 0c	 mov	 ecx, DWORD PTR __Ptr$[ebp]
  0002b	51		 push	 ecx
  0002c	e8 00 00 00 00	 call	 ??$_Deallocate@$07$0A@@std@@YAXPAXI@Z ; std::_Deallocate<8,0>
  00031	83 c4 08	 add	 esp, 8

; 703  :         }
; 704  :     }

  00034	5f		 pop	 edi
  00035	5e		 pop	 esi
  00036	5b		 pop	 ebx
  00037	81 c4 c0 00 00
	00		 add	 esp, 192		; 000000c0H
  0003d	3b ec		 cmp	 ebp, esp
  0003f	e8 00 00 00 00	 call	 __RTC_CheckEsp
  00044	8b e5		 mov	 esp, ebp
  00046	5d		 pop	 ebp
  00047	c3		 ret	 0
?deallocate@?$_Default_allocator_traits@V?$allocator@U_Container_proxy@std@@@std@@@std@@SAXAAV?$allocator@U_Container_proxy@std@@@2@QAU_Container_proxy@2@I@Z ENDP ; std::_Default_allocator_traits<std::allocator<std::_Container_proxy> >::deallocate
_TEXT	ENDS
; Function compile flags: /Odtp /RTCsu /ZI
; File C:\Program Files (x86)\Microsoft Visual Studio\2019\Community\VC\Tools\MSVC\14.29.30133\include\xmemory
;	COMDAT ??$_Allocate_manually_vector_aligned@U_Default_allocate_traits@std@@@std@@YAPAXI@Z
_TEXT	SEGMENT
__Ptr$ = -32						; size = 4
__Ptr_container$ = -20					; size = 4
__Block_size$ = -8					; size = 4
__Bytes$ = 8						; size = 4
??$_Allocate_manually_vector_aligned@U_Default_allocate_traits@std@@@std@@YAPAXI@Z PROC ; std::_Allocate_manually_vector_aligned<std::_Default_allocate_traits>, COMDAT

; 134  : __declspec(allocator) void* _Allocate_manually_vector_aligned(const size_t _Bytes) {

  00000	55		 push	 ebp
  00001	8b ec		 mov	 ebp, esp
  00003	81 ec e4 00 00
	00		 sub	 esp, 228		; 000000e4H
  00009	53		 push	 ebx
  0000a	56		 push	 esi
  0000b	57		 push	 edi
  0000c	8d 7d dc	 lea	 edi, DWORD PTR [ebp-36]
  0000f	b9 09 00 00 00	 mov	 ecx, 9
  00014	b8 cc cc cc cc	 mov	 eax, -858993460		; ccccccccH
  00019	f3 ab		 rep stosd
  0001b	b9 00 00 00 00	 mov	 ecx, OFFSET __79D216CD_xmemory
  00020	e8 00 00 00 00	 call	 @__CheckForDebuggerJustMyCode@4

; 135  :     // allocate _Bytes manually aligned to at least _Big_allocation_alignment
; 136  :     const size_t _Block_size = _Non_user_size + _Bytes;

  00025	8b 45 08	 mov	 eax, DWORD PTR __Bytes$[ebp]
  00028	83 c0 27	 add	 eax, 39			; 00000027H
  0002b	89 45 f8	 mov	 DWORD PTR __Block_size$[ebp], eax

; 137  :     if (_Block_size <= _Bytes) {

  0002e	8b 45 f8	 mov	 eax, DWORD PTR __Block_size$[ebp]
  00031	3b 45 08	 cmp	 eax, DWORD PTR __Bytes$[ebp]
  00034	77 05		 ja	 SHORT $LN8@Allocate_m

; 138  :         _Throw_bad_array_new_length(); // add overflow

  00036	e8 00 00 00 00	 call	 ?_Throw_bad_array_new_length@std@@YAXXZ ; std::_Throw_bad_array_new_length
$LN8@Allocate_m:

; 139  :     }
; 140  : 
; 141  :     const uintptr_t _Ptr_container = reinterpret_cast<uintptr_t>(_Traits::_Allocate(_Block_size));

  0003b	8b 45 f8	 mov	 eax, DWORD PTR __Block_size$[ebp]
  0003e	50		 push	 eax
  0003f	e8 00 00 00 00	 call	 ?_Allocate@_Default_allocate_traits@std@@SAPAXI@Z ; std::_Default_allocate_traits::_Allocate
  00044	83 c4 04	 add	 esp, 4
  00047	89 45 ec	 mov	 DWORD PTR __Ptr_container$[ebp], eax
$LN4@Allocate_m:

; 142  :     _STL_VERIFY(_Ptr_container != 0, "invalid argument"); // validate even in release since we're doing p[-1]

  0004a	83 7d ec 00	 cmp	 DWORD PTR __Ptr_container$[ebp], 0
  0004e	74 02		 je	 SHORT $LN7@Allocate_m
  00050	eb 5c		 jmp	 SHORT $LN2@Allocate_m
$LN7@Allocate_m:
  00052	8b f4		 mov	 esi, esp
  00054	68 00 00 00 00	 push	 OFFSET ??_C@_0BB@FCMFBGOM@invalid?5argument@
  00059	68 00 00 00 00	 push	 OFFSET ??_C@_02DKCKIIND@?$CFs@
  0005e	6a 00		 push	 0
  00060	68 8e 00 00 00	 push	 142			; 0000008eH
  00065	68 00 00 00 00	 push	 OFFSET ??_C@_0GI@MNEMJBML@C?3?2Program?5Files?5?$CIx86?$CJ?2Microsof@
  0006a	6a 02		 push	 2
  0006c	ff 15 00 00 00
	00		 call	 DWORD PTR __imp___CrtDbgReport
  00072	83 c4 18	 add	 esp, 24			; 00000018H
  00075	3b f4		 cmp	 esi, esp
  00077	e8 00 00 00 00	 call	 __RTC_CheckEsp
  0007c	83 f8 01	 cmp	 eax, 1
  0007f	75 01		 jne	 SHORT $LN12@Allocate_m
  00081	cc		 int	 3
$LN12@Allocate_m:
  00082	8b f4		 mov	 esi, esp
  00084	6a 00		 push	 0
  00086	68 8e 00 00 00	 push	 142			; 0000008eH
  0008b	68 00 00 00 00	 push	 OFFSET ??_C@_1NA@MJBOBEJL@?$AAC?$AA?3?$AA?2?$AAP?$AAr?$AAo?$AAg?$AAr?$AAa?$AAm?$AA?5?$AAF?$AAi?$AAl?$AAe@
  00090	68 00 00 00 00	 push	 OFFSET ??_C@_1EO@GFNCMDLA@?$AAs?$AAt?$AAd?$AA?3?$AA?3?$AA_?$AAA?$AAl?$AAl?$AAo?$AAc?$AAa?$AAt?$AAe?$AA_@
  00095	68 00 00 00 00	 push	 OFFSET ??_C@_1CG@JNLFBNGN@?$AA?$CC?$AAi?$AAn?$AAv?$AAa?$AAl?$AAi?$AAd?$AA?5?$AAa?$AAr?$AAg?$AAu?$AAm?$AAe@
  0009a	ff 15 00 00 00
	00		 call	 DWORD PTR __imp___invalid_parameter
  000a0	83 c4 14	 add	 esp, 20			; 00000014H
  000a3	3b f4		 cmp	 esi, esp
  000a5	e8 00 00 00 00	 call	 __RTC_CheckEsp
  000aa	33 c0		 xor	 eax, eax
  000ac	75 a4		 jne	 SHORT $LN7@Allocate_m
$LN2@Allocate_m:
  000ae	33 c0		 xor	 eax, eax
  000b0	75 98		 jne	 SHORT $LN4@Allocate_m

; 143  :     void* const _Ptr = reinterpret_cast<void*>((_Ptr_container + _Non_user_size) & ~(_Big_allocation_alignment - 1));

  000b2	8b 45 ec	 mov	 eax, DWORD PTR __Ptr_container$[ebp]
  000b5	83 c0 27	 add	 eax, 39			; 00000027H
  000b8	83 e0 e0	 and	 eax, -32		; ffffffe0H
  000bb	89 45 e0	 mov	 DWORD PTR __Ptr$[ebp], eax

; 144  :     static_cast<uintptr_t*>(_Ptr)[-1] = _Ptr_container;

  000be	b8 04 00 00 00	 mov	 eax, 4
  000c3	6b c8 ff	 imul	 ecx, eax, -1
  000c6	8b 55 e0	 mov	 edx, DWORD PTR __Ptr$[ebp]
  000c9	8b 45 ec	 mov	 eax, DWORD PTR __Ptr_container$[ebp]
  000cc	89 04 0a	 mov	 DWORD PTR [edx+ecx], eax

; 145  : 
; 146  : #ifdef _DEBUG
; 147  :     static_cast<uintptr_t*>(_Ptr)[-2] = _Big_allocation_sentinel;

  000cf	b8 04 00 00 00	 mov	 eax, 4
  000d4	6b c8 fe	 imul	 ecx, eax, -2
  000d7	8b 55 e0	 mov	 edx, DWORD PTR __Ptr$[ebp]
  000da	c7 04 0a fa fa
	fa fa		 mov	 DWORD PTR [edx+ecx], -84215046 ; fafafafaH

; 148  : #endif // _DEBUG
; 149  :     return _Ptr;

  000e1	8b 45 e0	 mov	 eax, DWORD PTR __Ptr$[ebp]
$LN11@Allocate_m:

; 150  : }

  000e4	5f		 pop	 edi
  000e5	5e		 pop	 esi
  000e6	5b		 pop	 ebx
  000e7	81 c4 e4 00 00
	00		 add	 esp, 228		; 000000e4H
  000ed	3b ec		 cmp	 ebp, esp
  000ef	e8 00 00 00 00	 call	 __RTC_CheckEsp
  000f4	8b e5		 mov	 esp, ebp
  000f6	5d		 pop	 ebp
  000f7	c3		 ret	 0
??$_Allocate_manually_vector_aligned@U_Default_allocate_traits@std@@@std@@YAPAXI@Z ENDP ; std::_Allocate_manually_vector_aligned<std::_Default_allocate_traits>
_TEXT	ENDS
; Function compile flags: /Odtp /RTCsu /ZI
; File C:\Program Files (x86)\Microsoft Visual Studio\2019\Community\VC\Tools\MSVC\14.29.30133\include\type_traits
;	COMDAT ??$forward@ABQAD@std@@YAABQADABQAD@Z
_TEXT	SEGMENT
__Arg$ = 8						; size = 4
??$forward@ABQAD@std@@YAABQADABQAD@Z PROC		; std::forward<char * const &>, COMDAT

; 1443 :     remove_reference_t<_Ty>& _Arg) noexcept { // forward an lvalue as either an lvalue or an rvalue

  00000	55		 push	 ebp
  00001	8b ec		 mov	 ebp, esp
  00003	81 ec c0 00 00
	00		 sub	 esp, 192		; 000000c0H
  00009	53		 push	 ebx
  0000a	56		 push	 esi
  0000b	57		 push	 edi
  0000c	8b fd		 mov	 edi, ebp
  0000e	33 c9		 xor	 ecx, ecx
  00010	b8 cc cc cc cc	 mov	 eax, -858993460		; ccccccccH
  00015	f3 ab		 rep stosd
  00017	b9 00 00 00 00	 mov	 ecx, OFFSET __589FA321_type_traits
  0001c	e8 00 00 00 00	 call	 @__CheckForDebuggerJustMyCode@4

; 1444 :     return static_cast<_Ty&&>(_Arg);

  00021	8b 45 08	 mov	 eax, DWORD PTR __Arg$[ebp]

; 1445 : }

  00024	5f		 pop	 edi
  00025	5e		 pop	 esi
  00026	5b		 pop	 ebx
  00027	81 c4 c0 00 00
	00		 add	 esp, 192		; 000000c0H
  0002d	3b ec		 cmp	 ebp, esp
  0002f	e8 00 00 00 00	 call	 __RTC_CheckEsp
  00034	8b e5		 mov	 esp, ebp
  00036	5d		 pop	 ebp
  00037	c3		 ret	 0
??$forward@ABQAD@std@@YAABQADABQAD@Z ENDP		; std::forward<char * const &>
_TEXT	ENDS
; Function compile flags: /Odtp /RTCsu /ZI
; File C:\Program Files (x86)\Microsoft Visual Studio\2019\Community\VC\Tools\MSVC\14.29.30133\include\xutility
;	COMDAT ??$_Voidify_iter@PAPAD@std@@YAPAXPAPAD@Z
_TEXT	SEGMENT
__It$ = 8						; size = 4
??$_Voidify_iter@PAPAD@std@@YAPAXPAPAD@Z PROC		; std::_Voidify_iter<char * *>, COMDAT

; 130  : _NODISCARD constexpr void* _Voidify_iter(_Iter _It) noexcept {

  00000	55		 push	 ebp
  00001	8b ec		 mov	 ebp, esp
  00003	81 ec c0 00 00
	00		 sub	 esp, 192		; 000000c0H
  00009	53		 push	 ebx
  0000a	56		 push	 esi
  0000b	57		 push	 edi
  0000c	8b fd		 mov	 edi, ebp
  0000e	33 c9		 xor	 ecx, ecx
  00010	b8 cc cc cc cc	 mov	 eax, -858993460		; ccccccccH
  00015	f3 ab		 rep stosd
  00017	b9 00 00 00 00	 mov	 ecx, OFFSET __12269DE6_xutility
  0001c	e8 00 00 00 00	 call	 @__CheckForDebuggerJustMyCode@4

; 131  :     if constexpr (is_pointer_v<_Iter>) {
; 132  :         return const_cast<void*>(static_cast<const volatile void*>(_It));

  00021	8b 45 08	 mov	 eax, DWORD PTR __It$[ebp]

; 133  :     } else {
; 134  :         return const_cast<void*>(static_cast<const volatile void*>(_STD addressof(*_It)));
; 135  :     }
; 136  : }

  00024	5f		 pop	 edi
  00025	5e		 pop	 esi
  00026	5b		 pop	 ebx
  00027	81 c4 c0 00 00
	00		 add	 esp, 192		; 000000c0H
  0002d	3b ec		 cmp	 ebp, esp
  0002f	e8 00 00 00 00	 call	 __RTC_CheckEsp
  00034	8b e5		 mov	 esp, ebp
  00036	5d		 pop	 ebp
  00037	c3		 ret	 0
??$_Voidify_iter@PAPAD@std@@YAPAXPAPAD@Z ENDP		; std::_Voidify_iter<char * *>
_TEXT	ENDS
; Function compile flags: /Odtp /RTCsu /ZI
; File C:\Program Files (x86)\Microsoft Visual Studio\2019\Community\VC\Tools\MSVC\14.29.30133\include\xstddef
;	COMDAT ??$addressof@PAD@std@@YAPAPADAAPAD@Z
_TEXT	SEGMENT
__Val$ = 8						; size = 4
??$addressof@PAD@std@@YAPAPADAAPAD@Z PROC		; std::addressof<char *>, COMDAT

; 274  : _NODISCARD constexpr _Ty* addressof(_Ty& _Val) noexcept {

  00000	55		 push	 ebp
  00001	8b ec		 mov	 ebp, esp
  00003	81 ec c0 00 00
	00		 sub	 esp, 192		; 000000c0H
  00009	53		 push	 ebx
  0000a	56		 push	 esi
  0000b	57		 push	 edi
  0000c	8b fd		 mov	 edi, ebp
  0000e	33 c9		 xor	 ecx, ecx
  00010	b8 cc cc cc cc	 mov	 eax, -858993460		; ccccccccH
  00015	f3 ab		 rep stosd
  00017	b9 00 00 00 00	 mov	 ecx, OFFSET __E458E21C_xstddef
  0001c	e8 00 00 00 00	 call	 @__CheckForDebuggerJustMyCode@4

; 275  :     return __builtin_addressof(_Val);

  00021	8b 45 08	 mov	 eax, DWORD PTR __Val$[ebp]

; 276  : }

  00024	5f		 pop	 edi
  00025	5e		 pop	 esi
  00026	5b		 pop	 ebx
  00027	81 c4 c0 00 00
	00		 add	 esp, 192		; 000000c0H
  0002d	3b ec		 cmp	 ebp, esp
  0002f	e8 00 00 00 00	 call	 __RTC_CheckEsp
  00034	8b e5		 mov	 esp, ebp
  00036	5d		 pop	 ebp
  00037	c3		 ret	 0
??$addressof@PAD@std@@YAPAPADAAPAD@Z ENDP		; std::addressof<char *>
_TEXT	ENDS
; Function compile flags: /Odtp /RTCsu /ZI
; File C:\Program Files (x86)\Microsoft Visual Studio\2019\Community\VC\Tools\MSVC\14.29.30133\include\xmemory
;	COMDAT ??$_Deallocate_plain@V?$allocator@U_Container_proxy@std@@@std@@@std@@YAXAAV?$allocator@U_Container_proxy@std@@@0@QAU_Container_proxy@0@@Z
_TEXT	SEGMENT
__$EHRec$ = -12						; size = 12
__Al$ = 8						; size = 4
__Ptr$ = 12						; size = 4
??$_Deallocate_plain@V?$allocator@U_Container_proxy@std@@@std@@@std@@YAXAAV?$allocator@U_Container_proxy@std@@@0@QAU_Container_proxy@0@@Z PROC ; std::_Deallocate_plain<std::allocator<std::_Container_proxy> >, COMDAT

; 985  : _CONSTEXPR20_DYNALLOC void _Deallocate_plain(_Alloc& _Al, typename _Alloc::value_type* const _Ptr) noexcept {

  00000	55		 push	 ebp
  00001	8b ec		 mov	 ebp, esp
  00003	6a ff		 push	 -1
  00005	68 00 00 00 00	 push	 __ehhandler$??$_Deallocate_plain@V?$allocator@U_Container_proxy@std@@@std@@@std@@YAXAAV?$allocator@U_Container_proxy@std@@@0@QAU_Container_proxy@0@@Z
  0000a	64 a1 00 00 00
	00		 mov	 eax, DWORD PTR fs:0
  00010	50		 push	 eax
  00011	81 ec c0 00 00
	00		 sub	 esp, 192		; 000000c0H
  00017	53		 push	 ebx
  00018	56		 push	 esi
  00019	57		 push	 edi
  0001a	8d 7d f4	 lea	 edi, DWORD PTR [ebp-12]
  0001d	33 c9		 xor	 ecx, ecx
  0001f	b8 cc cc cc cc	 mov	 eax, -858993460		; ccccccccH
  00024	f3 ab		 rep stosd
  00026	a1 00 00 00 00	 mov	 eax, DWORD PTR ___security_cookie
  0002b	33 c5		 xor	 eax, ebp
  0002d	50		 push	 eax
  0002e	8d 45 f4	 lea	 eax, DWORD PTR __$EHRec$[ebp]
  00031	64 a3 00 00 00
	00		 mov	 DWORD PTR fs:0, eax
  00037	b9 00 00 00 00	 mov	 ecx, OFFSET __79D216CD_xmemory
  0003c	e8 00 00 00 00	 call	 @__CheckForDebuggerJustMyCode@4

; 986  :     // deallocate a plain pointer using an allocator
; 987  :     using _Alloc_traits = allocator_traits<_Alloc>;
; 988  :     if constexpr (is_same_v<_Alloc_ptr_t<_Alloc>, typename _Alloc::value_type*>) {
; 989  :         _Alloc_traits::deallocate(_Al, _Ptr, 1);

  00041	6a 01		 push	 1
  00043	8b 45 0c	 mov	 eax, DWORD PTR __Ptr$[ebp]
  00046	50		 push	 eax
  00047	8b 4d 08	 mov	 ecx, DWORD PTR __Al$[ebp]
  0004a	51		 push	 ecx
  0004b	e8 00 00 00 00	 call	 ?deallocate@?$_Default_allocator_traits@V?$allocator@U_Container_proxy@std@@@std@@@std@@SAXAAV?$allocator@U_Container_proxy@std@@@2@QAU_Container_proxy@2@I@Z ; std::_Default_allocator_traits<std::allocator<std::_Container_proxy> >::deallocate
  00050	83 c4 0c	 add	 esp, 12			; 0000000cH

; 990  :     } else {
; 991  :         using _Ptr_traits = pointer_traits<_Alloc_ptr_t<_Alloc>>;
; 992  :         _Alloc_traits::deallocate(_Al, _Ptr_traits::pointer_to(*_Ptr), 1);
; 993  :     }
; 994  : }

  00053	8b 4d f4	 mov	 ecx, DWORD PTR __$EHRec$[ebp]
  00056	64 89 0d 00 00
	00 00		 mov	 DWORD PTR fs:0, ecx
  0005d	59		 pop	 ecx
  0005e	5f		 pop	 edi
  0005f	5e		 pop	 esi
  00060	5b		 pop	 ebx
  00061	81 c4 cc 00 00
	00		 add	 esp, 204		; 000000ccH
  00067	3b ec		 cmp	 ebp, esp
  00069	e8 00 00 00 00	 call	 __RTC_CheckEsp
  0006e	8b e5		 mov	 esp, ebp
  00070	5d		 pop	 ebp
  00071	c3		 ret	 0
  00072	cc		 int	 3
  00073	cc		 int	 3
  00074	cc		 int	 3
  00075	cc		 int	 3
  00076	cc		 int	 3
_TEXT	ENDS
;	COMDAT text$x
text$x	SEGMENT
__ehhandler$??$_Deallocate_plain@V?$allocator@U_Container_proxy@std@@@std@@@std@@YAXAAV?$allocator@U_Container_proxy@std@@@0@QAU_Container_proxy@0@@Z:
  00000	90		 npad	 1
  00001	90		 npad	 1
  00002	8b 54 24 08	 mov	 edx, DWORD PTR [esp+8]
  00006	8d 42 0c	 lea	 eax, DWORD PTR [edx+12]
  00009	8b 8a 30 ff ff
	ff		 mov	 ecx, DWORD PTR [edx-208]
  0000f	33 c8		 xor	 ecx, eax
  00011	e8 00 00 00 00	 call	 @__security_check_cookie@4
  00016	b8 00 00 00 00	 mov	 eax, OFFSET __ehfuncinfo$??$_Deallocate_plain@V?$allocator@U_Container_proxy@std@@@std@@@std@@YAXAAV?$allocator@U_Container_proxy@std@@@0@QAU_Container_proxy@0@@Z
  0001b	e9 00 00 00 00	 jmp	 ___CxxFrameHandler3
text$x	ENDS
??$_Deallocate_plain@V?$allocator@U_Container_proxy@std@@@std@@@std@@YAXAAV?$allocator@U_Container_proxy@std@@@0@QAU_Container_proxy@0@@Z ENDP ; std::_Deallocate_plain<std::allocator<std::_Container_proxy> >
; Function compile flags: /Odtp /RTCsu /ZI
;	COMDAT ??1sentry@?$basic_istream@DU?$char_traits@D@std@@@std@@QAE@XZ
_TEXT	SEGMENT
_this$ = -8						; size = 4
??1sentry@?$basic_istream@DU?$char_traits@D@std@@@std@@QAE@XZ PROC ; std::basic_istream<char,std::char_traits<char> >::sentry::~sentry, COMDAT
; _this$ = ecx
  00000	55		 push	 ebp
  00001	8b ec		 mov	 ebp, esp
  00003	81 ec cc 00 00
	00		 sub	 esp, 204		; 000000ccH
  00009	53		 push	 ebx
  0000a	56		 push	 esi
  0000b	57		 push	 edi
  0000c	51		 push	 ecx
  0000d	8d 7d f4	 lea	 edi, DWORD PTR [ebp-12]
  00010	b9 03 00 00 00	 mov	 ecx, 3
  00015	b8 cc cc cc cc	 mov	 eax, -858993460		; ccccccccH
  0001a	f3 ab		 rep stosd
  0001c	59		 pop	 ecx
  0001d	89 4d f8	 mov	 DWORD PTR _this$[ebp], ecx
  00020	8b 4d f8	 mov	 ecx, DWORD PTR _this$[ebp]
  00023	e8 00 00 00 00	 call	 ??1_Sentry_base@?$basic_istream@DU?$char_traits@D@std@@@std@@QAE@XZ ; std::basic_istream<char,std::char_traits<char> >::_Sentry_base::~_Sentry_base
  00028	5f		 pop	 edi
  00029	5e		 pop	 esi
  0002a	5b		 pop	 ebx
  0002b	81 c4 cc 00 00
	00		 add	 esp, 204		; 000000ccH
  00031	3b ec		 cmp	 ebp, esp
  00033	e8 00 00 00 00	 call	 __RTC_CheckEsp
  00038	8b e5		 mov	 esp, ebp
  0003a	5d		 pop	 ebp
  0003b	c3		 ret	 0
??1sentry@?$basic_istream@DU?$char_traits@D@std@@@std@@QAE@XZ ENDP ; std::basic_istream<char,std::char_traits<char> >::sentry::~sentry
_TEXT	ENDS
; Function compile flags: /Odtp /RTCsu /ZI
; File C:\Program Files (x86)\Microsoft Visual Studio\2019\Community\VC\Tools\MSVC\14.29.30133\include\istream
;	COMDAT ??Bsentry@?$basic_istream@DU?$char_traits@D@std@@@std@@QBE_NXZ
_TEXT	SEGMENT
_this$ = -8						; size = 4
??Bsentry@?$basic_istream@DU?$char_traits@D@std@@@std@@QBE_NXZ PROC ; std::basic_istream<char,std::char_traits<char> >::sentry::operator bool, COMDAT
; _this$ = ecx

; 105  :         explicit __CLR_OR_THIS_CALL operator bool() const {

  00000	55		 push	 ebp
  00001	8b ec		 mov	 ebp, esp
  00003	81 ec cc 00 00
	00		 sub	 esp, 204		; 000000ccH
  00009	53		 push	 ebx
  0000a	56		 push	 esi
  0000b	57		 push	 edi
  0000c	51		 push	 ecx
  0000d	8d 7d f4	 lea	 edi, DWORD PTR [ebp-12]
  00010	b9 03 00 00 00	 mov	 ecx, 3
  00015	b8 cc cc cc cc	 mov	 eax, -858993460		; ccccccccH
  0001a	f3 ab		 rep stosd
  0001c	59		 pop	 ecx
  0001d	89 4d f8	 mov	 DWORD PTR _this$[ebp], ecx
  00020	b9 00 00 00 00	 mov	 ecx, OFFSET __A2FF0B9E_istream
  00025	e8 00 00 00 00	 call	 @__CheckForDebuggerJustMyCode@4

; 106  :             return _Ok;

  0002a	8b 45 f8	 mov	 eax, DWORD PTR _this$[ebp]
  0002d	8a 40 04	 mov	 al, BYTE PTR [eax+4]

; 107  :         }

  00030	5f		 pop	 edi
  00031	5e		 pop	 esi
  00032	5b		 pop	 ebx
  00033	81 c4 cc 00 00
	00		 add	 esp, 204		; 000000ccH
  00039	3b ec		 cmp	 ebp, esp
  0003b	e8 00 00 00 00	 call	 __RTC_CheckEsp
  00040	8b e5		 mov	 esp, ebp
  00042	5d		 pop	 ebp
  00043	c3		 ret	 0
??Bsentry@?$basic_istream@DU?$char_traits@D@std@@@std@@QBE_NXZ ENDP ; std::basic_istream<char,std::char_traits<char> >::sentry::operator bool
_TEXT	ENDS
; Function compile flags: /Odtp /RTCsu /ZI
; File C:\Program Files (x86)\Microsoft Visual Studio\2019\Community\VC\Tools\MSVC\14.29.30133\include\istream
;	COMDAT ??0sentry@?$basic_istream@DU?$char_traits@D@std@@@std@@QAE@AAV12@_N@Z
_TEXT	SEGMENT
_this$ = -20						; size = 4
__$EHRec$ = -12						; size = 12
__Istr$ = 8						; size = 4
__Noskip$ = 12						; size = 1
??0sentry@?$basic_istream@DU?$char_traits@D@std@@@std@@QAE@AAV12@_N@Z PROC ; std::basic_istream<char,std::char_traits<char> >::sentry::sentry, COMDAT
; _this$ = ecx

; 103  :             : _Sentry_base(_Istr), _Ok(_Sentry_base::_Myistr._Ipfx(_Noskip)) {}

  00000	55		 push	 ebp
  00001	8b ec		 mov	 ebp, esp
  00003	6a ff		 push	 -1
  00005	68 00 00 00 00	 push	 __ehhandler$??0sentry@?$basic_istream@DU?$char_traits@D@std@@@std@@QAE@AAV12@_N@Z
  0000a	64 a1 00 00 00
	00		 mov	 eax, DWORD PTR fs:0
  00010	50		 push	 eax
  00011	81 ec cc 00 00
	00		 sub	 esp, 204		; 000000ccH
  00017	53		 push	 ebx
  00018	56		 push	 esi
  00019	57		 push	 edi
  0001a	51		 push	 ecx
  0001b	8d 7d e8	 lea	 edi, DWORD PTR [ebp-24]
  0001e	b9 03 00 00 00	 mov	 ecx, 3
  00023	b8 cc cc cc cc	 mov	 eax, -858993460		; ccccccccH
  00028	f3 ab		 rep stosd
  0002a	59		 pop	 ecx
  0002b	a1 00 00 00 00	 mov	 eax, DWORD PTR ___security_cookie
  00030	33 c5		 xor	 eax, ebp
  00032	50		 push	 eax
  00033	8d 45 f4	 lea	 eax, DWORD PTR __$EHRec$[ebp]
  00036	64 a3 00 00 00
	00		 mov	 DWORD PTR fs:0, eax
  0003c	89 4d ec	 mov	 DWORD PTR _this$[ebp], ecx
  0003f	b9 00 00 00 00	 mov	 ecx, OFFSET __A2FF0B9E_istream
  00044	e8 00 00 00 00	 call	 @__CheckForDebuggerJustMyCode@4
  00049	8b 45 08	 mov	 eax, DWORD PTR __Istr$[ebp]
  0004c	50		 push	 eax
  0004d	8b 4d ec	 mov	 ecx, DWORD PTR _this$[ebp]
  00050	e8 00 00 00 00	 call	 ??0_Sentry_base@?$basic_istream@DU?$char_traits@D@std@@@std@@QAE@AAV12@@Z ; std::basic_istream<char,std::char_traits<char> >::_Sentry_base::_Sentry_base
  00055	c7 45 fc 00 00
	00 00		 mov	 DWORD PTR __$EHRec$[ebp+8], 0
  0005c	8b f4		 mov	 esi, esp
  0005e	0f b6 45 0c	 movzx	 eax, BYTE PTR __Noskip$[ebp]
  00062	50		 push	 eax
  00063	8b 4d ec	 mov	 ecx, DWORD PTR _this$[ebp]
  00066	8b 09		 mov	 ecx, DWORD PTR [ecx]
  00068	ff 15 00 00 00
	00		 call	 DWORD PTR __imp_?_Ipfx@?$basic_istream@DU?$char_traits@D@std@@@std@@QAE_N_N@Z
  0006e	3b f4		 cmp	 esi, esp
  00070	e8 00 00 00 00	 call	 __RTC_CheckEsp
  00075	8b 55 ec	 mov	 edx, DWORD PTR _this$[ebp]
  00078	88 42 04	 mov	 BYTE PTR [edx+4], al
  0007b	c7 45 fc ff ff
	ff ff		 mov	 DWORD PTR __$EHRec$[ebp+8], -1
  00082	8b 45 ec	 mov	 eax, DWORD PTR _this$[ebp]
  00085	8b 4d f4	 mov	 ecx, DWORD PTR __$EHRec$[ebp]
  00088	64 89 0d 00 00
	00 00		 mov	 DWORD PTR fs:0, ecx
  0008f	59		 pop	 ecx
  00090	5f		 pop	 edi
  00091	5e		 pop	 esi
  00092	5b		 pop	 ebx
  00093	81 c4 d8 00 00
	00		 add	 esp, 216		; 000000d8H
  00099	3b ec		 cmp	 ebp, esp
  0009b	e8 00 00 00 00	 call	 __RTC_CheckEsp
  000a0	8b e5		 mov	 esp, ebp
  000a2	5d		 pop	 ebp
  000a3	c2 08 00	 ret	 8
_TEXT	ENDS
;	COMDAT text$x
text$x	SEGMENT
__unwindfunclet$??0sentry@?$basic_istream@DU?$char_traits@D@std@@@std@@QAE@AAV12@_N@Z$0:
  00000	8b 4d ec	 mov	 ecx, DWORD PTR _this$[ebp]
  00003	e9 00 00 00 00	 jmp	 ??1_Sentry_base@?$basic_istream@DU?$char_traits@D@std@@@std@@QAE@XZ ; std::basic_istream<char,std::char_traits<char> >::_Sentry_base::~_Sentry_base
  00008	cc		 int	 3
  00009	cc		 int	 3
  0000a	cc		 int	 3
  0000b	cc		 int	 3
  0000c	cc		 int	 3
__ehhandler$??0sentry@?$basic_istream@DU?$char_traits@D@std@@@std@@QAE@AAV12@_N@Z:
  0000d	90		 npad	 1
  0000e	90		 npad	 1
  0000f	8b 54 24 08	 mov	 edx, DWORD PTR [esp+8]
  00013	8d 42 0c	 lea	 eax, DWORD PTR [edx+12]
  00016	8b 8a 24 ff ff
	ff		 mov	 ecx, DWORD PTR [edx-220]
  0001c	33 c8		 xor	 ecx, eax
  0001e	e8 00 00 00 00	 call	 @__security_check_cookie@4
  00023	b8 00 00 00 00	 mov	 eax, OFFSET __ehfuncinfo$??0sentry@?$basic_istream@DU?$char_traits@D@std@@@std@@QAE@AAV12@_N@Z
  00028	e9 00 00 00 00	 jmp	 ___CxxFrameHandler3
text$x	ENDS
??0sentry@?$basic_istream@DU?$char_traits@D@std@@@std@@QAE@AAV12@_N@Z ENDP ; std::basic_istream<char,std::char_traits<char> >::sentry::sentry
; Function compile flags: /Odtp /RTCsu /ZI
; File C:\Program Files (x86)\Microsoft Visual Studio\2019\Community\VC\Tools\MSVC\14.29.30133\include\istream
;	COMDAT ??1_Sentry_base@?$basic_istream@DU?$char_traits@D@std@@@std@@QAE@XZ
_TEXT	SEGMENT
tv72 = -232						; size = 4
__Rdbuf$ = -32						; size = 4
_this$ = -20						; size = 4
__$EHRec$ = -12						; size = 12
??1_Sentry_base@?$basic_istream@DU?$char_traits@D@std@@@std@@QAE@XZ PROC ; std::basic_istream<char,std::char_traits<char> >::_Sentry_base::~_Sentry_base, COMDAT
; _this$ = ecx

; 88   :         __CLR_OR_THIS_CALL ~_Sentry_base() noexcept {

  00000	55		 push	 ebp
  00001	8b ec		 mov	 ebp, esp
  00003	6a ff		 push	 -1
  00005	68 00 00 00 00	 push	 __ehhandler$??1_Sentry_base@?$basic_istream@DU?$char_traits@D@std@@@std@@QAE@XZ
  0000a	64 a1 00 00 00
	00		 mov	 eax, DWORD PTR fs:0
  00010	50		 push	 eax
  00011	81 ec dc 00 00
	00		 sub	 esp, 220		; 000000dcH
  00017	53		 push	 ebx
  00018	56		 push	 esi
  00019	57		 push	 edi
  0001a	51		 push	 ecx
  0001b	8d 7d d8	 lea	 edi, DWORD PTR [ebp-40]
  0001e	b9 07 00 00 00	 mov	 ecx, 7
  00023	b8 cc cc cc cc	 mov	 eax, -858993460		; ccccccccH
  00028	f3 ab		 rep stosd
  0002a	59		 pop	 ecx
  0002b	a1 00 00 00 00	 mov	 eax, DWORD PTR ___security_cookie
  00030	33 c5		 xor	 eax, ebp
  00032	50		 push	 eax
  00033	8d 45 f4	 lea	 eax, DWORD PTR __$EHRec$[ebp]
  00036	64 a3 00 00 00
	00		 mov	 DWORD PTR fs:0, eax
  0003c	89 4d ec	 mov	 DWORD PTR _this$[ebp], ecx
  0003f	b9 00 00 00 00	 mov	 ecx, OFFSET __A2FF0B9E_istream
  00044	e8 00 00 00 00	 call	 @__CheckForDebuggerJustMyCode@4

; 89   :             const auto _Rdbuf = _Myistr.rdbuf();

  00049	8b 45 ec	 mov	 eax, DWORD PTR _this$[ebp]
  0004c	8b 08		 mov	 ecx, DWORD PTR [eax]
  0004e	89 8d 18 ff ff
	ff		 mov	 DWORD PTR tv72[ebp], ecx
  00054	8b 95 18 ff ff
	ff		 mov	 edx, DWORD PTR tv72[ebp]
  0005a	8b 02		 mov	 eax, DWORD PTR [edx]
  0005c	8b 8d 18 ff ff
	ff		 mov	 ecx, DWORD PTR tv72[ebp]
  00062	03 48 04	 add	 ecx, DWORD PTR [eax+4]
  00065	8b f4		 mov	 esi, esp
  00067	ff 15 00 00 00
	00		 call	 DWORD PTR __imp_?rdbuf@?$basic_ios@DU?$char_traits@D@std@@@std@@QBEPAV?$basic_streambuf@DU?$char_traits@D@std@@@2@XZ
  0006d	3b f4		 cmp	 esi, esp
  0006f	e8 00 00 00 00	 call	 __RTC_CheckEsp
  00074	89 45 e0	 mov	 DWORD PTR __Rdbuf$[ebp], eax

; 90   :             if (_Rdbuf) {

  00077	83 7d e0 00	 cmp	 DWORD PTR __Rdbuf$[ebp], 0
  0007b	74 16		 je	 SHORT $LN3@Sentry_bas

; 91   :                 _Rdbuf->_Unlock();

  0007d	8b 45 e0	 mov	 eax, DWORD PTR __Rdbuf$[ebp]
  00080	8b 10		 mov	 edx, DWORD PTR [eax]
  00082	8b f4		 mov	 esi, esp
  00084	8b 4d e0	 mov	 ecx, DWORD PTR __Rdbuf$[ebp]
  00087	8b 42 08	 mov	 eax, DWORD PTR [edx+8]
  0008a	ff d0		 call	 eax
  0008c	3b f4		 cmp	 esi, esp
  0008e	e8 00 00 00 00	 call	 __RTC_CheckEsp
$LN3@Sentry_bas:

; 92   :             }
; 93   :         }

  00093	8b 4d f4	 mov	 ecx, DWORD PTR __$EHRec$[ebp]
  00096	64 89 0d 00 00
	00 00		 mov	 DWORD PTR fs:0, ecx
  0009d	59		 pop	 ecx
  0009e	5f		 pop	 edi
  0009f	5e		 pop	 esi
  000a0	5b		 pop	 ebx
  000a1	81 c4 e8 00 00
	00		 add	 esp, 232		; 000000e8H
  000a7	3b ec		 cmp	 ebp, esp
  000a9	e8 00 00 00 00	 call	 __RTC_CheckEsp
  000ae	8b e5		 mov	 esp, ebp
  000b0	5d		 pop	 ebp
  000b1	c3		 ret	 0
  000b2	cc		 int	 3
  000b3	cc		 int	 3
  000b4	cc		 int	 3
  000b5	cc		 int	 3
  000b6	cc		 int	 3
_TEXT	ENDS
;	COMDAT text$x
text$x	SEGMENT
__ehhandler$??1_Sentry_base@?$basic_istream@DU?$char_traits@D@std@@@std@@QAE@XZ:
  00000	90		 npad	 1
  00001	90		 npad	 1
  00002	8b 54 24 08	 mov	 edx, DWORD PTR [esp+8]
  00006	8d 42 0c	 lea	 eax, DWORD PTR [edx+12]
  00009	8b 8a 14 ff ff
	ff		 mov	 ecx, DWORD PTR [edx-236]
  0000f	33 c8		 xor	 ecx, eax
  00011	e8 00 00 00 00	 call	 @__security_check_cookie@4
  00016	b8 00 00 00 00	 mov	 eax, OFFSET __ehfuncinfo$??1_Sentry_base@?$basic_istream@DU?$char_traits@D@std@@@std@@QAE@XZ
  0001b	e9 00 00 00 00	 jmp	 ___CxxFrameHandler3
text$x	ENDS
??1_Sentry_base@?$basic_istream@DU?$char_traits@D@std@@@std@@QAE@XZ ENDP ; std::basic_istream<char,std::char_traits<char> >::_Sentry_base::~_Sentry_base
; Function compile flags: /Odtp /RTCsu /ZI
; File C:\Program Files (x86)\Microsoft Visual Studio\2019\Community\VC\Tools\MSVC\14.29.30133\include\istream
;	COMDAT ??0_Sentry_base@?$basic_istream@DU?$char_traits@D@std@@@std@@QAE@AAV12@@Z
_TEXT	SEGMENT
tv73 = -220						; size = 4
__Rdbuf$ = -20						; size = 4
_this$ = -8						; size = 4
__Istr$ = 8						; size = 4
??0_Sentry_base@?$basic_istream@DU?$char_traits@D@std@@@std@@QAE@AAV12@@Z PROC ; std::basic_istream<char,std::char_traits<char> >::_Sentry_base::_Sentry_base, COMDAT
; _this$ = ecx

; 81   :         __CLR_OR_THIS_CALL _Sentry_base(basic_istream& _Istr) : _Myistr(_Istr) {

  00000	55		 push	 ebp
  00001	8b ec		 mov	 ebp, esp
  00003	81 ec dc 00 00
	00		 sub	 esp, 220		; 000000dcH
  00009	53		 push	 ebx
  0000a	56		 push	 esi
  0000b	57		 push	 edi
  0000c	51		 push	 ecx
  0000d	8d 7d e4	 lea	 edi, DWORD PTR [ebp-28]
  00010	b9 07 00 00 00	 mov	 ecx, 7
  00015	b8 cc cc cc cc	 mov	 eax, -858993460		; ccccccccH
  0001a	f3 ab		 rep stosd
  0001c	59		 pop	 ecx
  0001d	89 4d f8	 mov	 DWORD PTR _this$[ebp], ecx
  00020	b9 00 00 00 00	 mov	 ecx, OFFSET __A2FF0B9E_istream
  00025	e8 00 00 00 00	 call	 @__CheckForDebuggerJustMyCode@4
  0002a	8b 45 f8	 mov	 eax, DWORD PTR _this$[ebp]
  0002d	8b 4d 08	 mov	 ecx, DWORD PTR __Istr$[ebp]
  00030	89 08		 mov	 DWORD PTR [eax], ecx

; 82   :             const auto _Rdbuf = _Myistr.rdbuf();

  00032	8b 45 f8	 mov	 eax, DWORD PTR _this$[ebp]
  00035	8b 08		 mov	 ecx, DWORD PTR [eax]
  00037	89 8d 24 ff ff
	ff		 mov	 DWORD PTR tv73[ebp], ecx
  0003d	8b 95 24 ff ff
	ff		 mov	 edx, DWORD PTR tv73[ebp]
  00043	8b 02		 mov	 eax, DWORD PTR [edx]
  00045	8b 8d 24 ff ff
	ff		 mov	 ecx, DWORD PTR tv73[ebp]
  0004b	03 48 04	 add	 ecx, DWORD PTR [eax+4]
  0004e	8b f4		 mov	 esi, esp
  00050	ff 15 00 00 00
	00		 call	 DWORD PTR __imp_?rdbuf@?$basic_ios@DU?$char_traits@D@std@@@std@@QBEPAV?$basic_streambuf@DU?$char_traits@D@std@@@2@XZ
  00056	3b f4		 cmp	 esi, esp
  00058	e8 00 00 00 00	 call	 __RTC_CheckEsp
  0005d	89 45 ec	 mov	 DWORD PTR __Rdbuf$[ebp], eax

; 83   :             if (_Rdbuf) {

  00060	83 7d ec 00	 cmp	 DWORD PTR __Rdbuf$[ebp], 0
  00064	74 16		 je	 SHORT $LN1@Sentry_bas

; 84   :                 _Rdbuf->_Lock();

  00066	8b 45 ec	 mov	 eax, DWORD PTR __Rdbuf$[ebp]
  00069	8b 10		 mov	 edx, DWORD PTR [eax]
  0006b	8b f4		 mov	 esi, esp
  0006d	8b 4d ec	 mov	 ecx, DWORD PTR __Rdbuf$[ebp]
  00070	8b 42 04	 mov	 eax, DWORD PTR [edx+4]
  00073	ff d0		 call	 eax
  00075	3b f4		 cmp	 esi, esp
  00077	e8 00 00 00 00	 call	 __RTC_CheckEsp
$LN1@Sentry_bas:

; 85   :             }
; 86   :         }

  0007c	8b 45 f8	 mov	 eax, DWORD PTR _this$[ebp]
  0007f	5f		 pop	 edi
  00080	5e		 pop	 esi
  00081	5b		 pop	 ebx
  00082	81 c4 dc 00 00
	00		 add	 esp, 220		; 000000dcH
  00088	3b ec		 cmp	 ebp, esp
  0008a	e8 00 00 00 00	 call	 __RTC_CheckEsp
  0008f	8b e5		 mov	 esp, ebp
  00091	5d		 pop	 ebp
  00092	c2 04 00	 ret	 4
??0_Sentry_base@?$basic_istream@DU?$char_traits@D@std@@@std@@QAE@AAV12@@Z ENDP ; std::basic_istream<char,std::char_traits<char> >::_Sentry_base::_Sentry_base
_TEXT	ENDS
; Function compile flags: /Odtp /RTCsu /ZI
; File C:\Program Files (x86)\Microsoft Visual Studio\2019\Community\VC\Tools\MSVC\14.29.30133\include\type_traits
;	COMDAT ??$forward@PAU_Container_base12@std@@@std@@YA$$QAPAU_Container_base12@0@AAPAU10@@Z
_TEXT	SEGMENT
__Arg$ = 8						; size = 4
??$forward@PAU_Container_base12@std@@@std@@YA$$QAPAU_Container_base12@0@AAPAU10@@Z PROC ; std::forward<std::_Container_base12 *>, COMDAT

; 1443 :     remove_reference_t<_Ty>& _Arg) noexcept { // forward an lvalue as either an lvalue or an rvalue

  00000	55		 push	 ebp
  00001	8b ec		 mov	 ebp, esp
  00003	81 ec c0 00 00
	00		 sub	 esp, 192		; 000000c0H
  00009	53		 push	 ebx
  0000a	56		 push	 esi
  0000b	57		 push	 edi
  0000c	8b fd		 mov	 edi, ebp
  0000e	33 c9		 xor	 ecx, ecx
  00010	b8 cc cc cc cc	 mov	 eax, -858993460		; ccccccccH
  00015	f3 ab		 rep stosd
  00017	b9 00 00 00 00	 mov	 ecx, OFFSET __589FA321_type_traits
  0001c	e8 00 00 00 00	 call	 @__CheckForDebuggerJustMyCode@4

; 1444 :     return static_cast<_Ty&&>(_Arg);

  00021	8b 45 08	 mov	 eax, DWORD PTR __Arg$[ebp]

; 1445 : }

  00024	5f		 pop	 edi
  00025	5e		 pop	 esi
  00026	5b		 pop	 ebx
  00027	81 c4 c0 00 00
	00		 add	 esp, 192		; 000000c0H
  0002d	3b ec		 cmp	 ebp, esp
  0002f	e8 00 00 00 00	 call	 __RTC_CheckEsp
  00034	8b e5		 mov	 esp, ebp
  00036	5d		 pop	 ebp
  00037	c3		 ret	 0
??$forward@PAU_Container_base12@std@@@std@@YA$$QAPAU_Container_base12@0@AAPAU10@@Z ENDP ; std::forward<std::_Container_base12 *>
_TEXT	ENDS
; Function compile flags: /Odtp /RTCsu /ZI
; File C:\Program Files (x86)\Microsoft Visual Studio\2019\Community\VC\Tools\MSVC\14.29.30133\include\xutility
;	COMDAT ??$_Voidify_iter@PAU_Container_proxy@std@@@std@@YAPAXPAU_Container_proxy@0@@Z
_TEXT	SEGMENT
__It$ = 8						; size = 4
??$_Voidify_iter@PAU_Container_proxy@std@@@std@@YAPAXPAU_Container_proxy@0@@Z PROC ; std::_Voidify_iter<std::_Container_proxy *>, COMDAT

; 130  : _NODISCARD constexpr void* _Voidify_iter(_Iter _It) noexcept {

  00000	55		 push	 ebp
  00001	8b ec		 mov	 ebp, esp
  00003	81 ec c0 00 00
	00		 sub	 esp, 192		; 000000c0H
  00009	53		 push	 ebx
  0000a	56		 push	 esi
  0000b	57		 push	 edi
  0000c	8b fd		 mov	 edi, ebp
  0000e	33 c9		 xor	 ecx, ecx
  00010	b8 cc cc cc cc	 mov	 eax, -858993460		; ccccccccH
  00015	f3 ab		 rep stosd
  00017	b9 00 00 00 00	 mov	 ecx, OFFSET __12269DE6_xutility
  0001c	e8 00 00 00 00	 call	 @__CheckForDebuggerJustMyCode@4

; 131  :     if constexpr (is_pointer_v<_Iter>) {
; 132  :         return const_cast<void*>(static_cast<const volatile void*>(_It));

  00021	8b 45 08	 mov	 eax, DWORD PTR __It$[ebp]

; 133  :     } else {
; 134  :         return const_cast<void*>(static_cast<const volatile void*>(_STD addressof(*_It)));
; 135  :     }
; 136  : }

  00024	5f		 pop	 edi
  00025	5e		 pop	 esi
  00026	5b		 pop	 ebx
  00027	81 c4 c0 00 00
	00		 add	 esp, 192		; 000000c0H
  0002d	3b ec		 cmp	 ebp, esp
  0002f	e8 00 00 00 00	 call	 __RTC_CheckEsp
  00034	8b e5		 mov	 esp, ebp
  00036	5d		 pop	 ebp
  00037	c3		 ret	 0
??$_Voidify_iter@PAU_Container_proxy@std@@@std@@YAPAXPAU_Container_proxy@0@@Z ENDP ; std::_Voidify_iter<std::_Container_proxy *>
_TEXT	ENDS
; Function compile flags: /Odtp /RTCsu /ZI
; File C:\Program Files (x86)\Microsoft Visual Studio\2019\Community\VC\Tools\MSVC\14.29.30133\include\xstddef
;	COMDAT ??$addressof@U_Container_proxy@std@@@std@@YAPAU_Container_proxy@0@AAU10@@Z
_TEXT	SEGMENT
__Val$ = 8						; size = 4
??$addressof@U_Container_proxy@std@@@std@@YAPAU_Container_proxy@0@AAU10@@Z PROC ; std::addressof<std::_Container_proxy>, COMDAT

; 274  : _NODISCARD constexpr _Ty* addressof(_Ty& _Val) noexcept {

  00000	55		 push	 ebp
  00001	8b ec		 mov	 ebp, esp
  00003	81 ec c0 00 00
	00		 sub	 esp, 192		; 000000c0H
  00009	53		 push	 ebx
  0000a	56		 push	 esi
  0000b	57		 push	 edi
  0000c	8b fd		 mov	 edi, ebp
  0000e	33 c9		 xor	 ecx, ecx
  00010	b8 cc cc cc cc	 mov	 eax, -858993460		; ccccccccH
  00015	f3 ab		 rep stosd
  00017	b9 00 00 00 00	 mov	 ecx, OFFSET __E458E21C_xstddef
  0001c	e8 00 00 00 00	 call	 @__CheckForDebuggerJustMyCode@4

; 275  :     return __builtin_addressof(_Val);

  00021	8b 45 08	 mov	 eax, DWORD PTR __Val$[ebp]

; 276  : }

  00024	5f		 pop	 edi
  00025	5e		 pop	 esi
  00026	5b		 pop	 ebx
  00027	81 c4 c0 00 00
	00		 add	 esp, 192		; 000000c0H
  0002d	3b ec		 cmp	 ebp, esp
  0002f	e8 00 00 00 00	 call	 __RTC_CheckEsp
  00034	8b e5		 mov	 esp, ebp
  00036	5d		 pop	 ebp
  00037	c3		 ret	 0
??$addressof@U_Container_proxy@std@@@std@@YAPAU_Container_proxy@0@AAU10@@Z ENDP ; std::addressof<std::_Container_proxy>
_TEXT	ENDS
; Function compile flags: /Odtp /RTCsu /ZI
; File C:\Program Files (x86)\Microsoft Visual Studio\2019\Community\VC\Tools\MSVC\14.29.30133\include\xmemory
;	COMDAT ??$_Get_size_of_n@$00@std@@YAII@Z
_TEXT	SEGMENT
__Overflow_is_possible$ = -5				; size = 1
__Count$ = 8						; size = 4
??$_Get_size_of_n@$00@std@@YAII@Z PROC			; std::_Get_size_of_n<1>, COMDAT

; 59   : _NODISCARD constexpr size_t _Get_size_of_n(const size_t _Count) {

  00000	55		 push	 ebp
  00001	8b ec		 mov	 ebp, esp
  00003	81 ec cc 00 00
	00		 sub	 esp, 204		; 000000ccH
  00009	53		 push	 ebx
  0000a	56		 push	 esi
  0000b	57		 push	 edi
  0000c	8d 7d f4	 lea	 edi, DWORD PTR [ebp-12]
  0000f	b9 03 00 00 00	 mov	 ecx, 3
  00014	b8 cc cc cc cc	 mov	 eax, -858993460		; ccccccccH
  00019	f3 ab		 rep stosd
  0001b	b9 00 00 00 00	 mov	 ecx, OFFSET __79D216CD_xmemory
  00020	e8 00 00 00 00	 call	 @__CheckForDebuggerJustMyCode@4

; 60   :     constexpr bool _Overflow_is_possible = _Ty_size > 1;

  00025	c6 45 fb 00	 mov	 BYTE PTR __Overflow_is_possible$[ebp], 0

; 61   : 
; 62   :     if constexpr (_Overflow_is_possible) {
; 63   :         constexpr size_t _Max_possible = static_cast<size_t>(-1) / _Ty_size;
; 64   :         if (_Count > _Max_possible) {
; 65   :             _Throw_bad_array_new_length(); // multiply overflow
; 66   :         }
; 67   :     }
; 68   : 
; 69   :     return _Count * _Ty_size;

  00029	8b 45 08	 mov	 eax, DWORD PTR __Count$[ebp]

; 70   : }

  0002c	5f		 pop	 edi
  0002d	5e		 pop	 esi
  0002e	5b		 pop	 ebx
  0002f	81 c4 cc 00 00
	00		 add	 esp, 204		; 000000ccH
  00035	3b ec		 cmp	 ebp, esp
  00037	e8 00 00 00 00	 call	 __RTC_CheckEsp
  0003c	8b e5		 mov	 esp, ebp
  0003e	5d		 pop	 ebp
  0003f	c3		 ret	 0
??$_Get_size_of_n@$00@std@@YAII@Z ENDP			; std::_Get_size_of_n<1>
_TEXT	ENDS
; Function compile flags: /Odtp /RTCsu /ZI
; File C:\Program Files (x86)\Microsoft Visual Studio\2019\Community\VC\Tools\MSVC\14.29.30133\include\xmemory
;	COMDAT ??$_Deallocate@$07$0A@@std@@YAXPAXI@Z
_TEXT	SEGMENT
__$EHRec$ = -12						; size = 12
__Ptr$ = 8						; size = 4
__Bytes$ = 12						; size = 4
??$_Deallocate@$07$0A@@std@@YAXPAXI@Z PROC		; std::_Deallocate<8,0>, COMDAT

; 251  : _CONSTEXPR20_DYNALLOC void _Deallocate(void* _Ptr, size_t _Bytes) noexcept {

  00000	55		 push	 ebp
  00001	8b ec		 mov	 ebp, esp
  00003	6a ff		 push	 -1
  00005	68 00 00 00 00	 push	 __ehhandler$??$_Deallocate@$07$0A@@std@@YAXPAXI@Z
  0000a	64 a1 00 00 00
	00		 mov	 eax, DWORD PTR fs:0
  00010	50		 push	 eax
  00011	81 ec c0 00 00
	00		 sub	 esp, 192		; 000000c0H
  00017	53		 push	 ebx
  00018	56		 push	 esi
  00019	57		 push	 edi
  0001a	8d 7d f4	 lea	 edi, DWORD PTR [ebp-12]
  0001d	33 c9		 xor	 ecx, ecx
  0001f	b8 cc cc cc cc	 mov	 eax, -858993460		; ccccccccH
  00024	f3 ab		 rep stosd
  00026	a1 00 00 00 00	 mov	 eax, DWORD PTR ___security_cookie
  0002b	33 c5		 xor	 eax, ebp
  0002d	50		 push	 eax
  0002e	8d 45 f4	 lea	 eax, DWORD PTR __$EHRec$[ebp]
  00031	64 a3 00 00 00
	00		 mov	 DWORD PTR fs:0, eax
  00037	b9 00 00 00 00	 mov	 ecx, OFFSET __79D216CD_xmemory
  0003c	e8 00 00 00 00	 call	 @__CheckForDebuggerJustMyCode@4

; 252  :     // deallocate storage allocated by _Allocate when !_HAS_ALIGNED_NEW || _Align <= __STDCPP_DEFAULT_NEW_ALIGNMENT__
; 253  : #ifdef __cpp_lib_constexpr_dynamic_alloc // TRANSITION, GH-1532
; 254  :     if (_STD is_constant_evaluated()) {
; 255  :         ::operator delete(_Ptr);
; 256  :     } else
; 257  : #endif // __cpp_lib_constexpr_dynamic_alloc
; 258  :     {
; 259  : #if defined(_M_IX86) || defined(_M_X64)
; 260  :         if (_Bytes >= _Big_allocation_threshold) { // boost the alignment of big allocations to help autovectorization

  00041	81 7d 0c 00 10
	00 00		 cmp	 DWORD PTR __Bytes$[ebp], 4096 ; 00001000H
  00048	72 10		 jb	 SHORT $LN2@Deallocate

; 261  :             _Adjust_manually_vector_aligned(_Ptr, _Bytes);

  0004a	8d 45 0c	 lea	 eax, DWORD PTR __Bytes$[ebp]
  0004d	50		 push	 eax
  0004e	8d 4d 08	 lea	 ecx, DWORD PTR __Ptr$[ebp]
  00051	51		 push	 ecx
  00052	e8 00 00 00 00	 call	 ?_Adjust_manually_vector_aligned@std@@YAXAAPAXAAI@Z ; std::_Adjust_manually_vector_aligned
  00057	83 c4 08	 add	 esp, 8
$LN2@Deallocate:

; 262  :         }
; 263  : #endif // defined(_M_IX86) || defined(_M_X64)
; 264  :         ::operator delete(_Ptr, _Bytes);

  0005a	8b 45 0c	 mov	 eax, DWORD PTR __Bytes$[ebp]
  0005d	50		 push	 eax
  0005e	8b 4d 08	 mov	 ecx, DWORD PTR __Ptr$[ebp]
  00061	51		 push	 ecx
  00062	e8 00 00 00 00	 call	 ??3@YAXPAXI@Z		; operator delete
  00067	83 c4 08	 add	 esp, 8

; 265  :     }
; 266  : }

  0006a	8b 4d f4	 mov	 ecx, DWORD PTR __$EHRec$[ebp]
  0006d	64 89 0d 00 00
	00 00		 mov	 DWORD PTR fs:0, ecx
  00074	59		 pop	 ecx
  00075	5f		 pop	 edi
  00076	5e		 pop	 esi
  00077	5b		 pop	 ebx
  00078	81 c4 cc 00 00
	00		 add	 esp, 204		; 000000ccH
  0007e	3b ec		 cmp	 ebp, esp
  00080	e8 00 00 00 00	 call	 __RTC_CheckEsp
  00085	8b e5		 mov	 esp, ebp
  00087	5d		 pop	 ebp
  00088	c3		 ret	 0
  00089	cc		 int	 3
  0008a	cc		 int	 3
  0008b	cc		 int	 3
  0008c	cc		 int	 3
  0008d	cc		 int	 3
_TEXT	ENDS
;	COMDAT text$x
text$x	SEGMENT
__ehhandler$??$_Deallocate@$07$0A@@std@@YAXPAXI@Z:
  00000	90		 npad	 1
  00001	90		 npad	 1
  00002	8b 54 24 08	 mov	 edx, DWORD PTR [esp+8]
  00006	8d 42 0c	 lea	 eax, DWORD PTR [edx+12]
  00009	8b 8a 30 ff ff
	ff		 mov	 ecx, DWORD PTR [edx-208]
  0000f	33 c8		 xor	 ecx, eax
  00011	e8 00 00 00 00	 call	 @__security_check_cookie@4
  00016	b8 00 00 00 00	 mov	 eax, OFFSET __ehfuncinfo$??$_Deallocate@$07$0A@@std@@YAXPAXI@Z
  0001b	e9 00 00 00 00	 jmp	 ___CxxFrameHandler3
text$x	ENDS
??$_Deallocate@$07$0A@@std@@YAXPAXI@Z ENDP		; std::_Deallocate<8,0>
; Function compile flags: /Odtp /RTCsu /ZI
; File C:\Program Files (x86)\Microsoft Visual Studio\2019\Community\VC\Tools\MSVC\14.29.30133\include\xmemory
;	COMDAT ??$_Allocate@$07U_Default_allocate_traits@std@@$0A@@std@@YAPAXI@Z
_TEXT	SEGMENT
__Bytes$ = 8						; size = 4
??$_Allocate@$07U_Default_allocate_traits@std@@$0A@@std@@YAPAXI@Z PROC ; std::_Allocate<8,std::_Default_allocate_traits,0>, COMDAT

; 230  : __declspec(allocator) _CONSTEXPR20_DYNALLOC void* _Allocate(const size_t _Bytes) {

  00000	55		 push	 ebp
  00001	8b ec		 mov	 ebp, esp
  00003	81 ec c0 00 00
	00		 sub	 esp, 192		; 000000c0H
  00009	53		 push	 ebx
  0000a	56		 push	 esi
  0000b	57		 push	 edi
  0000c	8b fd		 mov	 edi, ebp
  0000e	33 c9		 xor	 ecx, ecx
  00010	b8 cc cc cc cc	 mov	 eax, -858993460		; ccccccccH
  00015	f3 ab		 rep stosd
  00017	b9 00 00 00 00	 mov	 ecx, OFFSET __79D216CD_xmemory
  0001c	e8 00 00 00 00	 call	 @__CheckForDebuggerJustMyCode@4

; 231  :     // allocate _Bytes when !_HAS_ALIGNED_NEW || _Align <= __STDCPP_DEFAULT_NEW_ALIGNMENT__
; 232  : #if defined(_M_IX86) || defined(_M_X64)
; 233  : #ifdef __cpp_lib_constexpr_dynamic_alloc // TRANSITION, GH-1532
; 234  :     if (!_STD is_constant_evaluated())
; 235  : #endif // __cpp_lib_constexpr_dynamic_alloc
; 236  :     {
; 237  :         if (_Bytes >= _Big_allocation_threshold) { // boost the alignment of big allocations to help autovectorization

  00021	81 7d 08 00 10
	00 00		 cmp	 DWORD PTR __Bytes$[ebp], 4096 ; 00001000H
  00028	72 0e		 jb	 SHORT $LN2@Allocate

; 238  :             return _Allocate_manually_vector_aligned<_Traits>(_Bytes);

  0002a	8b 45 08	 mov	 eax, DWORD PTR __Bytes$[ebp]
  0002d	50		 push	 eax
  0002e	e8 00 00 00 00	 call	 ??$_Allocate_manually_vector_aligned@U_Default_allocate_traits@std@@@std@@YAPAXI@Z ; std::_Allocate_manually_vector_aligned<std::_Default_allocate_traits>
  00033	83 c4 04	 add	 esp, 4
  00036	eb 16		 jmp	 SHORT $LN1@Allocate
$LN2@Allocate:

; 239  :         }
; 240  :     }
; 241  : #endif // defined(_M_IX86) || defined(_M_X64)
; 242  : 
; 243  :     if (_Bytes != 0) {

  00038	83 7d 08 00	 cmp	 DWORD PTR __Bytes$[ebp], 0
  0003c	74 0e		 je	 SHORT $LN3@Allocate

; 244  :         return _Traits::_Allocate(_Bytes);

  0003e	8b 45 08	 mov	 eax, DWORD PTR __Bytes$[ebp]
  00041	50		 push	 eax
  00042	e8 00 00 00 00	 call	 ?_Allocate@_Default_allocate_traits@std@@SAPAXI@Z ; std::_Default_allocate_traits::_Allocate
  00047	83 c4 04	 add	 esp, 4
  0004a	eb 02		 jmp	 SHORT $LN1@Allocate
$LN3@Allocate:

; 245  :     }
; 246  : 
; 247  :     return nullptr;

  0004c	33 c0		 xor	 eax, eax
$LN1@Allocate:

; 248  : }

  0004e	5f		 pop	 edi
  0004f	5e		 pop	 esi
  00050	5b		 pop	 ebx
  00051	81 c4 c0 00 00
	00		 add	 esp, 192		; 000000c0H
  00057	3b ec		 cmp	 ebp, esp
  00059	e8 00 00 00 00	 call	 __RTC_CheckEsp
  0005e	8b e5		 mov	 esp, ebp
  00060	5d		 pop	 ebp
  00061	c3		 ret	 0
??$_Allocate@$07U_Default_allocate_traits@std@@$0A@@std@@YAPAXI@Z ENDP ; std::_Allocate<8,std::_Default_allocate_traits,0>
_TEXT	ENDS
; Function compile flags: /Odtp /RTCsu /ZI
; File C:\Program Files (x86)\Microsoft Visual Studio\2019\Community\VC\Tools\MSVC\14.29.30133\include\xmemory
;	COMDAT ??$_Get_size_of_n@$07@std@@YAII@Z
_TEXT	SEGMENT
__Max_possible$1 = -20					; size = 4
__Overflow_is_possible$ = -5				; size = 1
__Count$ = 8						; size = 4
??$_Get_size_of_n@$07@std@@YAII@Z PROC			; std::_Get_size_of_n<8>, COMDAT

; 59   : _NODISCARD constexpr size_t _Get_size_of_n(const size_t _Count) {

  00000	55		 push	 ebp
  00001	8b ec		 mov	 ebp, esp
  00003	81 ec d8 00 00
	00		 sub	 esp, 216		; 000000d8H
  00009	53		 push	 ebx
  0000a	56		 push	 esi
  0000b	57		 push	 edi
  0000c	8d 7d e8	 lea	 edi, DWORD PTR [ebp-24]
  0000f	b9 06 00 00 00	 mov	 ecx, 6
  00014	b8 cc cc cc cc	 mov	 eax, -858993460		; ccccccccH
  00019	f3 ab		 rep stosd
  0001b	b9 00 00 00 00	 mov	 ecx, OFFSET __79D216CD_xmemory
  00020	e8 00 00 00 00	 call	 @__CheckForDebuggerJustMyCode@4

; 60   :     constexpr bool _Overflow_is_possible = _Ty_size > 1;

  00025	c6 45 fb 01	 mov	 BYTE PTR __Overflow_is_possible$[ebp], 1

; 61   : 
; 62   :     if constexpr (_Overflow_is_possible) {
; 63   :         constexpr size_t _Max_possible = static_cast<size_t>(-1) / _Ty_size;

  00029	c7 45 ec ff ff
	ff 1f		 mov	 DWORD PTR __Max_possible$1[ebp], 536870911 ; 1fffffffH

; 64   :         if (_Count > _Max_possible) {

  00030	81 7d 08 ff ff
	ff 1f		 cmp	 DWORD PTR __Count$[ebp], 536870911 ; 1fffffffH
  00037	76 05		 jbe	 SHORT $LN2@Get_size_o

; 65   :             _Throw_bad_array_new_length(); // multiply overflow

  00039	e8 00 00 00 00	 call	 ?_Throw_bad_array_new_length@std@@YAXXZ ; std::_Throw_bad_array_new_length
$LN2@Get_size_o:

; 66   :         }
; 67   :     }
; 68   : 
; 69   :     return _Count * _Ty_size;

  0003e	8b 45 08	 mov	 eax, DWORD PTR __Count$[ebp]
  00041	c1 e0 03	 shl	 eax, 3
$LN3@Get_size_o:

; 70   : }

  00044	5f		 pop	 edi
  00045	5e		 pop	 esi
  00046	5b		 pop	 ebx
  00047	81 c4 d8 00 00
	00		 add	 esp, 216		; 000000d8H
  0004d	3b ec		 cmp	 ebp, esp
  0004f	e8 00 00 00 00	 call	 __RTC_CheckEsp
  00054	8b e5		 mov	 esp, ebp
  00056	5d		 pop	 ebp
  00057	c3		 ret	 0
??$_Get_size_of_n@$07@std@@YAII@Z ENDP			; std::_Get_size_of_n<8>
_TEXT	ENDS
; Function compile flags: /Odtp /RTCsu /ZI
; File C:\Program Files (x86)\Microsoft Visual Studio\2019\Community\VC\Tools\MSVC\14.29.30133\include\utility
;	COMDAT ??$max@I@std@@YAABIABI0@Z
_TEXT	SEGMENT
tv65 = -208						; size = 4
$T1 = -200						; size = 4
__Left$ = 8						; size = 4
__Right$ = 12						; size = 4
??$max@I@std@@YAABIABI0@Z PROC				; std::max<unsigned int>, COMDAT

; 42   :     const _Ty& _Left, const _Ty& _Right) noexcept(noexcept(_Left < _Right)) /* strengthened */ {

  00000	55		 push	 ebp
  00001	8b ec		 mov	 ebp, esp
  00003	81 ec d0 00 00
	00		 sub	 esp, 208		; 000000d0H
  00009	53		 push	 ebx
  0000a	56		 push	 esi
  0000b	57		 push	 edi
  0000c	8d 7d f0	 lea	 edi, DWORD PTR [ebp-16]
  0000f	b9 04 00 00 00	 mov	 ecx, 4
  00014	b8 cc cc cc cc	 mov	 eax, -858993460		; ccccccccH
  00019	f3 ab		 rep stosd
  0001b	b9 00 00 00 00	 mov	 ecx, OFFSET __1347750E_utility
  00020	e8 00 00 00 00	 call	 @__CheckForDebuggerJustMyCode@4

; 43   :     // return larger of _Left and _Right
; 44   :     return _Left < _Right ? _Right : _Left;

  00025	8b 45 08	 mov	 eax, DWORD PTR __Left$[ebp]
  00028	8b 4d 0c	 mov	 ecx, DWORD PTR __Right$[ebp]
  0002b	8b 10		 mov	 edx, DWORD PTR [eax]
  0002d	3b 11		 cmp	 edx, DWORD PTR [ecx]
  0002f	73 0b		 jae	 SHORT $LN3@max
  00031	8b 45 0c	 mov	 eax, DWORD PTR __Right$[ebp]
  00034	89 85 30 ff ff
	ff		 mov	 DWORD PTR tv65[ebp], eax
  0003a	eb 09		 jmp	 SHORT $LN4@max
$LN3@max:
  0003c	8b 4d 08	 mov	 ecx, DWORD PTR __Left$[ebp]
  0003f	89 8d 30 ff ff
	ff		 mov	 DWORD PTR tv65[ebp], ecx
$LN4@max:
  00045	8b 95 30 ff ff
	ff		 mov	 edx, DWORD PTR tv65[ebp]
  0004b	89 95 38 ff ff
	ff		 mov	 DWORD PTR $T1[ebp], edx
  00051	8b 85 38 ff ff
	ff		 mov	 eax, DWORD PTR $T1[ebp]

; 45   : }

  00057	5f		 pop	 edi
  00058	5e		 pop	 esi
  00059	5b		 pop	 ebx
  0005a	81 c4 d0 00 00
	00		 add	 esp, 208		; 000000d0H
  00060	3b ec		 cmp	 ebp, esp
  00062	e8 00 00 00 00	 call	 __RTC_CheckEsp
  00067	8b e5		 mov	 esp, ebp
  00069	5d		 pop	 ebp
  0006a	c3		 ret	 0
??$max@I@std@@YAABIABI0@Z ENDP				; std::max<unsigned int>
_TEXT	ENDS
; Function compile flags: /Odtp /RTCsu /ZI
; File C:\Program Files (x86)\Microsoft Visual Studio\2019\Community\VC\Tools\MSVC\14.29.30133\include\xstddef
;	COMDAT ??$_Unfancy@D@std@@YAPADPAD@Z
_TEXT	SEGMENT
__Ptr$ = 8						; size = 4
??$_Unfancy@D@std@@YAPADPAD@Z PROC			; std::_Unfancy<char>, COMDAT

; 288  : _NODISCARD constexpr _Ty* _Unfancy(_Ty* _Ptr) noexcept { // do nothing for plain pointers

  00000	55		 push	 ebp
  00001	8b ec		 mov	 ebp, esp
  00003	81 ec c0 00 00
	00		 sub	 esp, 192		; 000000c0H
  00009	53		 push	 ebx
  0000a	56		 push	 esi
  0000b	57		 push	 edi
  0000c	8b fd		 mov	 edi, ebp
  0000e	33 c9		 xor	 ecx, ecx
  00010	b8 cc cc cc cc	 mov	 eax, -858993460		; ccccccccH
  00015	f3 ab		 rep stosd
  00017	b9 00 00 00 00	 mov	 ecx, OFFSET __E458E21C_xstddef
  0001c	e8 00 00 00 00	 call	 @__CheckForDebuggerJustMyCode@4

; 289  :     return _Ptr;

  00021	8b 45 08	 mov	 eax, DWORD PTR __Ptr$[ebp]

; 290  : }

  00024	5f		 pop	 edi
  00025	5e		 pop	 esi
  00026	5b		 pop	 ebx
  00027	81 c4 c0 00 00
	00		 add	 esp, 192		; 000000c0H
  0002d	3b ec		 cmp	 ebp, esp
  0002f	e8 00 00 00 00	 call	 __RTC_CheckEsp
  00034	8b e5		 mov	 esp, ebp
  00036	5d		 pop	 ebp
  00037	c3		 ret	 0
??$_Unfancy@D@std@@YAPADPAD@Z ENDP			; std::_Unfancy<char>
_TEXT	ENDS
; Function compile flags: /Odtp /RTCsu /ZI
; File C:\Program Files (x86)\Microsoft Visual Studio\2019\Community\VC\Tools\MSVC\14.29.30133\include\xutility
;	COMDAT ??$_Construct_in_place@PADABQAD@std@@YAXAAPADABQAD@Z
_TEXT	SEGMENT
$T1 = -200						; size = 4
__Obj$ = 8						; size = 4
_<_Args_0>$ = 12					; size = 4
??$_Construct_in_place@PADABQAD@std@@YAXAAPADABQAD@Z PROC ; std::_Construct_in_place<char *,char * const &>, COMDAT

; 151  :     is_nothrow_constructible_v<_Ty, _Types...>) {

  00000	55		 push	 ebp
  00001	8b ec		 mov	 ebp, esp
  00003	81 ec cc 00 00
	00		 sub	 esp, 204		; 000000ccH
  00009	53		 push	 ebx
  0000a	56		 push	 esi
  0000b	57		 push	 edi
  0000c	8d 7d f4	 lea	 edi, DWORD PTR [ebp-12]
  0000f	b9 03 00 00 00	 mov	 ecx, 3
  00014	b8 cc cc cc cc	 mov	 eax, -858993460		; ccccccccH
  00019	f3 ab		 rep stosd
  0001b	b9 00 00 00 00	 mov	 ecx, OFFSET __12269DE6_xutility
  00020	e8 00 00 00 00	 call	 @__CheckForDebuggerJustMyCode@4
  00025	8b 45 08	 mov	 eax, DWORD PTR __Obj$[ebp]
  00028	50		 push	 eax
  00029	e8 00 00 00 00	 call	 ??$addressof@PAD@std@@YAPAPADAAPAD@Z ; std::addressof<char *>
  0002e	83 c4 04	 add	 esp, 4
  00031	50		 push	 eax
  00032	e8 00 00 00 00	 call	 ??$_Voidify_iter@PAPAD@std@@YAPAXPAPAD@Z ; std::_Voidify_iter<char * *>
  00037	83 c4 04	 add	 esp, 4
  0003a	50		 push	 eax
  0003b	6a 04		 push	 4
  0003d	e8 00 00 00 00	 call	 ??2@YAPAXIPAX@Z		; operator new
  00042	83 c4 08	 add	 esp, 8
  00045	89 85 38 ff ff
	ff		 mov	 DWORD PTR $T1[ebp], eax
  0004b	8b 4d 0c	 mov	 ecx, DWORD PTR _<_Args_0>$[ebp]
  0004e	51		 push	 ecx
  0004f	e8 00 00 00 00	 call	 ??$forward@ABQAD@std@@YAABQADABQAD@Z ; std::forward<char * const &>
  00054	83 c4 04	 add	 esp, 4
  00057	8b 95 38 ff ff
	ff		 mov	 edx, DWORD PTR $T1[ebp]
  0005d	8b 00		 mov	 eax, DWORD PTR [eax]
  0005f	89 02		 mov	 DWORD PTR [edx], eax

; 152  : #ifdef __cpp_lib_constexpr_dynamic_alloc
; 153  :     if (_STD is_constant_evaluated()) {
; 154  :         _STD construct_at(_STD addressof(_Obj), _STD forward<_Types>(_Args)...);
; 155  :     } else
; 156  : #endif // __cpp_lib_constexpr_dynamic_alloc
; 157  :     {
; 158  :         ::new (_Voidify_iter(_STD addressof(_Obj))) _Ty(_STD forward<_Types>(_Args)...);
; 159  :     }
; 160  : }

  00061	5f		 pop	 edi
  00062	5e		 pop	 esi
  00063	5b		 pop	 ebx
  00064	81 c4 cc 00 00
	00		 add	 esp, 204		; 000000ccH
  0006a	3b ec		 cmp	 ebp, esp
  0006c	e8 00 00 00 00	 call	 __RTC_CheckEsp
  00071	8b e5		 mov	 esp, ebp
  00073	5d		 pop	 ebp
  00074	c3		 ret	 0
??$_Construct_in_place@PADABQAD@std@@YAXAAPADABQAD@Z ENDP ; std::_Construct_in_place<char *,char * const &>
_TEXT	ENDS
; Function compile flags: /Odtp /RTCsu /ZI
; File C:\Program Files (x86)\Microsoft Visual Studio\2019\Community\VC\Tools\MSVC\14.29.30133\include\xstring
;	COMDAT ??$_Reallocate_for@V<lambda_9366063389c5f42a00a5088cf24e69de>@@PBD@?$basic_string@DU?$char_traits@D@std@@V?$allocator@D@2@@std@@AAEAAV01@IV<lambda_9366063389c5f42a00a5088cf24e69de>@@PBD@Z
_TEXT	SEGMENT
__New_ptr$ = -60					; size = 4
__Al$ = -48						; size = 4
__New_capacity$ = -36					; size = 4
__Old_capacity$ = -24					; size = 4
_this$ = -12						; size = 4
__$ArrayPad$ = -4					; size = 4
__New_size$ = 8						; size = 4
__Fn$ = 12						; size = 1
_<_Args_0>$ = 16					; size = 4
??$_Reallocate_for@V<lambda_9366063389c5f42a00a5088cf24e69de>@@PBD@?$basic_string@DU?$char_traits@D@std@@V?$allocator@D@2@@std@@AAEAAV01@IV<lambda_9366063389c5f42a00a5088cf24e69de>@@PBD@Z PROC ; std::basic_string<char,std::char_traits<char>,std::allocator<char> >::_Reallocate_for<<lambda_9366063389c5f42a00a5088cf24e69de>,char const *>, COMDAT
; _this$ = ecx

; 4505 :     _CONSTEXPR20_CONTAINER basic_string& _Reallocate_for(const size_type _New_size, _Fty _Fn, _ArgTys... _Args) {

  00000	55		 push	 ebp
  00001	8b ec		 mov	 ebp, esp
  00003	81 ec 00 01 00
	00		 sub	 esp, 256		; 00000100H
  00009	53		 push	 ebx
  0000a	56		 push	 esi
  0000b	57		 push	 edi
  0000c	51		 push	 ecx
  0000d	8d 7d c0	 lea	 edi, DWORD PTR [ebp-64]
  00010	b9 10 00 00 00	 mov	 ecx, 16			; 00000010H
  00015	b8 cc cc cc cc	 mov	 eax, -858993460		; ccccccccH
  0001a	f3 ab		 rep stosd
  0001c	59		 pop	 ecx
  0001d	a1 00 00 00 00	 mov	 eax, DWORD PTR ___security_cookie
  00022	33 c5		 xor	 eax, ebp
  00024	89 45 fc	 mov	 DWORD PTR __$ArrayPad$[ebp], eax
  00027	89 4d f4	 mov	 DWORD PTR _this$[ebp], ecx
  0002a	b9 00 00 00 00	 mov	 ecx, OFFSET __0D019051_xstring
  0002f	e8 00 00 00 00	 call	 @__CheckForDebuggerJustMyCode@4

; 4506 :         // reallocate to store exactly _New_size elements, new buffer prepared by
; 4507 :         // _Fn(_New_ptr, _New_size, _Args...)
; 4508 :         if (_New_size > max_size()) {

  00034	8b 4d f4	 mov	 ecx, DWORD PTR _this$[ebp]
  00037	e8 00 00 00 00	 call	 ?max_size@?$basic_string@DU?$char_traits@D@std@@V?$allocator@D@2@@std@@QBEIXZ ; std::basic_string<char,std::char_traits<char>,std::allocator<char> >::max_size
  0003c	39 45 08	 cmp	 DWORD PTR __New_size$[ebp], eax
  0003f	76 05		 jbe	 SHORT $LN2@Reallocate

; 4509 :             _Xlen_string(); // result too long

  00041	e8 00 00 00 00	 call	 ?_Xlen_string@std@@YAXXZ ; std::_Xlen_string
$LN2@Reallocate:

; 4510 :         }
; 4511 : 
; 4512 :         const size_type _Old_capacity = _Mypair._Myval2._Myres;

  00046	8b 45 f4	 mov	 eax, DWORD PTR _this$[ebp]
  00049	8b 48 18	 mov	 ecx, DWORD PTR [eax+24]
  0004c	89 4d e8	 mov	 DWORD PTR __Old_capacity$[ebp], ecx

; 4513 :         const size_type _New_capacity = _Calculate_growth(_New_size);

  0004f	8b 45 08	 mov	 eax, DWORD PTR __New_size$[ebp]
  00052	50		 push	 eax
  00053	8b 4d f4	 mov	 ecx, DWORD PTR _this$[ebp]
  00056	e8 00 00 00 00	 call	 ?_Calculate_growth@?$basic_string@DU?$char_traits@D@std@@V?$allocator@D@2@@std@@ABEII@Z ; std::basic_string<char,std::char_traits<char>,std::allocator<char> >::_Calculate_growth
  0005b	89 45 dc	 mov	 DWORD PTR __New_capacity$[ebp], eax

; 4514 :         auto& _Al                     = _Getal();

  0005e	8b 4d f4	 mov	 ecx, DWORD PTR _this$[ebp]
  00061	e8 00 00 00 00	 call	 ?_Getal@?$basic_string@DU?$char_traits@D@std@@V?$allocator@D@2@@std@@AAEAAV?$allocator@D@2@XZ ; std::basic_string<char,std::char_traits<char>,std::allocator<char> >::_Getal
  00066	89 45 d0	 mov	 DWORD PTR __Al$[ebp], eax

; 4515 :         const pointer _New_ptr        = _Al.allocate(_New_capacity + 1); // throws

  00069	33 c0		 xor	 eax, eax
  0006b	8b 4d dc	 mov	 ecx, DWORD PTR __New_capacity$[ebp]
  0006e	83 c1 01	 add	 ecx, 1
  00071	0f 92 c0	 setb	 al
  00074	f7 d8		 neg	 eax
  00076	0b c1		 or	 eax, ecx
  00078	50		 push	 eax
  00079	8b 4d d0	 mov	 ecx, DWORD PTR __Al$[ebp]
  0007c	e8 00 00 00 00	 call	 ?allocate@?$allocator@D@std@@QAEPADI@Z ; std::allocator<char>::allocate
  00081	89 45 c4	 mov	 DWORD PTR __New_ptr$[ebp], eax

; 4516 : 
; 4517 : #ifdef __cpp_lib_constexpr_string
; 4518 :         if (_STD is_constant_evaluated()) { // Begin the lifetimes of the objects before copying to avoid UB
; 4519 :             _Traits::assign(_Unfancy(_New_ptr), _New_capacity + 1, _Elem());
; 4520 :         }
; 4521 : #endif // __cpp_lib_constexpr_string
; 4522 :         _Mypair._Myval2._Orphan_all();

  00084	8b 4d f4	 mov	 ecx, DWORD PTR _this$[ebp]
  00087	e8 00 00 00 00	 call	 ?_Orphan_all@_Container_base12@std@@QAEXXZ ; std::_Container_base12::_Orphan_all

; 4523 :         _Mypair._Myval2._Mysize = _New_size;

  0008c	8b 45 f4	 mov	 eax, DWORD PTR _this$[ebp]
  0008f	8b 4d 08	 mov	 ecx, DWORD PTR __New_size$[ebp]
  00092	89 48 14	 mov	 DWORD PTR [eax+20], ecx

; 4524 :         _Mypair._Myval2._Myres  = _New_capacity;

  00095	8b 45 f4	 mov	 eax, DWORD PTR _this$[ebp]
  00098	8b 4d dc	 mov	 ecx, DWORD PTR __New_capacity$[ebp]
  0009b	89 48 18	 mov	 DWORD PTR [eax+24], ecx

; 4525 :         _Fn(_Unfancy(_New_ptr), _New_size, _Args...);

  0009e	8b 45 10	 mov	 eax, DWORD PTR _<_Args_0>$[ebp]
  000a1	50		 push	 eax
  000a2	8b 4d 08	 mov	 ecx, DWORD PTR __New_size$[ebp]
  000a5	51		 push	 ecx
  000a6	8b 55 c4	 mov	 edx, DWORD PTR __New_ptr$[ebp]
  000a9	52		 push	 edx
  000aa	e8 00 00 00 00	 call	 ??$_Unfancy@D@std@@YAPADPAD@Z ; std::_Unfancy<char>
  000af	83 c4 04	 add	 esp, 4
  000b2	50		 push	 eax
  000b3	8d 4d 0c	 lea	 ecx, DWORD PTR __Fn$[ebp]
  000b6	e8 00 00 00 00	 call	 ??R<lambda_9366063389c5f42a00a5088cf24e69de>@@QBE@QADIQBD@Z ; <lambda_9366063389c5f42a00a5088cf24e69de>::operator()

; 4526 :         if (_BUF_SIZE <= _Old_capacity) {

  000bb	83 7d e8 10	 cmp	 DWORD PTR __Old_capacity$[ebp], 16 ; 00000010H
  000bf	72 21		 jb	 SHORT $LN3@Reallocate

; 4527 :             _Al.deallocate(_Mypair._Myval2._Bx._Ptr, _Old_capacity + 1);

  000c1	8b 45 e8	 mov	 eax, DWORD PTR __Old_capacity$[ebp]
  000c4	83 c0 01	 add	 eax, 1
  000c7	50		 push	 eax
  000c8	8b 4d f4	 mov	 ecx, DWORD PTR _this$[ebp]
  000cb	8b 51 04	 mov	 edx, DWORD PTR [ecx+4]
  000ce	52		 push	 edx
  000cf	8b 4d d0	 mov	 ecx, DWORD PTR __Al$[ebp]
  000d2	e8 00 00 00 00	 call	 ?deallocate@?$allocator@D@std@@QAEXQADI@Z ; std::allocator<char>::deallocate

; 4528 :             _Mypair._Myval2._Bx._Ptr = _New_ptr;

  000d7	8b 45 f4	 mov	 eax, DWORD PTR _this$[ebp]
  000da	8b 4d c4	 mov	 ecx, DWORD PTR __New_ptr$[ebp]
  000dd	89 48 04	 mov	 DWORD PTR [eax+4], ecx

; 4529 :         } else {

  000e0	eb 13		 jmp	 SHORT $LN4@Reallocate
$LN3@Reallocate:

; 4530 :             _Construct_in_place(_Mypair._Myval2._Bx._Ptr, _New_ptr);

  000e2	8d 45 c4	 lea	 eax, DWORD PTR __New_ptr$[ebp]
  000e5	50		 push	 eax
  000e6	8b 4d f4	 mov	 ecx, DWORD PTR _this$[ebp]
  000e9	83 c1 04	 add	 ecx, 4
  000ec	51		 push	 ecx
  000ed	e8 00 00 00 00	 call	 ??$_Construct_in_place@PADABQAD@std@@YAXAAPADABQAD@Z ; std::_Construct_in_place<char *,char * const &>
  000f2	83 c4 08	 add	 esp, 8
$LN4@Reallocate:

; 4531 :         }
; 4532 : 
; 4533 :         return *this;

  000f5	8b 45 f4	 mov	 eax, DWORD PTR _this$[ebp]
$LN5@Reallocate:

; 4534 :     }

  000f8	52		 push	 edx
  000f9	8b cd		 mov	 ecx, ebp
  000fb	50		 push	 eax
  000fc	8d 15 00 00 00
	00		 lea	 edx, DWORD PTR $LN8@Reallocate
  00102	e8 00 00 00 00	 call	 @_RTC_CheckStackVars@8
  00107	58		 pop	 eax
  00108	5a		 pop	 edx
  00109	5f		 pop	 edi
  0010a	5e		 pop	 esi
  0010b	5b		 pop	 ebx
  0010c	8b 4d fc	 mov	 ecx, DWORD PTR __$ArrayPad$[ebp]
  0010f	33 cd		 xor	 ecx, ebp
  00111	e8 00 00 00 00	 call	 @__security_check_cookie@4
  00116	81 c4 00 01 00
	00		 add	 esp, 256		; 00000100H
  0011c	3b ec		 cmp	 ebp, esp
  0011e	e8 00 00 00 00	 call	 __RTC_CheckEsp
  00123	8b e5		 mov	 esp, ebp
  00125	5d		 pop	 ebp
  00126	c2 0c 00	 ret	 12			; 0000000cH
  00129	0f 1f 00	 npad	 3
$LN8@Reallocate:
  0012c	01 00 00 00	 DD	 1
  00130	00 00 00 00	 DD	 $LN7@Reallocate
$LN7@Reallocate:
  00134	c4 ff ff ff	 DD	 -60			; ffffffc4H
  00138	04 00 00 00	 DD	 4
  0013c	00 00 00 00	 DD	 $LN6@Reallocate
$LN6@Reallocate:
  00140	5f		 DB	 95			; 0000005fH
  00141	4e		 DB	 78			; 0000004eH
  00142	65		 DB	 101			; 00000065H
  00143	77		 DB	 119			; 00000077H
  00144	5f		 DB	 95			; 0000005fH
  00145	70		 DB	 112			; 00000070H
  00146	74		 DB	 116			; 00000074H
  00147	72		 DB	 114			; 00000072H
  00148	00		 DB	 0
??$_Reallocate_for@V<lambda_9366063389c5f42a00a5088cf24e69de>@@PBD@?$basic_string@DU?$char_traits@D@std@@V?$allocator@D@2@@std@@AAEAAV01@IV<lambda_9366063389c5f42a00a5088cf24e69de>@@PBD@Z ENDP ; std::basic_string<char,std::char_traits<char>,std::allocator<char> >::_Reallocate_for<<lambda_9366063389c5f42a00a5088cf24e69de>,char const *>
_TEXT	ENDS
; Function compile flags: /Odtp /RTCsu /ZI
; File C:\Program Files (x86)\Microsoft Visual Studio\2019\Community\VC\Tools\MSVC\14.29.30133\include\xstring
;	COMDAT ??R<lambda_9366063389c5f42a00a5088cf24e69de>@@QBE@QADIQBD@Z
_TEXT	SEGMENT
$T1 = -209						; size = 1
_this$ = -8						; size = 4
__New_ptr$ = 8						; size = 4
__Count$ = 12						; size = 4
__Ptr$ = 16						; size = 4
??R<lambda_9366063389c5f42a00a5088cf24e69de>@@QBE@QADIQBD@Z PROC ; <lambda_9366063389c5f42a00a5088cf24e69de>::operator(), COMDAT
; _this$ = ecx

; 3256 :             [](_Elem* const _New_ptr, const size_type _Count, const _Elem* const _Ptr) {

  00000	55		 push	 ebp
  00001	8b ec		 mov	 ebp, esp
  00003	81 ec d8 00 00
	00		 sub	 esp, 216		; 000000d8H
  00009	53		 push	 ebx
  0000a	56		 push	 esi
  0000b	57		 push	 edi
  0000c	51		 push	 ecx
  0000d	8d 7d e8	 lea	 edi, DWORD PTR [ebp-24]
  00010	b9 06 00 00 00	 mov	 ecx, 6
  00015	b8 cc cc cc cc	 mov	 eax, -858993460		; ccccccccH
  0001a	f3 ab		 rep stosd
  0001c	59		 pop	 ecx
  0001d	89 4d f8	 mov	 DWORD PTR _this$[ebp], ecx
  00020	b9 00 00 00 00	 mov	 ecx, OFFSET __0D019051_xstring
  00025	e8 00 00 00 00	 call	 @__CheckForDebuggerJustMyCode@4

; 3257 :                 _Traits::copy(_New_ptr, _Ptr, _Count);

  0002a	8b 45 0c	 mov	 eax, DWORD PTR __Count$[ebp]
  0002d	50		 push	 eax
  0002e	8b 4d 10	 mov	 ecx, DWORD PTR __Ptr$[ebp]
  00031	51		 push	 ecx
  00032	8b 55 08	 mov	 edx, DWORD PTR __New_ptr$[ebp]
  00035	52		 push	 edx
  00036	e8 00 00 00 00	 call	 ?copy@?$_Char_traits@DH@std@@SAPADQADQBDI@Z ; std::_Char_traits<char,int>::copy
  0003b	83 c4 0c	 add	 esp, 12			; 0000000cH

; 3258 :                 _Traits::assign(_New_ptr[_Count], _Elem());

  0003e	c6 85 2f ff ff
	ff 00		 mov	 BYTE PTR $T1[ebp], 0
  00045	8d 85 2f ff ff
	ff		 lea	 eax, DWORD PTR $T1[ebp]
  0004b	50		 push	 eax
  0004c	8b 4d 08	 mov	 ecx, DWORD PTR __New_ptr$[ebp]
  0004f	03 4d 0c	 add	 ecx, DWORD PTR __Count$[ebp]
  00052	51		 push	 ecx
  00053	e8 00 00 00 00	 call	 ?assign@?$_Narrow_char_traits@DH@std@@SAXAADABD@Z ; std::_Narrow_char_traits<char,int>::assign
  00058	83 c4 08	 add	 esp, 8

; 3259 :             },

  0005b	5f		 pop	 edi
  0005c	5e		 pop	 esi
  0005d	5b		 pop	 ebx
  0005e	81 c4 d8 00 00
	00		 add	 esp, 216		; 000000d8H
  00064	3b ec		 cmp	 ebp, esp
  00066	e8 00 00 00 00	 call	 __RTC_CheckEsp
  0006b	8b e5		 mov	 esp, ebp
  0006d	5d		 pop	 ebp
  0006e	c2 0c 00	 ret	 12			; 0000000cH
??R<lambda_9366063389c5f42a00a5088cf24e69de>@@QBE@QADIQBD@Z ENDP ; <lambda_9366063389c5f42a00a5088cf24e69de>::operator()
_TEXT	ENDS
; Function compile flags: /Odtp /RTCsu /ZI
; File C:\Program Files (x86)\Microsoft Visual Studio\2019\Community\VC\Tools\MSVC\14.29.30133\include\xmemory
;	COMDAT ??$_Destroy_in_place@PAD@std@@YAXAAPAD@Z
_TEXT	SEGMENT
__Obj$ = 8						; size = 4
??$_Destroy_in_place@PAD@std@@YAXAAPAD@Z PROC		; std::_Destroy_in_place<char *>, COMDAT

; 307  : _CONSTEXPR20_DYNALLOC void _Destroy_in_place(_Ty& _Obj) noexcept {

  00000	55		 push	 ebp
  00001	8b ec		 mov	 ebp, esp
  00003	81 ec c0 00 00
	00		 sub	 esp, 192		; 000000c0H
  00009	53		 push	 ebx
  0000a	56		 push	 esi
  0000b	57		 push	 edi
  0000c	8b fd		 mov	 edi, ebp
  0000e	33 c9		 xor	 ecx, ecx
  00010	b8 cc cc cc cc	 mov	 eax, -858993460		; ccccccccH
  00015	f3 ab		 rep stosd
  00017	b9 00 00 00 00	 mov	 ecx, OFFSET __79D216CD_xmemory
  0001c	e8 00 00 00 00	 call	 @__CheckForDebuggerJustMyCode@4

; 308  :     if constexpr (is_array_v<_Ty>) {
; 309  :         _Destroy_range(_Obj, _Obj + extent_v<_Ty>);
; 310  :     } else {
; 311  :         _Obj.~_Ty();
; 312  :     }
; 313  : }

  00021	5f		 pop	 edi
  00022	5e		 pop	 esi
  00023	5b		 pop	 ebx
  00024	81 c4 c0 00 00
	00		 add	 esp, 192		; 000000c0H
  0002a	3b ec		 cmp	 ebp, esp
  0002c	e8 00 00 00 00	 call	 __RTC_CheckEsp
  00031	8b e5		 mov	 esp, ebp
  00033	5d		 pop	 ebp
  00034	c3		 ret	 0
??$_Destroy_in_place@PAD@std@@YAXAAPAD@Z ENDP		; std::_Destroy_in_place<char *>
_TEXT	ENDS
; Function compile flags: /Odtp /RTCsu /ZI
; File C:\Program Files (x86)\Microsoft Visual Studio\2019\Community\VC\Tools\MSVC\14.29.30133\include\xstddef
;	COMDAT ??$_Unfancy@U_Container_proxy@std@@@std@@YAPAU_Container_proxy@0@PAU10@@Z
_TEXT	SEGMENT
__Ptr$ = 8						; size = 4
??$_Unfancy@U_Container_proxy@std@@@std@@YAPAU_Container_proxy@0@PAU10@@Z PROC ; std::_Unfancy<std::_Container_proxy>, COMDAT

; 288  : _NODISCARD constexpr _Ty* _Unfancy(_Ty* _Ptr) noexcept { // do nothing for plain pointers

  00000	55		 push	 ebp
  00001	8b ec		 mov	 ebp, esp
  00003	81 ec c0 00 00
	00		 sub	 esp, 192		; 000000c0H
  00009	53		 push	 ebx
  0000a	56		 push	 esi
  0000b	57		 push	 edi
  0000c	8b fd		 mov	 edi, ebp
  0000e	33 c9		 xor	 ecx, ecx
  00010	b8 cc cc cc cc	 mov	 eax, -858993460		; ccccccccH
  00015	f3 ab		 rep stosd
  00017	b9 00 00 00 00	 mov	 ecx, OFFSET __E458E21C_xstddef
  0001c	e8 00 00 00 00	 call	 @__CheckForDebuggerJustMyCode@4

; 289  :     return _Ptr;

  00021	8b 45 08	 mov	 eax, DWORD PTR __Ptr$[ebp]

; 290  : }

  00024	5f		 pop	 edi
  00025	5e		 pop	 esi
  00026	5b		 pop	 ebx
  00027	81 c4 c0 00 00
	00		 add	 esp, 192		; 000000c0H
  0002d	3b ec		 cmp	 ebp, esp
  0002f	e8 00 00 00 00	 call	 __RTC_CheckEsp
  00034	8b e5		 mov	 esp, ebp
  00036	5d		 pop	 ebp
  00037	c3		 ret	 0
??$_Unfancy@U_Container_proxy@std@@@std@@YAPAU_Container_proxy@0@PAU10@@Z ENDP ; std::_Unfancy<std::_Container_proxy>
_TEXT	ENDS
; Function compile flags: /Odtp /RTCsu /ZI
; File C:\Program Files (x86)\Microsoft Visual Studio\2019\Community\VC\Tools\MSVC\14.29.30133\include\xmemory
;	COMDAT ??$?0$$V@?$_Compressed_pair@V?$allocator@D@std@@V?$_String_val@U?$_Simple_types@D@std@@@2@$00@std@@QAE@U_Zero_then_variadic_args_t@1@@Z
_TEXT	SEGMENT
_this$ = -8						; size = 4
___formal$ = 8						; size = 1
??$?0$$V@?$_Compressed_pair@V?$allocator@D@std@@V?$_String_val@U?$_Simple_types@D@std@@@2@$00@std@@QAE@U_Zero_then_variadic_args_t@1@@Z PROC ; std::_Compressed_pair<std::allocator<char>,std::_String_val<std::_Simple_types<char> >,1>::_Compressed_pair<std::allocator<char>,std::_String_val<std::_Simple_types<char> >,1><>, COMDAT
; _this$ = ecx

; 1370 :         : _Ty1(), _Myval2(_STD forward<_Other2>(_Val2)...) {}

  00000	55		 push	 ebp
  00001	8b ec		 mov	 ebp, esp
  00003	81 ec cc 00 00
	00		 sub	 esp, 204		; 000000ccH
  00009	53		 push	 ebx
  0000a	56		 push	 esi
  0000b	57		 push	 edi
  0000c	51		 push	 ecx
  0000d	8d 7d f4	 lea	 edi, DWORD PTR [ebp-12]
  00010	b9 03 00 00 00	 mov	 ecx, 3
  00015	b8 cc cc cc cc	 mov	 eax, -858993460		; ccccccccH
  0001a	f3 ab		 rep stosd
  0001c	59		 pop	 ecx
  0001d	89 4d f8	 mov	 DWORD PTR _this$[ebp], ecx
  00020	b9 00 00 00 00	 mov	 ecx, OFFSET __79D216CD_xmemory
  00025	e8 00 00 00 00	 call	 @__CheckForDebuggerJustMyCode@4
  0002a	8b 4d f8	 mov	 ecx, DWORD PTR _this$[ebp]
  0002d	e8 00 00 00 00	 call	 ??0?$allocator@D@std@@QAE@XZ ; std::allocator<char>::allocator<char>
  00032	8b 4d f8	 mov	 ecx, DWORD PTR _this$[ebp]
  00035	e8 00 00 00 00	 call	 ??0?$_String_val@U?$_Simple_types@D@std@@@std@@QAE@XZ ; std::_String_val<std::_Simple_types<char> >::_String_val<std::_Simple_types<char> >
  0003a	8b 45 f8	 mov	 eax, DWORD PTR _this$[ebp]
  0003d	5f		 pop	 edi
  0003e	5e		 pop	 esi
  0003f	5b		 pop	 ebx
  00040	81 c4 cc 00 00
	00		 add	 esp, 204		; 000000ccH
  00046	3b ec		 cmp	 ebp, esp
  00048	e8 00 00 00 00	 call	 __RTC_CheckEsp
  0004d	8b e5		 mov	 esp, ebp
  0004f	5d		 pop	 ebp
  00050	c2 04 00	 ret	 4
??$?0$$V@?$_Compressed_pair@V?$allocator@D@std@@V?$_String_val@U?$_Simple_types@D@std@@@2@$00@std@@QAE@U_Zero_then_variadic_args_t@1@@Z ENDP ; std::_Compressed_pair<std::allocator<char>,std::_String_val<std::_Simple_types<char> >,1>::_Compressed_pair<std::allocator<char>,std::_String_val<std::_Simple_types<char> >,1><>
_TEXT	ENDS
; Function compile flags: /Odtp /RTCsu /ZI
; File C:\Program Files (x86)\Microsoft Visual Studio\2019\Community\VC\Tools\MSVC\14.29.30133\include\xmemory
;	COMDAT ??$?0D@?$allocator@U_Container_proxy@std@@@std@@QAE@ABV?$allocator@D@1@@Z
_TEXT	SEGMENT
_this$ = -8						; size = 4
___formal$ = 8						; size = 4
??$?0D@?$allocator@U_Container_proxy@std@@@std@@QAE@ABV?$allocator@D@1@@Z PROC ; std::allocator<std::_Container_proxy>::allocator<std::_Container_proxy><char>, COMDAT
; _this$ = ecx

; 829  :     constexpr allocator(const allocator<_Other>&) noexcept {}

  00000	55		 push	 ebp
  00001	8b ec		 mov	 ebp, esp
  00003	81 ec cc 00 00
	00		 sub	 esp, 204		; 000000ccH
  00009	53		 push	 ebx
  0000a	56		 push	 esi
  0000b	57		 push	 edi
  0000c	51		 push	 ecx
  0000d	8d 7d f4	 lea	 edi, DWORD PTR [ebp-12]
  00010	b9 03 00 00 00	 mov	 ecx, 3
  00015	b8 cc cc cc cc	 mov	 eax, -858993460		; ccccccccH
  0001a	f3 ab		 rep stosd
  0001c	59		 pop	 ecx
  0001d	89 4d f8	 mov	 DWORD PTR _this$[ebp], ecx
  00020	b9 00 00 00 00	 mov	 ecx, OFFSET __79D216CD_xmemory
  00025	e8 00 00 00 00	 call	 @__CheckForDebuggerJustMyCode@4
  0002a	8b 45 f8	 mov	 eax, DWORD PTR _this$[ebp]
  0002d	5f		 pop	 edi
  0002e	5e		 pop	 esi
  0002f	5b		 pop	 ebx
  00030	81 c4 cc 00 00
	00		 add	 esp, 204		; 000000ccH
  00036	3b ec		 cmp	 ebp, esp
  00038	e8 00 00 00 00	 call	 __RTC_CheckEsp
  0003d	8b e5		 mov	 esp, ebp
  0003f	5d		 pop	 ebp
  00040	c2 04 00	 ret	 4
??$?0D@?$allocator@U_Container_proxy@std@@@std@@QAE@ABV?$allocator@D@1@@Z ENDP ; std::allocator<std::_Container_proxy>::allocator<std::_Container_proxy><char>
_TEXT	ENDS
; Function compile flags: /Odtp /RTCsu /ZI
; File C:\Program Files (x86)\Microsoft Visual Studio\2019\Community\VC\Tools\MSVC\14.29.30133\include\xmemory
;	COMDAT ??1?$_Container_proxy_ptr12@V?$allocator@U_Container_proxy@std@@@std@@@std@@QAE@XZ
_TEXT	SEGMENT
_this$ = -8						; size = 4
??1?$_Container_proxy_ptr12@V?$allocator@U_Container_proxy@std@@@std@@@std@@QAE@XZ PROC ; std::_Container_proxy_ptr12<std::allocator<std::_Container_proxy> >::~_Container_proxy_ptr12<std::allocator<std::_Container_proxy> >, COMDAT
; _this$ = ecx

; 1333 :     _CONSTEXPR20_CONTAINER ~_Container_proxy_ptr12() {

  00000	55		 push	 ebp
  00001	8b ec		 mov	 ebp, esp
  00003	81 ec cc 00 00
	00		 sub	 esp, 204		; 000000ccH
  00009	53		 push	 ebx
  0000a	56		 push	 esi
  0000b	57		 push	 edi
  0000c	51		 push	 ecx
  0000d	8d 7d f4	 lea	 edi, DWORD PTR [ebp-12]
  00010	b9 03 00 00 00	 mov	 ecx, 3
  00015	b8 cc cc cc cc	 mov	 eax, -858993460		; ccccccccH
  0001a	f3 ab		 rep stosd
  0001c	59		 pop	 ecx
  0001d	89 4d f8	 mov	 DWORD PTR _this$[ebp], ecx
  00020	b9 00 00 00 00	 mov	 ecx, OFFSET __79D216CD_xmemory
  00025	e8 00 00 00 00	 call	 @__CheckForDebuggerJustMyCode@4

; 1334 :         if (_Ptr) {

  0002a	8b 45 f8	 mov	 eax, DWORD PTR _this$[ebp]
  0002d	83 38 00	 cmp	 DWORD PTR [eax], 0
  00030	74 15		 je	 SHORT $LN3@Container_

; 1335 :             _Delete_plain_internal(_Al, _Ptr);

  00032	8b 45 f8	 mov	 eax, DWORD PTR _this$[ebp]
  00035	8b 08		 mov	 ecx, DWORD PTR [eax]
  00037	51		 push	 ecx
  00038	8b 55 f8	 mov	 edx, DWORD PTR _this$[ebp]
  0003b	8b 42 04	 mov	 eax, DWORD PTR [edx+4]
  0003e	50		 push	 eax
  0003f	e8 00 00 00 00	 call	 ??$_Delete_plain_internal@V?$allocator@U_Container_proxy@std@@@std@@@std@@YAXAAV?$allocator@U_Container_proxy@std@@@0@QAU_Container_proxy@0@@Z ; std::_Delete_plain_internal<std::allocator<std::_Container_proxy> >
  00044	83 c4 08	 add	 esp, 8
$LN3@Container_:

; 1336 :         }
; 1337 :     }

  00047	5f		 pop	 edi
  00048	5e		 pop	 esi
  00049	5b		 pop	 ebx
  0004a	81 c4 cc 00 00
	00		 add	 esp, 204		; 000000ccH
  00050	3b ec		 cmp	 ebp, esp
  00052	e8 00 00 00 00	 call	 __RTC_CheckEsp
  00057	8b e5		 mov	 esp, ebp
  00059	5d		 pop	 ebp
  0005a	c3		 ret	 0
??1?$_Container_proxy_ptr12@V?$allocator@U_Container_proxy@std@@@std@@@std@@QAE@XZ ENDP ; std::_Container_proxy_ptr12<std::allocator<std::_Container_proxy> >::~_Container_proxy_ptr12<std::allocator<std::_Container_proxy> >
_TEXT	ENDS
; Function compile flags: /Odtp /RTCsu /ZI
; File C:\Program Files (x86)\Microsoft Visual Studio\2019\Community\VC\Tools\MSVC\14.29.30133\include\xmemory
;	COMDAT ??0?$_Container_proxy_ptr12@V?$allocator@U_Container_proxy@std@@@std@@@std@@QAE@AAV?$allocator@U_Container_proxy@std@@@1@AAU_Container_base12@1@@Z
_TEXT	SEGMENT
$T1 = -212						; size = 4
_this$ = -8						; size = 4
__Al_$ = 8						; size = 4
__Mycont$ = 12						; size = 4
??0?$_Container_proxy_ptr12@V?$allocator@U_Container_proxy@std@@@std@@@std@@QAE@AAV?$allocator@U_Container_proxy@std@@@1@AAU_Container_base12@1@@Z PROC ; std::_Container_proxy_ptr12<std::allocator<std::_Container_proxy> >::_Container_proxy_ptr12<std::allocator<std::_Container_proxy> >, COMDAT
; _this$ = ecx

; 1319 :     _CONSTEXPR20_CONTAINER _Container_proxy_ptr12(_Alloc& _Al_, _Container_base12& _Mycont) : _Al(_Al_) {

  00000	55		 push	 ebp
  00001	8b ec		 mov	 ebp, esp
  00003	81 ec d8 00 00
	00		 sub	 esp, 216		; 000000d8H
  00009	53		 push	 ebx
  0000a	56		 push	 esi
  0000b	57		 push	 edi
  0000c	51		 push	 ecx
  0000d	8d 7d e8	 lea	 edi, DWORD PTR [ebp-24]
  00010	b9 06 00 00 00	 mov	 ecx, 6
  00015	b8 cc cc cc cc	 mov	 eax, -858993460		; ccccccccH
  0001a	f3 ab		 rep stosd
  0001c	59		 pop	 ecx
  0001d	89 4d f8	 mov	 DWORD PTR _this$[ebp], ecx
  00020	b9 00 00 00 00	 mov	 ecx, OFFSET __79D216CD_xmemory
  00025	e8 00 00 00 00	 call	 @__CheckForDebuggerJustMyCode@4
  0002a	8b 4d f8	 mov	 ecx, DWORD PTR _this$[ebp]
  0002d	e8 00 00 00 00	 call	 ??0_Basic_container_proxy_ptr12@std@@IAE@XZ ; std::_Basic_container_proxy_ptr12::_Basic_container_proxy_ptr12
  00032	8b 45 f8	 mov	 eax, DWORD PTR _this$[ebp]
  00035	8b 4d 08	 mov	 ecx, DWORD PTR __Al_$[ebp]
  00038	89 48 04	 mov	 DWORD PTR [eax+4], ecx

; 1320 :         // create a new _Container_proxy pointing at _Mycont
; 1321 :         _Ptr = _Unfancy(_Al_.allocate(1));

  0003b	6a 01		 push	 1
  0003d	8b 4d 08	 mov	 ecx, DWORD PTR __Al_$[ebp]
  00040	e8 00 00 00 00	 call	 ?allocate@?$allocator@U_Container_proxy@std@@@std@@QAEPAU_Container_proxy@2@I@Z ; std::allocator<std::_Container_proxy>::allocate
  00045	50		 push	 eax
  00046	e8 00 00 00 00	 call	 ??$_Unfancy@U_Container_proxy@std@@@std@@YAPAU_Container_proxy@0@PAU10@@Z ; std::_Unfancy<std::_Container_proxy>
  0004b	83 c4 04	 add	 esp, 4
  0004e	8b 4d f8	 mov	 ecx, DWORD PTR _this$[ebp]
  00051	89 01		 mov	 DWORD PTR [ecx], eax

; 1322 :         _Construct_in_place(*_Ptr, _STD addressof(_Mycont));

  00053	8b 45 0c	 mov	 eax, DWORD PTR __Mycont$[ebp]
  00056	50		 push	 eax
  00057	e8 00 00 00 00	 call	 ??$addressof@U_Container_base12@std@@@std@@YAPAU_Container_base12@0@AAU10@@Z ; std::addressof<std::_Container_base12>
  0005c	83 c4 04	 add	 esp, 4
  0005f	89 85 2c ff ff
	ff		 mov	 DWORD PTR $T1[ebp], eax
  00065	8d 8d 2c ff ff
	ff		 lea	 ecx, DWORD PTR $T1[ebp]
  0006b	51		 push	 ecx
  0006c	8b 55 f8	 mov	 edx, DWORD PTR _this$[ebp]
  0006f	8b 02		 mov	 eax, DWORD PTR [edx]
  00071	50		 push	 eax
  00072	e8 00 00 00 00	 call	 ??$_Construct_in_place@U_Container_proxy@std@@PAU_Container_base12@2@@std@@YAXAAU_Container_proxy@0@$$QAPAU_Container_base12@0@@Z ; std::_Construct_in_place<std::_Container_proxy,std::_Container_base12 *>
  00077	83 c4 08	 add	 esp, 8

; 1323 :         _Mycont._Myproxy = _Ptr;

  0007a	8b 45 0c	 mov	 eax, DWORD PTR __Mycont$[ebp]
  0007d	8b 4d f8	 mov	 ecx, DWORD PTR _this$[ebp]
  00080	8b 11		 mov	 edx, DWORD PTR [ecx]
  00082	89 10		 mov	 DWORD PTR [eax], edx

; 1324 :     }

  00084	8b 45 f8	 mov	 eax, DWORD PTR _this$[ebp]
  00087	5f		 pop	 edi
  00088	5e		 pop	 esi
  00089	5b		 pop	 ebx
  0008a	81 c4 d8 00 00
	00		 add	 esp, 216		; 000000d8H
  00090	3b ec		 cmp	 ebp, esp
  00092	e8 00 00 00 00	 call	 __RTC_CheckEsp
  00097	8b e5		 mov	 esp, ebp
  00099	5d		 pop	 ebp
  0009a	c2 08 00	 ret	 8
??0?$_Container_proxy_ptr12@V?$allocator@U_Container_proxy@std@@@std@@@std@@QAE@AAV?$allocator@U_Container_proxy@std@@@1@AAU_Container_base12@1@@Z ENDP ; std::_Container_proxy_ptr12<std::allocator<std::_Container_proxy> >::_Container_proxy_ptr12<std::allocator<std::_Container_proxy> >
_TEXT	ENDS
; Function compile flags: /Odtp /RTCsu /ZI
; File C:\Program Files (x86)\Microsoft Visual Studio\2019\Community\VC\Tools\MSVC\14.29.30133\include\xmemory
;	COMDAT ??$_Delete_plain_internal@V?$allocator@U_Container_proxy@std@@@std@@@std@@YAXAAV?$allocator@U_Container_proxy@std@@@0@QAU_Container_proxy@0@@Z
_TEXT	SEGMENT
__Al$ = 8						; size = 4
__Ptr$ = 12						; size = 4
??$_Delete_plain_internal@V?$allocator@U_Container_proxy@std@@@std@@@std@@YAXAAV?$allocator@U_Container_proxy@std@@@0@QAU_Container_proxy@0@@Z PROC ; std::_Delete_plain_internal<std::allocator<std::_Container_proxy> >, COMDAT

; 998  : _CONSTEXPR20_DYNALLOC void _Delete_plain_internal(_Alloc& _Al, typename _Alloc::value_type* const _Ptr) noexcept {

  00000	55		 push	 ebp
  00001	8b ec		 mov	 ebp, esp
  00003	81 ec c0 00 00
	00		 sub	 esp, 192		; 000000c0H
  00009	53		 push	 ebx
  0000a	56		 push	 esi
  0000b	57		 push	 edi
  0000c	8b fd		 mov	 edi, ebp
  0000e	33 c9		 xor	 ecx, ecx
  00010	b8 cc cc cc cc	 mov	 eax, -858993460		; ccccccccH
  00015	f3 ab		 rep stosd
  00017	b9 00 00 00 00	 mov	 ecx, OFFSET __79D216CD_xmemory
  0001c	e8 00 00 00 00	 call	 @__CheckForDebuggerJustMyCode@4

; 999  :     // destroy *_Ptr in place, then deallocate _Ptr using _Al; used for internal container types the user didn't name
; 1000 :     using _Ty = typename _Alloc::value_type;
; 1001 :     _Ptr->~_Ty();
; 1002 :     _Deallocate_plain(_Al, _Ptr);

  00021	8b 45 0c	 mov	 eax, DWORD PTR __Ptr$[ebp]
  00024	50		 push	 eax
  00025	8b 4d 08	 mov	 ecx, DWORD PTR __Al$[ebp]
  00028	51		 push	 ecx
  00029	e8 00 00 00 00	 call	 ??$_Deallocate_plain@V?$allocator@U_Container_proxy@std@@@std@@@std@@YAXAAV?$allocator@U_Container_proxy@std@@@0@QAU_Container_proxy@0@@Z ; std::_Deallocate_plain<std::allocator<std::_Container_proxy> >
  0002e	83 c4 08	 add	 esp, 8

; 1003 : }

  00031	5f		 pop	 edi
  00032	5e		 pop	 esi
  00033	5b		 pop	 ebx
  00034	81 c4 c0 00 00
	00		 add	 esp, 192		; 000000c0H
  0003a	3b ec		 cmp	 ebp, esp
  0003c	e8 00 00 00 00	 call	 __RTC_CheckEsp
  00041	8b e5		 mov	 esp, ebp
  00043	5d		 pop	 ebp
  00044	c3		 ret	 0
??$_Delete_plain_internal@V?$allocator@U_Container_proxy@std@@@std@@@std@@YAXAAV?$allocator@U_Container_proxy@std@@@0@QAU_Container_proxy@0@@Z ENDP ; std::_Delete_plain_internal<std::allocator<std::_Container_proxy> >
_TEXT	ENDS
; Function compile flags: /Odtp /RTCsu /ZI
; File C:\Program Files (x86)\Microsoft Visual Studio\2019\Community\VC\Tools\MSVC\14.29.30133\include\xmemory
;	COMDAT ?allocate@?$allocator@U_Container_proxy@std@@@std@@QAEPAU_Container_proxy@2@I@Z
_TEXT	SEGMENT
_this$ = -8						; size = 4
__Count$ = 8						; size = 4
?allocate@?$allocator@U_Container_proxy@std@@@std@@QAEPAU_Container_proxy@2@I@Z PROC ; std::allocator<std::_Container_proxy>::allocate, COMDAT
; _this$ = ecx

; 838  :     _NODISCARD _CONSTEXPR20_DYNALLOC __declspec(allocator) _Ty* allocate(_CRT_GUARDOVERFLOW const size_t _Count) {

  00000	55		 push	 ebp
  00001	8b ec		 mov	 ebp, esp
  00003	81 ec cc 00 00
	00		 sub	 esp, 204		; 000000ccH
  00009	53		 push	 ebx
  0000a	56		 push	 esi
  0000b	57		 push	 edi
  0000c	51		 push	 ecx
  0000d	8d 7d f4	 lea	 edi, DWORD PTR [ebp-12]
  00010	b9 03 00 00 00	 mov	 ecx, 3
  00015	b8 cc cc cc cc	 mov	 eax, -858993460		; ccccccccH
  0001a	f3 ab		 rep stosd
  0001c	59		 pop	 ecx
  0001d	89 4d f8	 mov	 DWORD PTR _this$[ebp], ecx
  00020	b9 00 00 00 00	 mov	 ecx, OFFSET __79D216CD_xmemory
  00025	e8 00 00 00 00	 call	 @__CheckForDebuggerJustMyCode@4

; 839  :         return static_cast<_Ty*>(_Allocate<_New_alignof<_Ty>>(_Get_size_of_n<sizeof(_Ty)>(_Count)));

  0002a	8b 45 08	 mov	 eax, DWORD PTR __Count$[ebp]
  0002d	50		 push	 eax
  0002e	e8 00 00 00 00	 call	 ??$_Get_size_of_n@$07@std@@YAII@Z ; std::_Get_size_of_n<8>
  00033	83 c4 04	 add	 esp, 4
  00036	50		 push	 eax
  00037	e8 00 00 00 00	 call	 ??$_Allocate@$07U_Default_allocate_traits@std@@$0A@@std@@YAPAXI@Z ; std::_Allocate<8,std::_Default_allocate_traits,0>
  0003c	83 c4 04	 add	 esp, 4

; 840  :     }

  0003f	5f		 pop	 edi
  00040	5e		 pop	 esi
  00041	5b		 pop	 ebx
  00042	81 c4 cc 00 00
	00		 add	 esp, 204		; 000000ccH
  00048	3b ec		 cmp	 ebp, esp
  0004a	e8 00 00 00 00	 call	 __RTC_CheckEsp
  0004f	8b e5		 mov	 esp, ebp
  00051	5d		 pop	 ebp
  00052	c2 04 00	 ret	 4
?allocate@?$allocator@U_Container_proxy@std@@@std@@QAEPAU_Container_proxy@2@I@Z ENDP ; std::allocator<std::_Container_proxy>::allocate
_TEXT	ENDS
; Function compile flags: /Odtp /RTCsu /ZI
; File C:\Program Files (x86)\Microsoft Visual Studio\2019\Community\VC\Tools\MSVC\14.29.30133\include\utility
;	COMDAT ??$min@I@std@@YAABIABI0@Z
_TEXT	SEGMENT
tv65 = -208						; size = 4
$T1 = -200						; size = 4
__Left$ = 8						; size = 4
__Right$ = 12						; size = 4
??$min@I@std@@YAABIABI0@Z PROC				; std::min<unsigned int>, COMDAT

; 66   :     const _Ty& _Left, const _Ty& _Right) noexcept(noexcept(_Right < _Left)) /* strengthened */ {

  00000	55		 push	 ebp
  00001	8b ec		 mov	 ebp, esp
  00003	81 ec d0 00 00
	00		 sub	 esp, 208		; 000000d0H
  00009	53		 push	 ebx
  0000a	56		 push	 esi
  0000b	57		 push	 edi
  0000c	8d 7d f0	 lea	 edi, DWORD PTR [ebp-16]
  0000f	b9 04 00 00 00	 mov	 ecx, 4
  00014	b8 cc cc cc cc	 mov	 eax, -858993460		; ccccccccH
  00019	f3 ab		 rep stosd
  0001b	b9 00 00 00 00	 mov	 ecx, OFFSET __1347750E_utility
  00020	e8 00 00 00 00	 call	 @__CheckForDebuggerJustMyCode@4

; 67   :     // return smaller of _Left and _Right
; 68   :     return _Right < _Left ? _Right : _Left;

  00025	8b 45 0c	 mov	 eax, DWORD PTR __Right$[ebp]
  00028	8b 4d 08	 mov	 ecx, DWORD PTR __Left$[ebp]
  0002b	8b 10		 mov	 edx, DWORD PTR [eax]
  0002d	3b 11		 cmp	 edx, DWORD PTR [ecx]
  0002f	73 0b		 jae	 SHORT $LN3@min
  00031	8b 45 0c	 mov	 eax, DWORD PTR __Right$[ebp]
  00034	89 85 30 ff ff
	ff		 mov	 DWORD PTR tv65[ebp], eax
  0003a	eb 09		 jmp	 SHORT $LN4@min
$LN3@min:
  0003c	8b 4d 08	 mov	 ecx, DWORD PTR __Left$[ebp]
  0003f	89 8d 30 ff ff
	ff		 mov	 DWORD PTR tv65[ebp], ecx
$LN4@min:
  00045	8b 95 30 ff ff
	ff		 mov	 edx, DWORD PTR tv65[ebp]
  0004b	89 95 38 ff ff
	ff		 mov	 DWORD PTR $T1[ebp], edx
  00051	8b 85 38 ff ff
	ff		 mov	 eax, DWORD PTR $T1[ebp]

; 69   : }

  00057	5f		 pop	 edi
  00058	5e		 pop	 esi
  00059	5b		 pop	 ebx
  0005a	81 c4 d0 00 00
	00		 add	 esp, 208		; 000000d0H
  00060	3b ec		 cmp	 ebp, esp
  00062	e8 00 00 00 00	 call	 __RTC_CheckEsp
  00067	8b e5		 mov	 esp, ebp
  00069	5d		 pop	 ebp
  0006a	c3		 ret	 0
??$min@I@std@@YAABIABI0@Z ENDP				; std::min<unsigned int>
_TEXT	ENDS
; Function compile flags: /Odtp /RTCsu /ZI
; File C:\Program Files (x86)\Microsoft Visual Studio\2019\Community\VC\Tools\MSVC\14.29.30133\include\ostream
;	COMDAT ??Bsentry@?$basic_ostream@DU?$char_traits@D@std@@@std@@QBE_NXZ
_TEXT	SEGMENT
_this$ = -8						; size = 4
??Bsentry@?$basic_ostream@DU?$char_traits@D@std@@@std@@QBE_NXZ PROC ; std::basic_ostream<char,std::char_traits<char> >::sentry::operator bool, COMDAT
; _this$ = ecx

; 124  :         explicit __CLR_OR_THIS_CALL operator bool() const {

  00000	55		 push	 ebp
  00001	8b ec		 mov	 ebp, esp
  00003	81 ec cc 00 00
	00		 sub	 esp, 204		; 000000ccH
  00009	53		 push	 ebx
  0000a	56		 push	 esi
  0000b	57		 push	 edi
  0000c	51		 push	 ecx
  0000d	8d 7d f4	 lea	 edi, DWORD PTR [ebp-12]
  00010	b9 03 00 00 00	 mov	 ecx, 3
  00015	b8 cc cc cc cc	 mov	 eax, -858993460		; ccccccccH
  0001a	f3 ab		 rep stosd
  0001c	59		 pop	 ecx
  0001d	89 4d f8	 mov	 DWORD PTR _this$[ebp], ecx
  00020	b9 00 00 00 00	 mov	 ecx, OFFSET __C12F3EA4_ostream
  00025	e8 00 00 00 00	 call	 @__CheckForDebuggerJustMyCode@4

; 125  :             return _Ok;

  0002a	8b 45 f8	 mov	 eax, DWORD PTR _this$[ebp]
  0002d	8a 40 04	 mov	 al, BYTE PTR [eax+4]

; 126  :         }

  00030	5f		 pop	 edi
  00031	5e		 pop	 esi
  00032	5b		 pop	 ebx
  00033	81 c4 cc 00 00
	00		 add	 esp, 204		; 000000ccH
  00039	3b ec		 cmp	 ebp, esp
  0003b	e8 00 00 00 00	 call	 __RTC_CheckEsp
  00040	8b e5		 mov	 esp, ebp
  00042	5d		 pop	 ebp
  00043	c3		 ret	 0
??Bsentry@?$basic_ostream@DU?$char_traits@D@std@@@std@@QBE_NXZ ENDP ; std::basic_ostream<char,std::char_traits<char> >::sentry::operator bool
_TEXT	ENDS
; Function compile flags: /Odtp /RTCsu /ZI
; File C:\Program Files (x86)\Microsoft Visual Studio\2019\Community\VC\Tools\MSVC\14.29.30133\include\ostream
;	COMDAT ??1sentry@?$basic_ostream@DU?$char_traits@D@std@@@std@@QAE@XZ
_TEXT	SEGMENT
tv72 = -229						; size = 1
__Zero_uncaught_exceptions$ = -29			; size = 1
_this$ = -20						; size = 4
__$EHRec$ = -12						; size = 12
??1sentry@?$basic_ostream@DU?$char_traits@D@std@@@std@@QAE@XZ PROC ; std::basic_ostream<char,std::char_traits<char> >::sentry::~sentry, COMDAT
; _this$ = ecx

; 109  :         __CLR_OR_THIS_CALL ~sentry() noexcept {

  00000	55		 push	 ebp
  00001	8b ec		 mov	 ebp, esp
  00003	6a ff		 push	 -1
  00005	68 00 00 00 00	 push	 __ehhandler$??1sentry@?$basic_ostream@DU?$char_traits@D@std@@@std@@QAE@XZ
  0000a	64 a1 00 00 00
	00		 mov	 eax, DWORD PTR fs:0
  00010	50		 push	 eax
  00011	81 ec dc 00 00
	00		 sub	 esp, 220		; 000000dcH
  00017	53		 push	 ebx
  00018	56		 push	 esi
  00019	57		 push	 edi
  0001a	51		 push	 ecx
  0001b	8d 7d d8	 lea	 edi, DWORD PTR [ebp-40]
  0001e	b9 07 00 00 00	 mov	 ecx, 7
  00023	b8 cc cc cc cc	 mov	 eax, -858993460		; ccccccccH
  00028	f3 ab		 rep stosd
  0002a	59		 pop	 ecx
  0002b	a1 00 00 00 00	 mov	 eax, DWORD PTR ___security_cookie
  00030	33 c5		 xor	 eax, ebp
  00032	50		 push	 eax
  00033	8d 45 f4	 lea	 eax, DWORD PTR __$EHRec$[ebp]
  00036	64 a3 00 00 00
	00		 mov	 DWORD PTR fs:0, eax
  0003c	89 4d ec	 mov	 DWORD PTR _this$[ebp], ecx
  0003f	b9 00 00 00 00	 mov	 ecx, OFFSET __C12F3EA4_ostream
  00044	e8 00 00 00 00	 call	 @__CheckForDebuggerJustMyCode@4

; 110  : #if !_HAS_EXCEPTIONS
; 111  :             const bool _Zero_uncaught_exceptions = true;
; 112  : #elif _HAS_DEPRECATED_UNCAUGHT_EXCEPTION
; 113  :             const bool _Zero_uncaught_exceptions = !_STD uncaught_exception(); // TRANSITION, ArchivedOS-12000909

  00049	e8 00 00 00 00	 call	 ?uncaught_exception@std@@YA_NXZ ; std::uncaught_exception
  0004e	0f b6 c0	 movzx	 eax, al
  00051	85 c0		 test	 eax, eax
  00053	75 09		 jne	 SHORT $LN4@sentry
  00055	c6 85 1b ff ff
	ff 01		 mov	 BYTE PTR tv72[ebp], 1
  0005c	eb 07		 jmp	 SHORT $LN5@sentry
$LN4@sentry:
  0005e	c6 85 1b ff ff
	ff 00		 mov	 BYTE PTR tv72[ebp], 0
$LN5@sentry:
  00065	8a 8d 1b ff ff
	ff		 mov	 cl, BYTE PTR tv72[ebp]
  0006b	88 4d e3	 mov	 BYTE PTR __Zero_uncaught_exceptions$[ebp], cl

; 114  : #else // ^^^ _HAS_DEPRECATED_UNCAUGHT_EXCEPTION / !_HAS_DEPRECATED_UNCAUGHT_EXCEPTION vvv
; 115  :             const bool _Zero_uncaught_exceptions = _STD uncaught_exceptions() == 0;
; 116  : #endif // !_HAS_DEPRECATED_UNCAUGHT_EXCEPTION
; 117  : 
; 118  :             if (_Zero_uncaught_exceptions) {

  0006e	0f b6 45 e3	 movzx	 eax, BYTE PTR __Zero_uncaught_exceptions$[ebp]
  00072	85 c0		 test	 eax, eax
  00074	74 14		 je	 SHORT $LN1@sentry

; 119  :                 this->_Myostr._Osfx();

  00076	8b f4		 mov	 esi, esp
  00078	8b 45 ec	 mov	 eax, DWORD PTR _this$[ebp]
  0007b	8b 08		 mov	 ecx, DWORD PTR [eax]
  0007d	ff 15 00 00 00
	00		 call	 DWORD PTR __imp_?_Osfx@?$basic_ostream@DU?$char_traits@D@std@@@std@@QAEXXZ
  00083	3b f4		 cmp	 esi, esp
  00085	e8 00 00 00 00	 call	 __RTC_CheckEsp
$LN1@sentry:

; 120  :             }
; 121  :         }

  0008a	8b 4d ec	 mov	 ecx, DWORD PTR _this$[ebp]
  0008d	e8 00 00 00 00	 call	 ??1_Sentry_base@?$basic_ostream@DU?$char_traits@D@std@@@std@@QAE@XZ ; std::basic_ostream<char,std::char_traits<char> >::_Sentry_base::~_Sentry_base
  00092	8b 4d f4	 mov	 ecx, DWORD PTR __$EHRec$[ebp]
  00095	64 89 0d 00 00
	00 00		 mov	 DWORD PTR fs:0, ecx
  0009c	59		 pop	 ecx
  0009d	5f		 pop	 edi
  0009e	5e		 pop	 esi
  0009f	5b		 pop	 ebx
  000a0	81 c4 e8 00 00
	00		 add	 esp, 232		; 000000e8H
  000a6	3b ec		 cmp	 ebp, esp
  000a8	e8 00 00 00 00	 call	 __RTC_CheckEsp
  000ad	8b e5		 mov	 esp, ebp
  000af	5d		 pop	 ebp
  000b0	c3		 ret	 0
  000b1	cc		 int	 3
  000b2	cc		 int	 3
  000b3	cc		 int	 3
  000b4	cc		 int	 3
  000b5	cc		 int	 3
_TEXT	ENDS
;	COMDAT text$x
text$x	SEGMENT
__ehhandler$??1sentry@?$basic_ostream@DU?$char_traits@D@std@@@std@@QAE@XZ:
  00000	90		 npad	 1
  00001	90		 npad	 1
  00002	8b 54 24 08	 mov	 edx, DWORD PTR [esp+8]
  00006	8d 42 0c	 lea	 eax, DWORD PTR [edx+12]
  00009	8b 8a 14 ff ff
	ff		 mov	 ecx, DWORD PTR [edx-236]
  0000f	33 c8		 xor	 ecx, eax
  00011	e8 00 00 00 00	 call	 @__security_check_cookie@4
  00016	b8 00 00 00 00	 mov	 eax, OFFSET __ehfuncinfo$??1sentry@?$basic_ostream@DU?$char_traits@D@std@@@std@@QAE@XZ
  0001b	e9 00 00 00 00	 jmp	 ___CxxFrameHandler3
text$x	ENDS
??1sentry@?$basic_ostream@DU?$char_traits@D@std@@@std@@QAE@XZ ENDP ; std::basic_ostream<char,std::char_traits<char> >::sentry::~sentry
; Function compile flags: /Odtp /RTCsu /ZI
; File C:\Program Files (x86)\Microsoft Visual Studio\2019\Community\VC\Tools\MSVC\14.29.30133\include\ostream
;	COMDAT ??0sentry@?$basic_ostream@DU?$char_traits@D@std@@@std@@QAE@AAV12@@Z
_TEXT	SEGMENT
__Tied$ = -32						; size = 4
_this$ = -20						; size = 4
__$EHRec$ = -12						; size = 12
__Ostr$ = 8						; size = 4
??0sentry@?$basic_ostream@DU?$char_traits@D@std@@@std@@QAE@AAV12@@Z PROC ; std::basic_ostream<char,std::char_traits<char> >::sentry::sentry, COMDAT
; _this$ = ecx

; 92   :         explicit __CLR_OR_THIS_CALL sentry(basic_ostream& _Ostr) : _Sentry_base(_Ostr) {

  00000	55		 push	 ebp
  00001	8b ec		 mov	 ebp, esp
  00003	6a ff		 push	 -1
  00005	68 00 00 00 00	 push	 __ehhandler$??0sentry@?$basic_ostream@DU?$char_traits@D@std@@@std@@QAE@AAV12@@Z
  0000a	64 a1 00 00 00
	00		 mov	 eax, DWORD PTR fs:0
  00010	50		 push	 eax
  00011	81 ec d8 00 00
	00		 sub	 esp, 216		; 000000d8H
  00017	53		 push	 ebx
  00018	56		 push	 esi
  00019	57		 push	 edi
  0001a	51		 push	 ecx
  0001b	8d 7d dc	 lea	 edi, DWORD PTR [ebp-36]
  0001e	b9 06 00 00 00	 mov	 ecx, 6
  00023	b8 cc cc cc cc	 mov	 eax, -858993460		; ccccccccH
  00028	f3 ab		 rep stosd
  0002a	59		 pop	 ecx
  0002b	a1 00 00 00 00	 mov	 eax, DWORD PTR ___security_cookie
  00030	33 c5		 xor	 eax, ebp
  00032	50		 push	 eax
  00033	8d 45 f4	 lea	 eax, DWORD PTR __$EHRec$[ebp]
  00036	64 a3 00 00 00
	00		 mov	 DWORD PTR fs:0, eax
  0003c	89 4d ec	 mov	 DWORD PTR _this$[ebp], ecx
  0003f	b9 00 00 00 00	 mov	 ecx, OFFSET __C12F3EA4_ostream
  00044	e8 00 00 00 00	 call	 @__CheckForDebuggerJustMyCode@4
  00049	8b 45 08	 mov	 eax, DWORD PTR __Ostr$[ebp]
  0004c	50		 push	 eax
  0004d	8b 4d ec	 mov	 ecx, DWORD PTR _this$[ebp]
  00050	e8 00 00 00 00	 call	 ??0_Sentry_base@?$basic_ostream@DU?$char_traits@D@std@@@std@@QAE@AAV12@@Z ; std::basic_ostream<char,std::char_traits<char> >::_Sentry_base::_Sentry_base
  00055	c7 45 fc 00 00
	00 00		 mov	 DWORD PTR __$EHRec$[ebp+8], 0

; 93   :             if (!_Ostr.good()) {

  0005c	8b 45 08	 mov	 eax, DWORD PTR __Ostr$[ebp]
  0005f	8b 08		 mov	 ecx, DWORD PTR [eax]
  00061	8b 55 08	 mov	 edx, DWORD PTR __Ostr$[ebp]
  00064	03 51 04	 add	 edx, DWORD PTR [ecx+4]
  00067	8b f4		 mov	 esi, esp
  00069	8b ca		 mov	 ecx, edx
  0006b	ff 15 00 00 00
	00		 call	 DWORD PTR __imp_?good@ios_base@std@@QBE_NXZ
  00071	3b f4		 cmp	 esi, esp
  00073	e8 00 00 00 00	 call	 __RTC_CheckEsp
  00078	0f b6 c0	 movzx	 eax, al
  0007b	85 c0		 test	 eax, eax
  0007d	75 09		 jne	 SHORT $LN2@sentry

; 94   :                 _Ok = false;

  0007f	8b 45 ec	 mov	 eax, DWORD PTR _this$[ebp]
  00082	c6 40 04 00	 mov	 BYTE PTR [eax+4], 0

; 95   :                 return;

  00086	eb 6a		 jmp	 SHORT $LN1@sentry
$LN2@sentry:

; 96   :             }
; 97   : 
; 98   :             const auto _Tied = _Ostr.tie();

  00088	8b 45 08	 mov	 eax, DWORD PTR __Ostr$[ebp]
  0008b	8b 08		 mov	 ecx, DWORD PTR [eax]
  0008d	8b 55 08	 mov	 edx, DWORD PTR __Ostr$[ebp]
  00090	03 51 04	 add	 edx, DWORD PTR [ecx+4]
  00093	8b f4		 mov	 esi, esp
  00095	8b ca		 mov	 ecx, edx
  00097	ff 15 00 00 00
	00		 call	 DWORD PTR __imp_?tie@?$basic_ios@DU?$char_traits@D@std@@@std@@QBEPAV?$basic_ostream@DU?$char_traits@D@std@@@2@XZ
  0009d	3b f4		 cmp	 esi, esp
  0009f	e8 00 00 00 00	 call	 __RTC_CheckEsp
  000a4	89 45 e0	 mov	 DWORD PTR __Tied$[ebp], eax

; 99   :             if (!_Tied || _Tied == &_Ostr) {

  000a7	83 7d e0 00	 cmp	 DWORD PTR __Tied$[ebp], 0
  000ab	74 08		 je	 SHORT $LN4@sentry
  000ad	8b 45 e0	 mov	 eax, DWORD PTR __Tied$[ebp]
  000b0	3b 45 08	 cmp	 eax, DWORD PTR __Ostr$[ebp]
  000b3	75 09		 jne	 SHORT $LN3@sentry
$LN4@sentry:

; 100  :                 _Ok = true;

  000b5	8b 45 ec	 mov	 eax, DWORD PTR _this$[ebp]
  000b8	c6 40 04 01	 mov	 BYTE PTR [eax+4], 1

; 101  :                 return;

  000bc	eb 34		 jmp	 SHORT $LN1@sentry
$LN3@sentry:

; 102  :             }
; 103  : 
; 104  :             _Tied->flush();

  000be	8b f4		 mov	 esi, esp
  000c0	8b 4d e0	 mov	 ecx, DWORD PTR __Tied$[ebp]
  000c3	ff 15 00 00 00
	00		 call	 DWORD PTR __imp_?flush@?$basic_ostream@DU?$char_traits@D@std@@@std@@QAEAAV12@XZ
  000c9	3b f4		 cmp	 esi, esp
  000cb	e8 00 00 00 00	 call	 __RTC_CheckEsp

; 105  :             _Ok = _Ostr.good(); // store test only after flushing tie

  000d0	8b 45 08	 mov	 eax, DWORD PTR __Ostr$[ebp]
  000d3	8b 08		 mov	 ecx, DWORD PTR [eax]
  000d5	8b 55 08	 mov	 edx, DWORD PTR __Ostr$[ebp]
  000d8	03 51 04	 add	 edx, DWORD PTR [ecx+4]
  000db	8b f4		 mov	 esi, esp
  000dd	8b ca		 mov	 ecx, edx
  000df	ff 15 00 00 00
	00		 call	 DWORD PTR __imp_?good@ios_base@std@@QBE_NXZ
  000e5	3b f4		 cmp	 esi, esp
  000e7	e8 00 00 00 00	 call	 __RTC_CheckEsp
  000ec	8b 4d ec	 mov	 ecx, DWORD PTR _this$[ebp]
  000ef	88 41 04	 mov	 BYTE PTR [ecx+4], al
$LN1@sentry:

; 106  :         }

  000f2	c7 45 fc ff ff
	ff ff		 mov	 DWORD PTR __$EHRec$[ebp+8], -1
  000f9	8b 45 ec	 mov	 eax, DWORD PTR _this$[ebp]
  000fc	8b 4d f4	 mov	 ecx, DWORD PTR __$EHRec$[ebp]
  000ff	64 89 0d 00 00
	00 00		 mov	 DWORD PTR fs:0, ecx
  00106	59		 pop	 ecx
  00107	5f		 pop	 edi
  00108	5e		 pop	 esi
  00109	5b		 pop	 ebx
  0010a	81 c4 e4 00 00
	00		 add	 esp, 228		; 000000e4H
  00110	3b ec		 cmp	 ebp, esp
  00112	e8 00 00 00 00	 call	 __RTC_CheckEsp
  00117	8b e5		 mov	 esp, ebp
  00119	5d		 pop	 ebp
  0011a	c2 04 00	 ret	 4
_TEXT	ENDS
;	COMDAT text$x
text$x	SEGMENT
__unwindfunclet$??0sentry@?$basic_ostream@DU?$char_traits@D@std@@@std@@QAE@AAV12@@Z$0:
  00000	8b 4d ec	 mov	 ecx, DWORD PTR _this$[ebp]
  00003	e9 00 00 00 00	 jmp	 ??1_Sentry_base@?$basic_ostream@DU?$char_traits@D@std@@@std@@QAE@XZ ; std::basic_ostream<char,std::char_traits<char> >::_Sentry_base::~_Sentry_base
  00008	cc		 int	 3
  00009	cc		 int	 3
  0000a	cc		 int	 3
  0000b	cc		 int	 3
  0000c	cc		 int	 3
__ehhandler$??0sentry@?$basic_ostream@DU?$char_traits@D@std@@@std@@QAE@AAV12@@Z:
  0000d	90		 npad	 1
  0000e	90		 npad	 1
  0000f	8b 54 24 08	 mov	 edx, DWORD PTR [esp+8]
  00013	8d 42 0c	 lea	 eax, DWORD PTR [edx+12]
  00016	8b 8a 18 ff ff
	ff		 mov	 ecx, DWORD PTR [edx-232]
  0001c	33 c8		 xor	 ecx, eax
  0001e	e8 00 00 00 00	 call	 @__security_check_cookie@4
  00023	b8 00 00 00 00	 mov	 eax, OFFSET __ehfuncinfo$??0sentry@?$basic_ostream@DU?$char_traits@D@std@@@std@@QAE@AAV12@@Z
  00028	e9 00 00 00 00	 jmp	 ___CxxFrameHandler3
text$x	ENDS
??0sentry@?$basic_ostream@DU?$char_traits@D@std@@@std@@QAE@AAV12@@Z ENDP ; std::basic_ostream<char,std::char_traits<char> >::sentry::sentry
; Function compile flags: /Odtp /RTCsu /ZI
; File C:\Program Files (x86)\Microsoft Visual Studio\2019\Community\VC\Tools\MSVC\14.29.30133\include\ostream
;	COMDAT ??1_Sentry_base@?$basic_ostream@DU?$char_traits@D@std@@@std@@QAE@XZ
_TEXT	SEGMENT
tv72 = -232						; size = 4
__Rdbuf$ = -32						; size = 4
_this$ = -20						; size = 4
__$EHRec$ = -12						; size = 12
??1_Sentry_base@?$basic_ostream@DU?$char_traits@D@std@@@std@@QAE@XZ PROC ; std::basic_ostream<char,std::char_traits<char> >::_Sentry_base::~_Sentry_base, COMDAT
; _this$ = ecx

; 78   :         __CLR_OR_THIS_CALL ~_Sentry_base() noexcept { // destroy after unlocking

  00000	55		 push	 ebp
  00001	8b ec		 mov	 ebp, esp
  00003	6a ff		 push	 -1
  00005	68 00 00 00 00	 push	 __ehhandler$??1_Sentry_base@?$basic_ostream@DU?$char_traits@D@std@@@std@@QAE@XZ
  0000a	64 a1 00 00 00
	00		 mov	 eax, DWORD PTR fs:0
  00010	50		 push	 eax
  00011	81 ec dc 00 00
	00		 sub	 esp, 220		; 000000dcH
  00017	53		 push	 ebx
  00018	56		 push	 esi
  00019	57		 push	 edi
  0001a	51		 push	 ecx
  0001b	8d 7d d8	 lea	 edi, DWORD PTR [ebp-40]
  0001e	b9 07 00 00 00	 mov	 ecx, 7
  00023	b8 cc cc cc cc	 mov	 eax, -858993460		; ccccccccH
  00028	f3 ab		 rep stosd
  0002a	59		 pop	 ecx
  0002b	a1 00 00 00 00	 mov	 eax, DWORD PTR ___security_cookie
  00030	33 c5		 xor	 eax, ebp
  00032	50		 push	 eax
  00033	8d 45 f4	 lea	 eax, DWORD PTR __$EHRec$[ebp]
  00036	64 a3 00 00 00
	00		 mov	 DWORD PTR fs:0, eax
  0003c	89 4d ec	 mov	 DWORD PTR _this$[ebp], ecx
  0003f	b9 00 00 00 00	 mov	 ecx, OFFSET __C12F3EA4_ostream
  00044	e8 00 00 00 00	 call	 @__CheckForDebuggerJustMyCode@4

; 79   :             const auto _Rdbuf = _Myostr.rdbuf();

  00049	8b 45 ec	 mov	 eax, DWORD PTR _this$[ebp]
  0004c	8b 08		 mov	 ecx, DWORD PTR [eax]
  0004e	89 8d 18 ff ff
	ff		 mov	 DWORD PTR tv72[ebp], ecx
  00054	8b 95 18 ff ff
	ff		 mov	 edx, DWORD PTR tv72[ebp]
  0005a	8b 02		 mov	 eax, DWORD PTR [edx]
  0005c	8b 8d 18 ff ff
	ff		 mov	 ecx, DWORD PTR tv72[ebp]
  00062	03 48 04	 add	 ecx, DWORD PTR [eax+4]
  00065	8b f4		 mov	 esi, esp
  00067	ff 15 00 00 00
	00		 call	 DWORD PTR __imp_?rdbuf@?$basic_ios@DU?$char_traits@D@std@@@std@@QBEPAV?$basic_streambuf@DU?$char_traits@D@std@@@2@XZ
  0006d	3b f4		 cmp	 esi, esp
  0006f	e8 00 00 00 00	 call	 __RTC_CheckEsp
  00074	89 45 e0	 mov	 DWORD PTR __Rdbuf$[ebp], eax

; 80   :             if (_Rdbuf) {

  00077	83 7d e0 00	 cmp	 DWORD PTR __Rdbuf$[ebp], 0
  0007b	74 16		 je	 SHORT $LN3@Sentry_bas

; 81   :                 _Rdbuf->_Unlock();

  0007d	8b 45 e0	 mov	 eax, DWORD PTR __Rdbuf$[ebp]
  00080	8b 10		 mov	 edx, DWORD PTR [eax]
  00082	8b f4		 mov	 esi, esp
  00084	8b 4d e0	 mov	 ecx, DWORD PTR __Rdbuf$[ebp]
  00087	8b 42 08	 mov	 eax, DWORD PTR [edx+8]
  0008a	ff d0		 call	 eax
  0008c	3b f4		 cmp	 esi, esp
  0008e	e8 00 00 00 00	 call	 __RTC_CheckEsp
$LN3@Sentry_bas:

; 82   :             }
; 83   :         }

  00093	8b 4d f4	 mov	 ecx, DWORD PTR __$EHRec$[ebp]
  00096	64 89 0d 00 00
	00 00		 mov	 DWORD PTR fs:0, ecx
  0009d	59		 pop	 ecx
  0009e	5f		 pop	 edi
  0009f	5e		 pop	 esi
  000a0	5b		 pop	 ebx
  000a1	81 c4 e8 00 00
	00		 add	 esp, 232		; 000000e8H
  000a7	3b ec		 cmp	 ebp, esp
  000a9	e8 00 00 00 00	 call	 __RTC_CheckEsp
  000ae	8b e5		 mov	 esp, ebp
  000b0	5d		 pop	 ebp
  000b1	c3		 ret	 0
  000b2	cc		 int	 3
  000b3	cc		 int	 3
  000b4	cc		 int	 3
  000b5	cc		 int	 3
  000b6	cc		 int	 3
_TEXT	ENDS
;	COMDAT text$x
text$x	SEGMENT
__ehhandler$??1_Sentry_base@?$basic_ostream@DU?$char_traits@D@std@@@std@@QAE@XZ:
  00000	90		 npad	 1
  00001	90		 npad	 1
  00002	8b 54 24 08	 mov	 edx, DWORD PTR [esp+8]
  00006	8d 42 0c	 lea	 eax, DWORD PTR [edx+12]
  00009	8b 8a 14 ff ff
	ff		 mov	 ecx, DWORD PTR [edx-236]
  0000f	33 c8		 xor	 ecx, eax
  00011	e8 00 00 00 00	 call	 @__security_check_cookie@4
  00016	b8 00 00 00 00	 mov	 eax, OFFSET __ehfuncinfo$??1_Sentry_base@?$basic_ostream@DU?$char_traits@D@std@@@std@@QAE@XZ
  0001b	e9 00 00 00 00	 jmp	 ___CxxFrameHandler3
text$x	ENDS
??1_Sentry_base@?$basic_ostream@DU?$char_traits@D@std@@@std@@QAE@XZ ENDP ; std::basic_ostream<char,std::char_traits<char> >::_Sentry_base::~_Sentry_base
; Function compile flags: /Odtp /RTCsu /ZI
; File C:\Program Files (x86)\Microsoft Visual Studio\2019\Community\VC\Tools\MSVC\14.29.30133\include\ostream
;	COMDAT ??0_Sentry_base@?$basic_ostream@DU?$char_traits@D@std@@@std@@QAE@AAV12@@Z
_TEXT	SEGMENT
tv73 = -220						; size = 4
__Rdbuf$ = -20						; size = 4
_this$ = -8						; size = 4
__Ostr$ = 8						; size = 4
??0_Sentry_base@?$basic_ostream@DU?$char_traits@D@std@@@std@@QAE@AAV12@@Z PROC ; std::basic_ostream<char,std::char_traits<char> >::_Sentry_base::_Sentry_base, COMDAT
; _this$ = ecx

; 71   :         __CLR_OR_THIS_CALL _Sentry_base(basic_ostream& _Ostr) : _Myostr(_Ostr) { // lock the stream buffer, if there

  00000	55		 push	 ebp
  00001	8b ec		 mov	 ebp, esp
  00003	81 ec dc 00 00
	00		 sub	 esp, 220		; 000000dcH
  00009	53		 push	 ebx
  0000a	56		 push	 esi
  0000b	57		 push	 edi
  0000c	51		 push	 ecx
  0000d	8d 7d e4	 lea	 edi, DWORD PTR [ebp-28]
  00010	b9 07 00 00 00	 mov	 ecx, 7
  00015	b8 cc cc cc cc	 mov	 eax, -858993460		; ccccccccH
  0001a	f3 ab		 rep stosd
  0001c	59		 pop	 ecx
  0001d	89 4d f8	 mov	 DWORD PTR _this$[ebp], ecx
  00020	b9 00 00 00 00	 mov	 ecx, OFFSET __C12F3EA4_ostream
  00025	e8 00 00 00 00	 call	 @__CheckForDebuggerJustMyCode@4
  0002a	8b 45 f8	 mov	 eax, DWORD PTR _this$[ebp]
  0002d	8b 4d 08	 mov	 ecx, DWORD PTR __Ostr$[ebp]
  00030	89 08		 mov	 DWORD PTR [eax], ecx

; 72   :             const auto _Rdbuf = _Myostr.rdbuf();

  00032	8b 45 f8	 mov	 eax, DWORD PTR _this$[ebp]
  00035	8b 08		 mov	 ecx, DWORD PTR [eax]
  00037	89 8d 24 ff ff
	ff		 mov	 DWORD PTR tv73[ebp], ecx
  0003d	8b 95 24 ff ff
	ff		 mov	 edx, DWORD PTR tv73[ebp]
  00043	8b 02		 mov	 eax, DWORD PTR [edx]
  00045	8b 8d 24 ff ff
	ff		 mov	 ecx, DWORD PTR tv73[ebp]
  0004b	03 48 04	 add	 ecx, DWORD PTR [eax+4]
  0004e	8b f4		 mov	 esi, esp
  00050	ff 15 00 00 00
	00		 call	 DWORD PTR __imp_?rdbuf@?$basic_ios@DU?$char_traits@D@std@@@std@@QBEPAV?$basic_streambuf@DU?$char_traits@D@std@@@2@XZ
  00056	3b f4		 cmp	 esi, esp
  00058	e8 00 00 00 00	 call	 __RTC_CheckEsp
  0005d	89 45 ec	 mov	 DWORD PTR __Rdbuf$[ebp], eax

; 73   :             if (_Rdbuf) {

  00060	83 7d ec 00	 cmp	 DWORD PTR __Rdbuf$[ebp], 0
  00064	74 16		 je	 SHORT $LN1@Sentry_bas

; 74   :                 _Rdbuf->_Lock();

  00066	8b 45 ec	 mov	 eax, DWORD PTR __Rdbuf$[ebp]
  00069	8b 10		 mov	 edx, DWORD PTR [eax]
  0006b	8b f4		 mov	 esi, esp
  0006d	8b 4d ec	 mov	 ecx, DWORD PTR __Rdbuf$[ebp]
  00070	8b 42 04	 mov	 eax, DWORD PTR [edx+4]
  00073	ff d0		 call	 eax
  00075	3b f4		 cmp	 esi, esp
  00077	e8 00 00 00 00	 call	 __RTC_CheckEsp
$LN1@Sentry_bas:

; 75   :             }
; 76   :         }

  0007c	8b 45 f8	 mov	 eax, DWORD PTR _this$[ebp]
  0007f	5f		 pop	 edi
  00080	5e		 pop	 esi
  00081	5b		 pop	 ebx
  00082	81 c4 dc 00 00
	00		 add	 esp, 220		; 000000dcH
  00088	3b ec		 cmp	 ebp, esp
  0008a	e8 00 00 00 00	 call	 __RTC_CheckEsp
  0008f	8b e5		 mov	 esp, ebp
  00091	5d		 pop	 ebp
  00092	c2 04 00	 ret	 4
??0_Sentry_base@?$basic_ostream@DU?$char_traits@D@std@@@std@@QAE@AAV12@@Z ENDP ; std::basic_ostream<char,std::char_traits<char> >::_Sentry_base::_Sentry_base
_TEXT	ENDS
; Function compile flags: /Odtp /RTCsu /ZI
; File C:\Program Files (x86)\Microsoft Visual Studio\2019\Community\VC\Tools\MSVC\14.29.30133\include\istream
;	COMDAT ??$?5DU?$char_traits@D@std@@@std@@YAAAV?$basic_istream@DU?$char_traits@D@std@@@0@AAV10@AAD@Z
_TEXT	SEGMENT
tv155 = -284						; size = 4
tv65 = -280						; size = 4
$T2 = -272						; size = 4
$T3 = -260						; size = 4
__Ok$ = -56						; size = 8
__State$ = -40						; size = 4
__Meta$ = -28						; size = 4
__$ArrayPad$ = -20					; size = 4
__$EHRec$ = -16						; size = 16
__Istr$ = 8						; size = 4
__Ch$ = 12						; size = 4
??$?5DU?$char_traits@D@std@@@std@@YAAAV?$basic_istream@DU?$char_traits@D@std@@@0@AAV10@AAD@Z PROC ; std::operator>><char,std::char_traits<char> >, COMDAT

; 846  : basic_istream<_Elem, _Traits>& operator>>(basic_istream<_Elem, _Traits>& _Istr, _Elem& _Ch) { // extract a character

  00000	55		 push	 ebp
  00001	8b ec		 mov	 ebp, esp
  00003	6a ff		 push	 -1
  00005	68 00 00 00 00	 push	 __ehhandler$??$?5DU?$char_traits@D@std@@@std@@YAAAV?$basic_istream@DU?$char_traits@D@std@@@0@AAV10@AAD@Z
  0000a	64 a1 00 00 00
	00		 mov	 eax, DWORD PTR fs:0
  00010	50		 push	 eax
  00011	51		 push	 ecx
  00012	81 ec 0c 01 00
	00		 sub	 esp, 268		; 0000010cH
  00018	53		 push	 ebx
  00019	56		 push	 esi
  0001a	57		 push	 edi
  0001b	8d 7d a4	 lea	 edi, DWORD PTR [ebp-92]
  0001e	b9 13 00 00 00	 mov	 ecx, 19			; 00000013H
  00023	b8 cc cc cc cc	 mov	 eax, -858993460		; ccccccccH
  00028	f3 ab		 rep stosd
  0002a	a1 00 00 00 00	 mov	 eax, DWORD PTR ___security_cookie
  0002f	33 c5		 xor	 eax, ebp
  00031	89 45 ec	 mov	 DWORD PTR __$ArrayPad$[ebp], eax
  00034	50		 push	 eax
  00035	8d 45 f4	 lea	 eax, DWORD PTR __$EHRec$[ebp+4]
  00038	64 a3 00 00 00
	00		 mov	 DWORD PTR fs:0, eax
  0003e	89 65 f0	 mov	 DWORD PTR __$EHRec$[ebp], esp
  00041	b9 00 00 00 00	 mov	 ecx, OFFSET __A2FF0B9E_istream
  00046	e8 00 00 00 00	 call	 @__CheckForDebuggerJustMyCode@4

; 847  :     using _Myis = basic_istream<_Elem, _Traits>;
; 848  : 
; 849  :     typename _Myis::int_type _Meta;
; 850  :     ios_base::iostate _State = ios_base::goodbit;

  0004b	c7 45 d8 00 00
	00 00		 mov	 DWORD PTR __State$[ebp], 0

; 851  :     const typename _Myis::sentry _Ok(_Istr);

  00052	6a 00		 push	 0
  00054	8b 45 08	 mov	 eax, DWORD PTR __Istr$[ebp]
  00057	50		 push	 eax
  00058	8d 4d c8	 lea	 ecx, DWORD PTR __Ok$[ebp]
  0005b	e8 00 00 00 00	 call	 ??0sentry@?$basic_istream@DU?$char_traits@D@std@@@std@@QAE@AAV12@_N@Z ; std::basic_istream<char,std::char_traits<char> >::sentry::sentry
  00060	c7 45 fc 00 00
	00 00		 mov	 DWORD PTR __$EHRec$[ebp+12], 0

; 852  : 
; 853  :     if (_Ok) { // state okay, extract characters

  00067	8d 4d c8	 lea	 ecx, DWORD PTR __Ok$[ebp]
  0006a	e8 00 00 00 00	 call	 ??Bsentry@?$basic_istream@DU?$char_traits@D@std@@@std@@QBE_NXZ ; std::basic_istream<char,std::char_traits<char> >::sentry::operator bool
  0006f	0f b6 c0	 movzx	 eax, al
  00072	85 c0		 test	 eax, eax
  00074	0f 84 c3 00 00
	00		 je	 $LN2@operator

; 854  :         _TRY_IO_BEGIN

  0007a	c6 45 fc 01	 mov	 BYTE PTR __$EHRec$[ebp+12], 1

; 855  :         _Meta = _Istr.rdbuf()->sbumpc();

  0007e	8b 45 08	 mov	 eax, DWORD PTR __Istr$[ebp]
  00081	8b 08		 mov	 ecx, DWORD PTR [eax]
  00083	8b 55 08	 mov	 edx, DWORD PTR __Istr$[ebp]
  00086	03 51 04	 add	 edx, DWORD PTR [ecx+4]
  00089	8b f4		 mov	 esi, esp
  0008b	8b ca		 mov	 ecx, edx
  0008d	ff 15 00 00 00
	00		 call	 DWORD PTR __imp_?rdbuf@?$basic_ios@DU?$char_traits@D@std@@@std@@QBEPAV?$basic_streambuf@DU?$char_traits@D@std@@@2@XZ
  00093	3b f4		 cmp	 esi, esp
  00095	e8 00 00 00 00	 call	 __RTC_CheckEsp
  0009a	89 85 e8 fe ff
	ff		 mov	 DWORD PTR tv65[ebp], eax
  000a0	8b f4		 mov	 esi, esp
  000a2	8b 8d e8 fe ff
	ff		 mov	 ecx, DWORD PTR tv65[ebp]
  000a8	ff 15 00 00 00
	00		 call	 DWORD PTR __imp_?sbumpc@?$basic_streambuf@DU?$char_traits@D@std@@@std@@QAEHXZ
  000ae	3b f4		 cmp	 esi, esp
  000b0	e8 00 00 00 00	 call	 __RTC_CheckEsp
  000b5	89 85 e4 fe ff
	ff		 mov	 DWORD PTR tv155[ebp], eax
  000bb	8b 85 e4 fe ff
	ff		 mov	 eax, DWORD PTR tv155[ebp]
  000c1	89 45 e4	 mov	 DWORD PTR __Meta$[ebp], eax

; 856  :         if (_Traits::eq_int_type(_Traits::eof(), _Meta)) {

  000c4	e8 00 00 00 00	 call	 ?eof@?$_Narrow_char_traits@DH@std@@SAHXZ ; std::_Narrow_char_traits<char,int>::eof
  000c9	89 85 fc fe ff
	ff		 mov	 DWORD PTR $T3[ebp], eax
  000cf	8d 45 e4	 lea	 eax, DWORD PTR __Meta$[ebp]
  000d2	50		 push	 eax
  000d3	8d 8d fc fe ff
	ff		 lea	 ecx, DWORD PTR $T3[ebp]
  000d9	51		 push	 ecx
  000da	e8 00 00 00 00	 call	 ?eq_int_type@?$_Narrow_char_traits@DH@std@@SA_NABH0@Z ; std::_Narrow_char_traits<char,int>::eq_int_type
  000df	83 c4 08	 add	 esp, 8
  000e2	0f b6 d0	 movzx	 edx, al
  000e5	85 d2		 test	 edx, edx
  000e7	74 0b		 je	 SHORT $LN4@operator

; 857  :             _State |= ios_base::eofbit | ios_base::failbit; // end of file

  000e9	8b 45 d8	 mov	 eax, DWORD PTR __State$[ebp]
  000ec	83 c8 03	 or	 eax, 3
  000ef	89 45 d8	 mov	 DWORD PTR __State$[ebp], eax

; 858  :         } else {

  000f2	eb 11		 jmp	 SHORT $LN5@operator
$LN4@operator:

; 859  :             _Ch = _Traits::to_char_type(_Meta); // got a character

  000f4	8d 45 e4	 lea	 eax, DWORD PTR __Meta$[ebp]
  000f7	50		 push	 eax
  000f8	e8 00 00 00 00	 call	 ?to_char_type@?$_Narrow_char_traits@DH@std@@SADABH@Z ; std::_Narrow_char_traits<char,int>::to_char_type
  000fd	83 c4 04	 add	 esp, 4
  00100	8b 4d 0c	 mov	 ecx, DWORD PTR __Ch$[ebp]
  00103	88 01		 mov	 BYTE PTR [ecx], al
$LN5@operator:
  00105	eb 26		 jmp	 SHORT $LN7@operator
__catch$??$?5DU?$char_traits@D@std@@@std@@YAAAV?$basic_istream@DU?$char_traits@D@std@@@0@AAV10@AAD@Z$0:

; 860  :         }
; 861  :         _CATCH_IO_(ios_base, _Istr)

  00107	8b f4		 mov	 esi, esp
  00109	6a 01		 push	 1
  0010b	6a 04		 push	 4
  0010d	8b 45 08	 mov	 eax, DWORD PTR __Istr$[ebp]
  00110	8b 08		 mov	 ecx, DWORD PTR [eax]
  00112	8b 55 08	 mov	 edx, DWORD PTR __Istr$[ebp]
  00115	03 51 04	 add	 edx, DWORD PTR [ecx+4]
  00118	8b ca		 mov	 ecx, edx
  0011a	ff 15 00 00 00
	00		 call	 DWORD PTR __imp_?setstate@?$basic_ios@DU?$char_traits@D@std@@@std@@QAEXH_N@Z
  00120	3b f4		 cmp	 esi, esp
  00122	e8 00 00 00 00	 call	 __RTC_CheckEsp
  00127	b8 00 00 00 00	 mov	 eax, $LN11@operator
  0012c	c3		 ret	 0
$LN7@operator:
  0012d	c7 45 fc 00 00
	00 00		 mov	 DWORD PTR __$EHRec$[ebp+12], 0
  00134	eb 07		 jmp	 SHORT $LN2@operator
$LN11@operator:
  00136	c7 45 fc 00 00
	00 00		 mov	 DWORD PTR __$EHRec$[ebp+12], 0
$LN2@operator:

; 862  :     }
; 863  : 
; 864  :     _Istr.setstate(_State);

  0013d	8b f4		 mov	 esi, esp
  0013f	6a 00		 push	 0
  00141	8b 45 d8	 mov	 eax, DWORD PTR __State$[ebp]
  00144	50		 push	 eax
  00145	8b 4d 08	 mov	 ecx, DWORD PTR __Istr$[ebp]
  00148	8b 11		 mov	 edx, DWORD PTR [ecx]
  0014a	8b 4d 08	 mov	 ecx, DWORD PTR __Istr$[ebp]
  0014d	03 4a 04	 add	 ecx, DWORD PTR [edx+4]
  00150	ff 15 00 00 00
	00		 call	 DWORD PTR __imp_?setstate@?$basic_ios@DU?$char_traits@D@std@@@std@@QAEXH_N@Z
  00156	3b f4		 cmp	 esi, esp
  00158	e8 00 00 00 00	 call	 __RTC_CheckEsp

; 865  :     return _Istr;

  0015d	8b 45 08	 mov	 eax, DWORD PTR __Istr$[ebp]
  00160	89 85 f0 fe ff
	ff		 mov	 DWORD PTR $T2[ebp], eax
  00166	c7 45 fc ff ff
	ff ff		 mov	 DWORD PTR __$EHRec$[ebp+12], -1
  0016d	8d 4d c8	 lea	 ecx, DWORD PTR __Ok$[ebp]
  00170	e8 00 00 00 00	 call	 ??1sentry@?$basic_istream@DU?$char_traits@D@std@@@std@@QAE@XZ
  00175	8b 85 f0 fe ff
	ff		 mov	 eax, DWORD PTR $T2[ebp]

; 866  : }

  0017b	52		 push	 edx
  0017c	8b cd		 mov	 ecx, ebp
  0017e	50		 push	 eax
  0017f	8d 15 00 00 00
	00		 lea	 edx, DWORD PTR $LN16@operator
  00185	e8 00 00 00 00	 call	 @_RTC_CheckStackVars@8
  0018a	58		 pop	 eax
  0018b	5a		 pop	 edx
  0018c	8b 4d f4	 mov	 ecx, DWORD PTR __$EHRec$[ebp+4]
  0018f	64 89 0d 00 00
	00 00		 mov	 DWORD PTR fs:0, ecx
  00196	59		 pop	 ecx
  00197	5f		 pop	 edi
  00198	5e		 pop	 esi
  00199	5b		 pop	 ebx
  0019a	8b 4d ec	 mov	 ecx, DWORD PTR __$ArrayPad$[ebp]
  0019d	33 cd		 xor	 ecx, ebp
  0019f	e8 00 00 00 00	 call	 @__security_check_cookie@4
  001a4	81 c4 1c 01 00
	00		 add	 esp, 284		; 0000011cH
  001aa	3b ec		 cmp	 ebp, esp
  001ac	e8 00 00 00 00	 call	 __RTC_CheckEsp
  001b1	8b e5		 mov	 esp, ebp
  001b3	5d		 pop	 ebp
  001b4	c3		 ret	 0
  001b5	0f 1f 00	 npad	 3
$LN16@operator:
  001b8	02 00 00 00	 DD	 2
  001bc	00 00 00 00	 DD	 $LN15@operator
$LN15@operator:
  001c0	e4 ff ff ff	 DD	 -28			; ffffffe4H
  001c4	04 00 00 00	 DD	 4
  001c8	00 00 00 00	 DD	 $LN12@operator
  001cc	c8 ff ff ff	 DD	 -56			; ffffffc8H
  001d0	08 00 00 00	 DD	 8
  001d4	00 00 00 00	 DD	 $LN13@operator
$LN13@operator:
  001d8	5f		 DB	 95			; 0000005fH
  001d9	4f		 DB	 79			; 0000004fH
  001da	6b		 DB	 107			; 0000006bH
  001db	00		 DB	 0
$LN12@operator:
  001dc	5f		 DB	 95			; 0000005fH
  001dd	4d		 DB	 77			; 0000004dH
  001de	65		 DB	 101			; 00000065H
  001df	74		 DB	 116			; 00000074H
  001e0	61		 DB	 97			; 00000061H
  001e1	00		 DB	 0
_TEXT	ENDS
;	COMDAT text$x
text$x	SEGMENT
__unwindfunclet$??$?5DU?$char_traits@D@std@@@std@@YAAAV?$basic_istream@DU?$char_traits@D@std@@@0@AAV10@AAD@Z$2:
  00000	8d 4d c8	 lea	 ecx, DWORD PTR __Ok$[ebp]
  00003	e9 00 00 00 00	 jmp	 ??1sentry@?$basic_istream@DU?$char_traits@D@std@@@std@@QAE@XZ
  00008	cc		 int	 3
  00009	cc		 int	 3
  0000a	cc		 int	 3
  0000b	cc		 int	 3
  0000c	cc		 int	 3
__ehhandler$??$?5DU?$char_traits@D@std@@@std@@YAAAV?$basic_istream@DU?$char_traits@D@std@@@0@AAV10@AAD@Z:
  0000d	90		 npad	 1
  0000e	90		 npad	 1
  0000f	8b 54 24 08	 mov	 edx, DWORD PTR [esp+8]
  00013	8d 42 0c	 lea	 eax, DWORD PTR [edx+12]
  00016	8b 8a e0 fe ff
	ff		 mov	 ecx, DWORD PTR [edx-288]
  0001c	33 c8		 xor	 ecx, eax
  0001e	e8 00 00 00 00	 call	 @__security_check_cookie@4
  00023	8b 4a f8	 mov	 ecx, DWORD PTR [edx-8]
  00026	33 c8		 xor	 ecx, eax
  00028	e8 00 00 00 00	 call	 @__security_check_cookie@4
  0002d	b8 00 00 00 00	 mov	 eax, OFFSET __ehfuncinfo$??$?5DU?$char_traits@D@std@@@std@@YAAAV?$basic_istream@DU?$char_traits@D@std@@@0@AAV10@AAD@Z
  00032	e9 00 00 00 00	 jmp	 ___CxxFrameHandler3
text$x	ENDS
??$?5DU?$char_traits@D@std@@@std@@YAAAV?$basic_istream@DU?$char_traits@D@std@@@0@AAV10@AAD@Z ENDP ; std::operator>><char,std::char_traits<char> >
; Function compile flags: /Odtp /RTCsu /ZI
; File C:\Program Files (x86)\Microsoft Visual Studio\2019\Community\VC\Tools\MSVC\14.29.30133\include\ostream
;	COMDAT ??$endl@DU?$char_traits@D@std@@@std@@YAAAV?$basic_ostream@DU?$char_traits@D@std@@@0@AAV10@@Z
_TEXT	SEGMENT
__Ostr$ = 8						; size = 4
??$endl@DU?$char_traits@D@std@@@std@@YAAAV?$basic_ostream@DU?$char_traits@D@std@@@0@AAV10@@Z PROC ; std::endl<char,std::char_traits<char> >, COMDAT

; 978  :     basic_ostream<_Elem, _Traits>& _Ostr) { // insert newline and flush stream

  00000	55		 push	 ebp
  00001	8b ec		 mov	 ebp, esp
  00003	81 ec c0 00 00
	00		 sub	 esp, 192		; 000000c0H
  00009	53		 push	 ebx
  0000a	56		 push	 esi
  0000b	57		 push	 edi
  0000c	8b fd		 mov	 edi, ebp
  0000e	33 c9		 xor	 ecx, ecx
  00010	b8 cc cc cc cc	 mov	 eax, -858993460		; ccccccccH
  00015	f3 ab		 rep stosd
  00017	b9 00 00 00 00	 mov	 ecx, OFFSET __C12F3EA4_ostream
  0001c	e8 00 00 00 00	 call	 @__CheckForDebuggerJustMyCode@4

; 979  :     _Ostr.put(_Ostr.widen('\n'));

  00021	8b f4		 mov	 esi, esp
  00023	6a 0a		 push	 10			; 0000000aH
  00025	8b 45 08	 mov	 eax, DWORD PTR __Ostr$[ebp]
  00028	8b 08		 mov	 ecx, DWORD PTR [eax]
  0002a	8b 55 08	 mov	 edx, DWORD PTR __Ostr$[ebp]
  0002d	03 51 04	 add	 edx, DWORD PTR [ecx+4]
  00030	8b ca		 mov	 ecx, edx
  00032	ff 15 00 00 00
	00		 call	 DWORD PTR __imp_?widen@?$basic_ios@DU?$char_traits@D@std@@@std@@QBEDD@Z
  00038	3b f4		 cmp	 esi, esp
  0003a	e8 00 00 00 00	 call	 __RTC_CheckEsp
  0003f	8b f4		 mov	 esi, esp
  00041	0f b6 c0	 movzx	 eax, al
  00044	50		 push	 eax
  00045	8b 4d 08	 mov	 ecx, DWORD PTR __Ostr$[ebp]
  00048	ff 15 00 00 00
	00		 call	 DWORD PTR __imp_?put@?$basic_ostream@DU?$char_traits@D@std@@@std@@QAEAAV12@D@Z
  0004e	3b f4		 cmp	 esi, esp
  00050	e8 00 00 00 00	 call	 __RTC_CheckEsp

; 980  :     _Ostr.flush();

  00055	8b f4		 mov	 esi, esp
  00057	8b 4d 08	 mov	 ecx, DWORD PTR __Ostr$[ebp]
  0005a	ff 15 00 00 00
	00		 call	 DWORD PTR __imp_?flush@?$basic_ostream@DU?$char_traits@D@std@@@std@@QAEAAV12@XZ
  00060	3b f4		 cmp	 esi, esp
  00062	e8 00 00 00 00	 call	 __RTC_CheckEsp

; 981  :     return _Ostr;

  00067	8b 45 08	 mov	 eax, DWORD PTR __Ostr$[ebp]

; 982  : }

  0006a	5f		 pop	 edi
  0006b	5e		 pop	 esi
  0006c	5b		 pop	 ebx
  0006d	81 c4 c0 00 00
	00		 add	 esp, 192		; 000000c0H
  00073	3b ec		 cmp	 ebp, esp
  00075	e8 00 00 00 00	 call	 __RTC_CheckEsp
  0007a	8b e5		 mov	 esp, ebp
  0007c	5d		 pop	 ebp
  0007d	c3		 ret	 0
??$endl@DU?$char_traits@D@std@@@std@@YAAAV?$basic_ostream@DU?$char_traits@D@std@@@0@AAV10@@Z ENDP ; std::endl<char,std::char_traits<char> >
_TEXT	ENDS
; Function compile flags: /Odtp /RTCsu /ZI
; File C:\Program Files (x86)\Microsoft Visual Studio\2019\Community\VC\Tools\MSVC\14.29.30133\include\ostream
;	COMDAT ??$?6U?$char_traits@D@std@@@std@@YAAAV?$basic_ostream@DU?$char_traits@D@std@@@0@AAV10@PBD@Z
_TEXT	SEGMENT
tv135 = -356						; size = 8
tv343 = -348						; size = 8
tv291 = -344						; size = 4
tv288 = -344						; size = 8
tv286 = -344						; size = 4
tv329 = -340						; size = 8
tv290 = -340						; size = 4
tv285 = -340						; size = 4
tv287 = -336						; size = 4
tv137 = -336						; size = 4
tv289 = -333						; size = 1
tv284 = -333						; size = 1
$T2 = -328						; size = 4
$T3 = -316						; size = 4
$T4 = -304						; size = 4
$T5 = -292						; size = 4
$T6 = -280						; size = 4
__Ok$ = -76						; size = 8
__Pad$ = -60						; size = 8
__Count$ = -44						; size = 8
__State$ = -28						; size = 4
__$ArrayPad$ = -20					; size = 4
__$EHRec$ = -16						; size = 16
__Ostr$ = 8						; size = 4
__Val$ = 12						; size = 4
??$?6U?$char_traits@D@std@@@std@@YAAAV?$basic_ostream@DU?$char_traits@D@std@@@0@AAV10@PBD@Z PROC ; std::operator<<<std::char_traits<char> >, COMDAT

; 734  :     const char* _Val) { // insert NTBS into char stream

  00000	55		 push	 ebp
  00001	8b ec		 mov	 ebp, esp
  00003	6a ff		 push	 -1
  00005	68 00 00 00 00	 push	 __ehhandler$??$?6U?$char_traits@D@std@@@std@@YAAAV?$basic_ostream@DU?$char_traits@D@std@@@0@AAV10@PBD@Z
  0000a	64 a1 00 00 00
	00		 mov	 eax, DWORD PTR fs:0
  00010	50		 push	 eax
  00011	51		 push	 ecx
  00012	81 ec 54 01 00
	00		 sub	 esp, 340		; 00000154H
  00018	53		 push	 ebx
  00019	56		 push	 esi
  0001a	57		 push	 edi
  0001b	8d bd 5c ff ff
	ff		 lea	 edi, DWORD PTR [ebp-164]
  00021	b9 25 00 00 00	 mov	 ecx, 37			; 00000025H
  00026	b8 cc cc cc cc	 mov	 eax, -858993460		; ccccccccH
  0002b	f3 ab		 rep stosd
  0002d	a1 00 00 00 00	 mov	 eax, DWORD PTR ___security_cookie
  00032	33 c5		 xor	 eax, ebp
  00034	89 45 ec	 mov	 DWORD PTR __$ArrayPad$[ebp], eax
  00037	50		 push	 eax
  00038	8d 45 f4	 lea	 eax, DWORD PTR __$EHRec$[ebp+4]
  0003b	64 a3 00 00 00
	00		 mov	 DWORD PTR fs:0, eax
  00041	89 65 f0	 mov	 DWORD PTR __$EHRec$[ebp], esp
  00044	b9 00 00 00 00	 mov	 ecx, OFFSET __C12F3EA4_ostream
  00049	e8 00 00 00 00	 call	 @__CheckForDebuggerJustMyCode@4

; 735  :     using _Elem = char;
; 736  :     using _Myos = basic_ostream<_Elem, _Traits>;
; 737  : 
; 738  :     ios_base::iostate _State = ios_base::goodbit;

  0004e	c7 45 e4 00 00
	00 00		 mov	 DWORD PTR __State$[ebp], 0

; 739  :     streamsize _Count        = static_cast<streamsize>(_Traits::length(_Val));

  00055	8b 45 0c	 mov	 eax, DWORD PTR __Val$[ebp]
  00058	50		 push	 eax
  00059	e8 00 00 00 00	 call	 ?length@?$_Narrow_char_traits@DH@std@@SAIQBD@Z ; std::_Narrow_char_traits<char,int>::length
  0005e	83 c4 04	 add	 esp, 4
  00061	33 c9		 xor	 ecx, ecx
  00063	89 45 d4	 mov	 DWORD PTR __Count$[ebp], eax
  00066	89 4d d8	 mov	 DWORD PTR __Count$[ebp+4], ecx

; 740  :     streamsize _Pad          = _Ostr.width() <= 0 || _Ostr.width() <= _Count ? 0 : _Ostr.width() - _Count;

  00069	8b 45 08	 mov	 eax, DWORD PTR __Ostr$[ebp]
  0006c	8b 08		 mov	 ecx, DWORD PTR [eax]
  0006e	8b 55 08	 mov	 edx, DWORD PTR __Ostr$[ebp]
  00071	03 51 04	 add	 edx, DWORD PTR [ecx+4]
  00074	8b f4		 mov	 esi, esp
  00076	8b ca		 mov	 ecx, edx
  00078	ff 15 00 00 00
	00		 call	 DWORD PTR __imp_?width@ios_base@std@@QBE_JXZ
  0007e	3b f4		 cmp	 esi, esp
  00080	e8 00 00 00 00	 call	 __RTC_CheckEsp
  00085	89 85 ac fe ff
	ff		 mov	 DWORD PTR tv329[ebp], eax
  0008b	89 95 b0 fe ff
	ff		 mov	 DWORD PTR tv329[ebp+4], edx
  00091	83 bd b0 fe ff
	ff 00		 cmp	 DWORD PTR tv329[ebp+4], 0
  00098	7c 79		 jl	 SHORT $LN17@operator
  0009a	7f 09		 jg	 SHORT $LN24@operator
  0009c	83 bd ac fe ff
	ff 00		 cmp	 DWORD PTR tv329[ebp], 0
  000a3	76 6e		 jbe	 SHORT $LN17@operator
$LN24@operator:
  000a5	8b 45 08	 mov	 eax, DWORD PTR __Ostr$[ebp]
  000a8	8b 08		 mov	 ecx, DWORD PTR [eax]
  000aa	8b 55 08	 mov	 edx, DWORD PTR __Ostr$[ebp]
  000ad	03 51 04	 add	 edx, DWORD PTR [ecx+4]
  000b0	8b f4		 mov	 esi, esp
  000b2	8b ca		 mov	 ecx, edx
  000b4	ff 15 00 00 00
	00		 call	 DWORD PTR __imp_?width@ios_base@std@@QBE_JXZ
  000ba	3b f4		 cmp	 esi, esp
  000bc	e8 00 00 00 00	 call	 __RTC_CheckEsp
  000c1	89 85 a4 fe ff
	ff		 mov	 DWORD PTR tv343[ebp], eax
  000c7	89 95 a8 fe ff
	ff		 mov	 DWORD PTR tv343[ebp+4], edx
  000cd	8b 85 a8 fe ff
	ff		 mov	 eax, DWORD PTR tv343[ebp+4]
  000d3	3b 45 d8	 cmp	 eax, DWORD PTR __Count$[ebp+4]
  000d6	7c 3b		 jl	 SHORT $LN17@operator
  000d8	7f 0b		 jg	 SHORT $LN25@operator
  000da	8b 8d a4 fe ff
	ff		 mov	 ecx, DWORD PTR tv343[ebp]
  000e0	3b 4d d4	 cmp	 ecx, DWORD PTR __Count$[ebp]
  000e3	76 2e		 jbe	 SHORT $LN17@operator
$LN25@operator:
  000e5	8b 55 08	 mov	 edx, DWORD PTR __Ostr$[ebp]
  000e8	8b 02		 mov	 eax, DWORD PTR [edx]
  000ea	8b 4d 08	 mov	 ecx, DWORD PTR __Ostr$[ebp]
  000ed	03 48 04	 add	 ecx, DWORD PTR [eax+4]
  000f0	8b f4		 mov	 esi, esp
  000f2	ff 15 00 00 00
	00		 call	 DWORD PTR __imp_?width@ios_base@std@@QBE_JXZ
  000f8	3b f4		 cmp	 esi, esp
  000fa	e8 00 00 00 00	 call	 __RTC_CheckEsp
  000ff	2b 45 d4	 sub	 eax, DWORD PTR __Count$[ebp]
  00102	1b 55 d8	 sbb	 edx, DWORD PTR __Count$[ebp+4]
  00105	89 85 9c fe ff
	ff		 mov	 DWORD PTR tv135[ebp], eax
  0010b	89 95 a0 fe ff
	ff		 mov	 DWORD PTR tv135[ebp+4], edx
  00111	eb 0b		 jmp	 SHORT $LN18@operator
$LN17@operator:
  00113	0f 57 c0	 xorps	 xmm0, xmm0
  00116	66 0f 13 85 9c
	fe ff ff	 movlpd	 QWORD PTR tv135[ebp], xmm0
$LN18@operator:
  0011e	8b 8d 9c fe ff
	ff		 mov	 ecx, DWORD PTR tv135[ebp]
  00124	8b 95 a0 fe ff
	ff		 mov	 edx, DWORD PTR tv135[ebp+4]
  0012a	89 4d c4	 mov	 DWORD PTR __Pad$[ebp], ecx
  0012d	89 55 c8	 mov	 DWORD PTR __Pad$[ebp+4], edx

; 741  :     const typename _Myos::sentry _Ok(_Ostr);

  00130	8b 45 08	 mov	 eax, DWORD PTR __Ostr$[ebp]
  00133	50		 push	 eax
  00134	8d 4d b4	 lea	 ecx, DWORD PTR __Ok$[ebp]
  00137	e8 00 00 00 00	 call	 ??0sentry@?$basic_ostream@DU?$char_traits@D@std@@@std@@QAE@AAV12@@Z ; std::basic_ostream<char,std::char_traits<char> >::sentry::sentry
  0013c	c7 45 fc 00 00
	00 00		 mov	 DWORD PTR __$EHRec$[ebp+12], 0

; 742  : 
; 743  :     if (!_Ok) {

  00143	8d 4d b4	 lea	 ecx, DWORD PTR __Ok$[ebp]
  00146	e8 00 00 00 00	 call	 ??Bsentry@?$basic_ostream@DU?$char_traits@D@std@@@std@@QBE_NXZ ; std::basic_ostream<char,std::char_traits<char> >::sentry::operator bool
  0014b	0f b6 c0	 movzx	 eax, al
  0014e	85 c0		 test	 eax, eax
  00150	75 0e		 jne	 SHORT $LN8@operator

; 744  :         _State |= ios_base::badbit;

  00152	8b 45 e4	 mov	 eax, DWORD PTR __State$[ebp]
  00155	83 c8 04	 or	 eax, 4
  00158	89 45 e4	 mov	 DWORD PTR __State$[ebp], eax

; 745  :     } else { // state okay, insert

  0015b	e9 ba 02 00 00	 jmp	 $LN9@operator
$LN8@operator:

; 746  :         _TRY_IO_BEGIN

  00160	c6 45 fc 01	 mov	 BYTE PTR __$EHRec$[ebp+12], 1

; 747  :         if ((_Ostr.flags() & ios_base::adjustfield) != ios_base::left) {

  00164	8b 45 08	 mov	 eax, DWORD PTR __Ostr$[ebp]
  00167	8b 08		 mov	 ecx, DWORD PTR [eax]
  00169	8b 55 08	 mov	 edx, DWORD PTR __Ostr$[ebp]
  0016c	03 51 04	 add	 edx, DWORD PTR [ecx+4]
  0016f	8b f4		 mov	 esi, esp
  00171	8b ca		 mov	 ecx, edx
  00173	ff 15 00 00 00
	00		 call	 DWORD PTR __imp_?flags@ios_base@std@@QBEHXZ
  00179	3b f4		 cmp	 esi, esp
  0017b	e8 00 00 00 00	 call	 __RTC_CheckEsp
  00180	89 85 b0 fe ff
	ff		 mov	 DWORD PTR tv137[ebp], eax
  00186	8b 85 b0 fe ff
	ff		 mov	 eax, DWORD PTR tv137[ebp]
  0018c	25 c0 01 00 00	 and	 eax, 448		; 000001c0H
  00191	83 f8 40	 cmp	 eax, 64			; 00000040H
  00194	0f 84 d5 00 00
	00		 je	 $LN11@operator

; 748  :             for (; 0 < _Pad; --_Pad) { // pad on left

  0019a	eb 12		 jmp	 SHORT $LN4@operator
$LN2@operator:
  0019c	8b 45 c4	 mov	 eax, DWORD PTR __Pad$[ebp]
  0019f	83 e8 01	 sub	 eax, 1
  001a2	8b 4d c8	 mov	 ecx, DWORD PTR __Pad$[ebp+4]
  001a5	83 d9 00	 sbb	 ecx, 0
  001a8	89 45 c4	 mov	 DWORD PTR __Pad$[ebp], eax
  001ab	89 4d c8	 mov	 DWORD PTR __Pad$[ebp+4], ecx
$LN4@operator:
  001ae	83 7d c8 00	 cmp	 DWORD PTR __Pad$[ebp+4], 0
  001b2	0f 8c b7 00 00
	00		 jl	 $LN11@operator
  001b8	7f 0a		 jg	 SHORT $LN26@operator
  001ba	83 7d c4 00	 cmp	 DWORD PTR __Pad$[ebp], 0
  001be	0f 86 ab 00 00
	00		 jbe	 $LN11@operator
$LN26@operator:

; 749  :                 if (_Traits::eq_int_type(_Traits::eof(), _Ostr.rdbuf()->sputc(_Ostr.fill()))) {

  001c4	8b 45 08	 mov	 eax, DWORD PTR __Ostr$[ebp]
  001c7	8b 08		 mov	 ecx, DWORD PTR [eax]
  001c9	8b 55 08	 mov	 edx, DWORD PTR __Ostr$[ebp]
  001cc	03 51 04	 add	 edx, DWORD PTR [ecx+4]
  001cf	8b f4		 mov	 esi, esp
  001d1	8b ca		 mov	 ecx, edx
  001d3	ff 15 00 00 00
	00		 call	 DWORD PTR __imp_?fill@?$basic_ios@DU?$char_traits@D@std@@@std@@QBEDXZ
  001d9	3b f4		 cmp	 esi, esp
  001db	e8 00 00 00 00	 call	 __RTC_CheckEsp
  001e0	88 85 b3 fe ff
	ff		 mov	 BYTE PTR tv284[ebp], al
  001e6	8b 45 08	 mov	 eax, DWORD PTR __Ostr$[ebp]
  001e9	8b 08		 mov	 ecx, DWORD PTR [eax]
  001eb	8b 55 08	 mov	 edx, DWORD PTR __Ostr$[ebp]
  001ee	03 51 04	 add	 edx, DWORD PTR [ecx+4]
  001f1	8b f4		 mov	 esi, esp
  001f3	8b ca		 mov	 ecx, edx
  001f5	ff 15 00 00 00
	00		 call	 DWORD PTR __imp_?rdbuf@?$basic_ios@DU?$char_traits@D@std@@@std@@QBEPAV?$basic_streambuf@DU?$char_traits@D@std@@@2@XZ
  001fb	3b f4		 cmp	 esi, esp
  001fd	e8 00 00 00 00	 call	 __RTC_CheckEsp
  00202	89 85 ac fe ff
	ff		 mov	 DWORD PTR tv285[ebp], eax
  00208	8b f4		 mov	 esi, esp
  0020a	0f b6 85 b3 fe
	ff ff		 movzx	 eax, BYTE PTR tv284[ebp]
  00211	50		 push	 eax
  00212	8b 8d ac fe ff
	ff		 mov	 ecx, DWORD PTR tv285[ebp]
  00218	ff 15 00 00 00
	00		 call	 DWORD PTR __imp_?sputc@?$basic_streambuf@DU?$char_traits@D@std@@@std@@QAEHD@Z
  0021e	3b f4		 cmp	 esi, esp
  00220	e8 00 00 00 00	 call	 __RTC_CheckEsp
  00225	89 85 a8 fe ff
	ff		 mov	 DWORD PTR tv286[ebp], eax
  0022b	8b 8d a8 fe ff
	ff		 mov	 ecx, DWORD PTR tv286[ebp]
  00231	89 8d e8 fe ff
	ff		 mov	 DWORD PTR $T6[ebp], ecx
  00237	e8 00 00 00 00	 call	 ?eof@?$_Narrow_char_traits@DH@std@@SAHXZ ; std::_Narrow_char_traits<char,int>::eof
  0023c	89 85 dc fe ff
	ff		 mov	 DWORD PTR $T5[ebp], eax
  00242	8d 95 e8 fe ff
	ff		 lea	 edx, DWORD PTR $T6[ebp]
  00248	52		 push	 edx
  00249	8d 85 dc fe ff
	ff		 lea	 eax, DWORD PTR $T5[ebp]
  0024f	50		 push	 eax
  00250	e8 00 00 00 00	 call	 ?eq_int_type@?$_Narrow_char_traits@DH@std@@SA_NABH0@Z ; std::_Narrow_char_traits<char,int>::eq_int_type
  00255	83 c4 08	 add	 esp, 8
  00258	0f b6 c8	 movzx	 ecx, al
  0025b	85 c9		 test	 ecx, ecx
  0025d	74 0b		 je	 SHORT $LN12@operator

; 750  :                     _State |= ios_base::badbit; // insertion failed, quit

  0025f	8b 45 e4	 mov	 eax, DWORD PTR __State$[ebp]
  00262	83 c8 04	 or	 eax, 4
  00265	89 45 e4	 mov	 DWORD PTR __State$[ebp], eax

; 751  :                     break;

  00268	eb 05		 jmp	 SHORT $LN11@operator
$LN12@operator:

; 752  :                 }
; 753  :             }

  0026a	e9 2d ff ff ff	 jmp	 $LN2@operator
$LN11@operator:

; 754  :         }
; 755  : 
; 756  :         if (_State == ios_base::goodbit && _Ostr.rdbuf()->sputn(_Val, _Count) != _Count) {

  0026f	83 7d e4 00	 cmp	 DWORD PTR __State$[ebp], 0
  00273	75 6e		 jne	 SHORT $LN13@operator
  00275	8b 45 08	 mov	 eax, DWORD PTR __Ostr$[ebp]
  00278	8b 08		 mov	 ecx, DWORD PTR [eax]
  0027a	8b 55 08	 mov	 edx, DWORD PTR __Ostr$[ebp]
  0027d	03 51 04	 add	 edx, DWORD PTR [ecx+4]
  00280	8b f4		 mov	 esi, esp
  00282	8b ca		 mov	 ecx, edx
  00284	ff 15 00 00 00
	00		 call	 DWORD PTR __imp_?rdbuf@?$basic_ios@DU?$char_traits@D@std@@@std@@QBEPAV?$basic_streambuf@DU?$char_traits@D@std@@@2@XZ
  0028a	3b f4		 cmp	 esi, esp
  0028c	e8 00 00 00 00	 call	 __RTC_CheckEsp
  00291	89 85 b0 fe ff
	ff		 mov	 DWORD PTR tv287[ebp], eax
  00297	8b f4		 mov	 esi, esp
  00299	8b 45 d8	 mov	 eax, DWORD PTR __Count$[ebp+4]
  0029c	50		 push	 eax
  0029d	8b 4d d4	 mov	 ecx, DWORD PTR __Count$[ebp]
  002a0	51		 push	 ecx
  002a1	8b 55 0c	 mov	 edx, DWORD PTR __Val$[ebp]
  002a4	52		 push	 edx
  002a5	8b 8d b0 fe ff
	ff		 mov	 ecx, DWORD PTR tv287[ebp]
  002ab	ff 15 00 00 00
	00		 call	 DWORD PTR __imp_?sputn@?$basic_streambuf@DU?$char_traits@D@std@@@std@@QAE_JPBD_J@Z
  002b1	3b f4		 cmp	 esi, esp
  002b3	e8 00 00 00 00	 call	 __RTC_CheckEsp
  002b8	89 85 a8 fe ff
	ff		 mov	 DWORD PTR tv288[ebp], eax
  002be	89 95 ac fe ff
	ff		 mov	 DWORD PTR tv288[ebp+4], edx
  002c4	8b 85 a8 fe ff
	ff		 mov	 eax, DWORD PTR tv288[ebp]
  002ca	3b 45 d4	 cmp	 eax, DWORD PTR __Count$[ebp]
  002cd	75 0b		 jne	 SHORT $LN27@operator
  002cf	8b 8d ac fe ff
	ff		 mov	 ecx, DWORD PTR tv288[ebp+4]
  002d5	3b 4d d8	 cmp	 ecx, DWORD PTR __Count$[ebp+4]
  002d8	74 09		 je	 SHORT $LN13@operator
$LN27@operator:

; 757  :             _State |= ios_base::badbit;

  002da	8b 45 e4	 mov	 eax, DWORD PTR __State$[ebp]
  002dd	83 c8 04	 or	 eax, 4
  002e0	89 45 e4	 mov	 DWORD PTR __State$[ebp], eax
$LN13@operator:

; 758  :         }
; 759  : 
; 760  :         if (_State == ios_base::goodbit) {

  002e3	83 7d e4 00	 cmp	 DWORD PTR __State$[ebp], 0
  002e7	0f 85 d5 00 00
	00		 jne	 $LN14@operator

; 761  :             for (; 0 < _Pad; --_Pad) { // pad on right

  002ed	eb 12		 jmp	 SHORT $LN7@operator
$LN5@operator:
  002ef	8b 45 c4	 mov	 eax, DWORD PTR __Pad$[ebp]
  002f2	83 e8 01	 sub	 eax, 1
  002f5	8b 4d c8	 mov	 ecx, DWORD PTR __Pad$[ebp+4]
  002f8	83 d9 00	 sbb	 ecx, 0
  002fb	89 45 c4	 mov	 DWORD PTR __Pad$[ebp], eax
  002fe	89 4d c8	 mov	 DWORD PTR __Pad$[ebp+4], ecx
$LN7@operator:
  00301	83 7d c8 00	 cmp	 DWORD PTR __Pad$[ebp+4], 0
  00305	0f 8c b7 00 00
	00		 jl	 $LN14@operator
  0030b	7f 0a		 jg	 SHORT $LN28@operator
  0030d	83 7d c4 00	 cmp	 DWORD PTR __Pad$[ebp], 0
  00311	0f 86 ab 00 00
	00		 jbe	 $LN14@operator
$LN28@operator:

; 762  :                 if (_Traits::eq_int_type(_Traits::eof(), _Ostr.rdbuf()->sputc(_Ostr.fill()))) {

  00317	8b 45 08	 mov	 eax, DWORD PTR __Ostr$[ebp]
  0031a	8b 08		 mov	 ecx, DWORD PTR [eax]
  0031c	8b 55 08	 mov	 edx, DWORD PTR __Ostr$[ebp]
  0031f	03 51 04	 add	 edx, DWORD PTR [ecx+4]
  00322	8b f4		 mov	 esi, esp
  00324	8b ca		 mov	 ecx, edx
  00326	ff 15 00 00 00
	00		 call	 DWORD PTR __imp_?fill@?$basic_ios@DU?$char_traits@D@std@@@std@@QBEDXZ
  0032c	3b f4		 cmp	 esi, esp
  0032e	e8 00 00 00 00	 call	 __RTC_CheckEsp
  00333	88 85 b3 fe ff
	ff		 mov	 BYTE PTR tv289[ebp], al
  00339	8b 45 08	 mov	 eax, DWORD PTR __Ostr$[ebp]
  0033c	8b 08		 mov	 ecx, DWORD PTR [eax]
  0033e	8b 55 08	 mov	 edx, DWORD PTR __Ostr$[ebp]
  00341	03 51 04	 add	 edx, DWORD PTR [ecx+4]
  00344	8b f4		 mov	 esi, esp
  00346	8b ca		 mov	 ecx, edx
  00348	ff 15 00 00 00
	00		 call	 DWORD PTR __imp_?rdbuf@?$basic_ios@DU?$char_traits@D@std@@@std@@QBEPAV?$basic_streambuf@DU?$char_traits@D@std@@@2@XZ
  0034e	3b f4		 cmp	 esi, esp
  00350	e8 00 00 00 00	 call	 __RTC_CheckEsp
  00355	89 85 ac fe ff
	ff		 mov	 DWORD PTR tv290[ebp], eax
  0035b	8b f4		 mov	 esi, esp
  0035d	0f b6 85 b3 fe
	ff ff		 movzx	 eax, BYTE PTR tv289[ebp]
  00364	50		 push	 eax
  00365	8b 8d ac fe ff
	ff		 mov	 ecx, DWORD PTR tv290[ebp]
  0036b	ff 15 00 00 00
	00		 call	 DWORD PTR __imp_?sputc@?$basic_streambuf@DU?$char_traits@D@std@@@std@@QAEHD@Z
  00371	3b f4		 cmp	 esi, esp
  00373	e8 00 00 00 00	 call	 __RTC_CheckEsp
  00378	89 85 a8 fe ff
	ff		 mov	 DWORD PTR tv291[ebp], eax
  0037e	8b 8d a8 fe ff
	ff		 mov	 ecx, DWORD PTR tv291[ebp]
  00384	89 8d d0 fe ff
	ff		 mov	 DWORD PTR $T4[ebp], ecx
  0038a	e8 00 00 00 00	 call	 ?eof@?$_Narrow_char_traits@DH@std@@SAHXZ ; std::_Narrow_char_traits<char,int>::eof
  0038f	89 85 c4 fe ff
	ff		 mov	 DWORD PTR $T3[ebp], eax
  00395	8d 95 d0 fe ff
	ff		 lea	 edx, DWORD PTR $T4[ebp]
  0039b	52		 push	 edx
  0039c	8d 85 c4 fe ff
	ff		 lea	 eax, DWORD PTR $T3[ebp]
  003a2	50		 push	 eax
  003a3	e8 00 00 00 00	 call	 ?eq_int_type@?$_Narrow_char_traits@DH@std@@SA_NABH0@Z ; std::_Narrow_char_traits<char,int>::eq_int_type
  003a8	83 c4 08	 add	 esp, 8
  003ab	0f b6 c8	 movzx	 ecx, al
  003ae	85 c9		 test	 ecx, ecx
  003b0	74 0b		 je	 SHORT $LN15@operator

; 763  :                     _State |= ios_base::badbit; // insertion failed, quit

  003b2	8b 45 e4	 mov	 eax, DWORD PTR __State$[ebp]
  003b5	83 c8 04	 or	 eax, 4
  003b8	89 45 e4	 mov	 DWORD PTR __State$[ebp], eax

; 764  :                     break;

  003bb	eb 05		 jmp	 SHORT $LN14@operator
$LN15@operator:

; 765  :                 }
; 766  :             }

  003bd	e9 2d ff ff ff	 jmp	 $LN5@operator
$LN14@operator:

; 767  :         }
; 768  : 
; 769  :         _Ostr.width(0);

  003c2	8b f4		 mov	 esi, esp
  003c4	6a 00		 push	 0
  003c6	6a 00		 push	 0
  003c8	8b 45 08	 mov	 eax, DWORD PTR __Ostr$[ebp]
  003cb	8b 08		 mov	 ecx, DWORD PTR [eax]
  003cd	8b 55 08	 mov	 edx, DWORD PTR __Ostr$[ebp]
  003d0	03 51 04	 add	 edx, DWORD PTR [ecx+4]
  003d3	8b ca		 mov	 ecx, edx
  003d5	ff 15 00 00 00
	00		 call	 DWORD PTR __imp_?width@ios_base@std@@QAE_J_J@Z
  003db	3b f4		 cmp	 esi, esp
  003dd	e8 00 00 00 00	 call	 __RTC_CheckEsp
  003e2	eb 26		 jmp	 SHORT $LN19@operator
__catch$??$?6U?$char_traits@D@std@@@std@@YAAAV?$basic_ostream@DU?$char_traits@D@std@@@0@AAV10@PBD@Z$0:

; 770  :         _CATCH_IO_(ios_base, _Ostr)

  003e4	8b f4		 mov	 esi, esp
  003e6	6a 01		 push	 1
  003e8	6a 04		 push	 4
  003ea	8b 45 08	 mov	 eax, DWORD PTR __Ostr$[ebp]
  003ed	8b 08		 mov	 ecx, DWORD PTR [eax]
  003ef	8b 55 08	 mov	 edx, DWORD PTR __Ostr$[ebp]
  003f2	03 51 04	 add	 edx, DWORD PTR [ecx+4]
  003f5	8b ca		 mov	 ecx, edx
  003f7	ff 15 00 00 00
	00		 call	 DWORD PTR __imp_?setstate@?$basic_ios@DU?$char_traits@D@std@@@std@@QAEXH_N@Z
  003fd	3b f4		 cmp	 esi, esp
  003ff	e8 00 00 00 00	 call	 __RTC_CheckEsp
  00404	b8 00 00 00 00	 mov	 eax, $LN23@operator
  00409	c3		 ret	 0
$LN19@operator:
  0040a	c7 45 fc 00 00
	00 00		 mov	 DWORD PTR __$EHRec$[ebp+12], 0
  00411	eb 07		 jmp	 SHORT $LN9@operator
$LN23@operator:
  00413	c7 45 fc 00 00
	00 00		 mov	 DWORD PTR __$EHRec$[ebp+12], 0
$LN9@operator:

; 771  :     }
; 772  : 
; 773  :     _Ostr.setstate(_State);

  0041a	8b f4		 mov	 esi, esp
  0041c	6a 00		 push	 0
  0041e	8b 45 e4	 mov	 eax, DWORD PTR __State$[ebp]
  00421	50		 push	 eax
  00422	8b 4d 08	 mov	 ecx, DWORD PTR __Ostr$[ebp]
  00425	8b 11		 mov	 edx, DWORD PTR [ecx]
  00427	8b 4d 08	 mov	 ecx, DWORD PTR __Ostr$[ebp]
  0042a	03 4a 04	 add	 ecx, DWORD PTR [edx+4]
  0042d	ff 15 00 00 00
	00		 call	 DWORD PTR __imp_?setstate@?$basic_ios@DU?$char_traits@D@std@@@std@@QAEXH_N@Z
  00433	3b f4		 cmp	 esi, esp
  00435	e8 00 00 00 00	 call	 __RTC_CheckEsp

; 774  :     return _Ostr;

  0043a	8b 45 08	 mov	 eax, DWORD PTR __Ostr$[ebp]
  0043d	89 85 b8 fe ff
	ff		 mov	 DWORD PTR $T2[ebp], eax
  00443	c7 45 fc ff ff
	ff ff		 mov	 DWORD PTR __$EHRec$[ebp+12], -1
  0044a	8d 4d b4	 lea	 ecx, DWORD PTR __Ok$[ebp]
  0044d	e8 00 00 00 00	 call	 ??1sentry@?$basic_ostream@DU?$char_traits@D@std@@@std@@QAE@XZ ; std::basic_ostream<char,std::char_traits<char> >::sentry::~sentry
  00452	8b 85 b8 fe ff
	ff		 mov	 eax, DWORD PTR $T2[ebp]

; 775  : }

  00458	52		 push	 edx
  00459	8b cd		 mov	 ecx, ebp
  0045b	50		 push	 eax
  0045c	8d 15 00 00 00
	00		 lea	 edx, DWORD PTR $LN32@operator
  00462	e8 00 00 00 00	 call	 @_RTC_CheckStackVars@8
  00467	58		 pop	 eax
  00468	5a		 pop	 edx
  00469	8b 4d f4	 mov	 ecx, DWORD PTR __$EHRec$[ebp+4]
  0046c	64 89 0d 00 00
	00 00		 mov	 DWORD PTR fs:0, ecx
  00473	59		 pop	 ecx
  00474	5f		 pop	 edi
  00475	5e		 pop	 esi
  00476	5b		 pop	 ebx
  00477	8b 4d ec	 mov	 ecx, DWORD PTR __$ArrayPad$[ebp]
  0047a	33 cd		 xor	 ecx, ebp
  0047c	e8 00 00 00 00	 call	 @__security_check_cookie@4
  00481	81 c4 64 01 00
	00		 add	 esp, 356		; 00000164H
  00487	3b ec		 cmp	 ebp, esp
  00489	e8 00 00 00 00	 call	 __RTC_CheckEsp
  0048e	8b e5		 mov	 esp, ebp
  00490	5d		 pop	 ebp
  00491	c3		 ret	 0
  00492	66 90		 npad	 2
$LN32@operator:
  00494	01 00 00 00	 DD	 1
  00498	00 00 00 00	 DD	 $LN31@operator
$LN31@operator:
  0049c	b4 ff ff ff	 DD	 -76			; ffffffb4H
  004a0	08 00 00 00	 DD	 8
  004a4	00 00 00 00	 DD	 $LN29@operator
$LN29@operator:
  004a8	5f		 DB	 95			; 0000005fH
  004a9	4f		 DB	 79			; 0000004fH
  004aa	6b		 DB	 107			; 0000006bH
  004ab	00		 DB	 0
_TEXT	ENDS
;	COMDAT text$x
text$x	SEGMENT
__unwindfunclet$??$?6U?$char_traits@D@std@@@std@@YAAAV?$basic_ostream@DU?$char_traits@D@std@@@0@AAV10@PBD@Z$2:
  00000	8d 4d b4	 lea	 ecx, DWORD PTR __Ok$[ebp]
  00003	e9 00 00 00 00	 jmp	 ??1sentry@?$basic_ostream@DU?$char_traits@D@std@@@std@@QAE@XZ ; std::basic_ostream<char,std::char_traits<char> >::sentry::~sentry
  00008	cc		 int	 3
  00009	cc		 int	 3
  0000a	cc		 int	 3
  0000b	cc		 int	 3
  0000c	cc		 int	 3
__ehhandler$??$?6U?$char_traits@D@std@@@std@@YAAAV?$basic_ostream@DU?$char_traits@D@std@@@0@AAV10@PBD@Z:
  0000d	90		 npad	 1
  0000e	90		 npad	 1
  0000f	8b 54 24 08	 mov	 edx, DWORD PTR [esp+8]
  00013	8d 42 0c	 lea	 eax, DWORD PTR [edx+12]
  00016	8b 8a 98 fe ff
	ff		 mov	 ecx, DWORD PTR [edx-360]
  0001c	33 c8		 xor	 ecx, eax
  0001e	e8 00 00 00 00	 call	 @__security_check_cookie@4
  00023	8b 4a f8	 mov	 ecx, DWORD PTR [edx-8]
  00026	33 c8		 xor	 ecx, eax
  00028	e8 00 00 00 00	 call	 @__security_check_cookie@4
  0002d	b8 00 00 00 00	 mov	 eax, OFFSET __ehfuncinfo$??$?6U?$char_traits@D@std@@@std@@YAAAV?$basic_ostream@DU?$char_traits@D@std@@@0@AAV10@PBD@Z
  00032	e9 00 00 00 00	 jmp	 ___CxxFrameHandler3
text$x	ENDS
??$?6U?$char_traits@D@std@@@std@@YAAAV?$basic_ostream@DU?$char_traits@D@std@@@0@AAV10@PBD@Z ENDP ; std::operator<<<std::char_traits<char> >
; Function compile flags: /Odtp /RTCsu /ZI
; File F:\лабы\КПО\1 лаба\kpo_lab1v2\kpo_lab1v2\kpo_lab1v2.cpp
;	COMDAT _main
_TEXT	SEGMENT
tv77 = -248						; size = 4
_k$ = -48						; size = 4
_day$ = -36						; size = 4
_month$ = -24						; size = 4
_year$ = -12						; size = 4
__$ArrayPad$ = -4					; size = 4
_main	PROC						; COMDAT

; 12   : {

  00000	55		 push	 ebp
  00001	8b ec		 mov	 ebp, esp
  00003	81 ec f8 00 00
	00		 sub	 esp, 248		; 000000f8H
  00009	53		 push	 ebx
  0000a	56		 push	 esi
  0000b	57		 push	 edi
  0000c	8d 7d c8	 lea	 edi, DWORD PTR [ebp-56]
  0000f	b9 0e 00 00 00	 mov	 ecx, 14			; 0000000eH
  00014	b8 cc cc cc cc	 mov	 eax, -858993460		; ccccccccH
  00019	f3 ab		 rep stosd
  0001b	a1 00 00 00 00	 mov	 eax, DWORD PTR ___security_cookie
  00020	33 c5		 xor	 eax, ebp
  00022	89 45 fc	 mov	 DWORD PTR __$ArrayPad$[ebp], eax
  00025	b9 00 00 00 00	 mov	 ecx, OFFSET __94B3D082_kpo_lab1v2@cpp
  0002a	e8 00 00 00 00	 call	 @__CheckForDebuggerJustMyCode@4

; 13   :     setlocale(LC_CTYPE, "RUS");

  0002f	8b f4		 mov	 esi, esp
  00031	68 00 00 00 00	 push	 OFFSET ??_C@_03EEFOAFAG@RUS@
  00036	6a 02		 push	 2
  00038	ff 15 00 00 00
	00		 call	 DWORD PTR __imp__setlocale
  0003e	83 c4 08	 add	 esp, 8
  00041	3b f4		 cmp	 esi, esp
  00043	e8 00 00 00 00	 call	 __RTC_CheckEsp

; 14   :     int year = 0;

  00048	c7 45 f4 00 00
	00 00		 mov	 DWORD PTR _year$[ebp], 0

; 15   :     int month = 0;

  0004f	c7 45 e8 00 00
	00 00		 mov	 DWORD PTR _month$[ebp], 0

; 16   :     int day = 0;

  00056	c7 45 dc 00 00
	00 00		 mov	 DWORD PTR _day$[ebp], 0

; 17   : 
; 18   :     forInput(&day, &month, &year);

  0005d	8d 45 f4	 lea	 eax, DWORD PTR _year$[ebp]
  00060	50		 push	 eax
  00061	8d 4d e8	 lea	 ecx, DWORD PTR _month$[ebp]
  00064	51		 push	 ecx
  00065	8d 55 dc	 lea	 edx, DWORD PTR _day$[ebp]
  00068	52		 push	 edx
  00069	e8 00 00 00 00	 call	 ?forInput@@YAXPAH00@Z	; forInput
  0006e	83 c4 0c	 add	 esp, 12			; 0000000cH
$LN4@main:

; 19   : 
; 20   :     int k;
; 21   :     do
; 22   :     {
; 23   :         cout << "Р’С‹Р±РµСЂРёС‚Рµ С„СѓРЅРєС†РёСЋ:\n 1 - РѕРїСЂРµРґРµР»РёС‚СЊ, СЏРІР»СЏРµС‚СЃСЏ Р»Рё РІРІРµРґРµРЅРЅС‹Р№ РіРѕРґ РІРёСЃРѕРєРѕСЃРЅС‹Рј\n 2 - РІС‹С‡РёСЃР»РёС‚СЊ РїРѕСЂСЏРґРєРѕРІС‹Р№ РЅРѕРјРµСЂ РІРІРµРґРµРЅРЅРѕРіРѕ РґРЅСЏ РІ РіРѕРґСѓ\n 3 - РІС‹С‡РёСЃР»РёС‚СЊ СЃРєРѕР»СЊРєРѕ РґРЅРµР№ РѕСЃС‚Р°Р»РѕСЃСЊ РґРѕ Р±Р»РёР¶Р°Р№С€РµРіРѕ РґРЅСЏ РІР°С€РµРіРѕ СЂРѕР¶РґРµРЅРёСЏ\n 4 - РІРІРµСЃС‚Рё РЅРѕРІСѓСЋ РґР°С‚Сѓ\n 5 - РІС‹С…РѕРґ" << endl;

  00071	8b f4		 mov	 esi, esp
  00073	68 00 00 00 00	 push	 OFFSET ??$endl@DU?$char_traits@D@std@@@std@@YAAAV?$basic_ostream@DU?$char_traits@D@std@@@0@AAV10@@Z ; std::endl<char,std::char_traits<char> >
  00078	68 00 00 00 00	 push	 OFFSET ??_C@_0OH@HLCNKNIA@?B?$PL?a?e?p?h?r?e?5?t?s?m?j?v?h?$PO?3?6?51?5?9?5?n?o?p?e?d?e?k?h@
  0007d	a1 00 00 00 00	 mov	 eax, DWORD PTR __imp_?cout@std@@3V?$basic_ostream@DU?$char_traits@D@std@@@1@A
  00082	50		 push	 eax
  00083	e8 00 00 00 00	 call	 ??$?6U?$char_traits@D@std@@@std@@YAAAV?$basic_ostream@DU?$char_traits@D@std@@@0@AAV10@PBD@Z ; std::operator<<<std::char_traits<char> >
  00088	83 c4 08	 add	 esp, 8
  0008b	8b c8		 mov	 ecx, eax
  0008d	ff 15 00 00 00
	00		 call	 DWORD PTR __imp_??6?$basic_ostream@DU?$char_traits@D@std@@@std@@QAEAAV01@P6AAAV01@AAV01@@Z@Z
  00093	3b f4		 cmp	 esi, esp
  00095	e8 00 00 00 00	 call	 __RTC_CheckEsp

; 24   :         cin >> k; cout << endl;

  0009a	8b f4		 mov	 esi, esp
  0009c	8d 45 d0	 lea	 eax, DWORD PTR _k$[ebp]
  0009f	50		 push	 eax
  000a0	8b 0d 00 00 00
	00		 mov	 ecx, DWORD PTR __imp_?cin@std@@3V?$basic_istream@DU?$char_traits@D@std@@@1@A
  000a6	ff 15 00 00 00
	00		 call	 DWORD PTR __imp_??5?$basic_istream@DU?$char_traits@D@std@@@std@@QAEAAV01@AAH@Z
  000ac	3b f4		 cmp	 esi, esp
  000ae	e8 00 00 00 00	 call	 __RTC_CheckEsp
  000b3	8b f4		 mov	 esi, esp
  000b5	68 00 00 00 00	 push	 OFFSET ??$endl@DU?$char_traits@D@std@@@std@@YAAAV?$basic_ostream@DU?$char_traits@D@std@@@0@AAV10@@Z ; std::endl<char,std::char_traits<char> >
  000ba	8b 0d 00 00 00
	00		 mov	 ecx, DWORD PTR __imp_?cout@std@@3V?$basic_ostream@DU?$char_traits@D@std@@@1@A
  000c0	ff 15 00 00 00
	00		 call	 DWORD PTR __imp_??6?$basic_ostream@DU?$char_traits@D@std@@@std@@QAEAAV01@P6AAAV01@AAV01@@Z@Z
  000c6	3b f4		 cmp	 esi, esp
  000c8	e8 00 00 00 00	 call	 __RTC_CheckEsp

; 25   :         switch (k)

  000cd	8b 45 d0	 mov	 eax, DWORD PTR _k$[ebp]
  000d0	89 85 08 ff ff
	ff		 mov	 DWORD PTR tv77[ebp], eax
  000d6	8b 8d 08 ff ff
	ff		 mov	 ecx, DWORD PTR tv77[ebp]
  000dc	83 e9 01	 sub	 ecx, 1
  000df	89 8d 08 ff ff
	ff		 mov	 DWORD PTR tv77[ebp], ecx
  000e5	83 bd 08 ff ff
	ff 04		 cmp	 DWORD PTR tv77[ebp], 4
  000ec	0f 87 91 01 00
	00		 ja	 $LN14@main
  000f2	8b 95 08 ff ff
	ff		 mov	 edx, DWORD PTR tv77[ebp]
  000f8	ff 24 95 00 00
	00 00		 jmp	 DWORD PTR $LN18@main[edx*4]
$LN7@main:

; 26   :         {
; 27   :         case 1: {
; 28   :             if (CheackLeapYear(year))

  000ff	8b 45 f4	 mov	 eax, DWORD PTR _year$[ebp]
  00102	50		 push	 eax
  00103	e8 00 00 00 00	 call	 ?CheackLeapYear@@YA_NH@Z ; CheackLeapYear
  00108	83 c4 04	 add	 esp, 4
  0010b	0f b6 c8	 movzx	 ecx, al
  0010e	85 c9		 test	 ecx, ecx
  00110	74 2b		 je	 SHORT $LN8@main

; 29   :                 cout << "Р“РѕРґ РІРёСЃРѕРєРѕСЃРЅС‹Р№" << endl;

  00112	8b f4		 mov	 esi, esp
  00114	68 00 00 00 00	 push	 OFFSET ??$endl@DU?$char_traits@D@std@@@std@@YAAAV?$basic_ostream@DU?$char_traits@D@std@@@0@AAV10@@Z ; std::endl<char,std::char_traits<char> >
  00119	68 00 00 00 00	 push	 OFFSET ??_C@_0P@KPEAGGJF@?C?n?d?5?b?h?q?n?j?n?q?m?$PL?i@
  0011e	a1 00 00 00 00	 mov	 eax, DWORD PTR __imp_?cout@std@@3V?$basic_ostream@DU?$char_traits@D@std@@@1@A
  00123	50		 push	 eax
  00124	e8 00 00 00 00	 call	 ??$?6U?$char_traits@D@std@@@std@@YAAAV?$basic_ostream@DU?$char_traits@D@std@@@0@AAV10@PBD@Z ; std::operator<<<std::char_traits<char> >
  00129	83 c4 08	 add	 esp, 8
  0012c	8b c8		 mov	 ecx, eax
  0012e	ff 15 00 00 00
	00		 call	 DWORD PTR __imp_??6?$basic_ostream@DU?$char_traits@D@std@@@std@@QAEAAV01@P6AAAV01@AAV01@@Z@Z
  00134	3b f4		 cmp	 esi, esp
  00136	e8 00 00 00 00	 call	 __RTC_CheckEsp
  0013b	eb 29		 jmp	 SHORT $LN9@main
$LN8@main:

; 30   :             else
; 31   :                 cout << "Р“РѕРґ РЅРµ РІРёСЃРѕРєРѕСЃРЅС‹Р№" << endl;

  0013d	8b f4		 mov	 esi, esp
  0013f	68 00 00 00 00	 push	 OFFSET ??$endl@DU?$char_traits@D@std@@@std@@YAAAV?$basic_ostream@DU?$char_traits@D@std@@@0@AAV10@@Z ; std::endl<char,std::char_traits<char> >
  00144	68 00 00 00 00	 push	 OFFSET ??_C@_0BC@GEBLIKEH@?C?n?d?5?m?e?5?b?h?q?n?j?n?q?m?$PL?i@
  00149	a1 00 00 00 00	 mov	 eax, DWORD PTR __imp_?cout@std@@3V?$basic_ostream@DU?$char_traits@D@std@@@1@A
  0014e	50		 push	 eax
  0014f	e8 00 00 00 00	 call	 ??$?6U?$char_traits@D@std@@@std@@YAAAV?$basic_ostream@DU?$char_traits@D@std@@@0@AAV10@PBD@Z ; std::operator<<<std::char_traits<char> >
  00154	83 c4 08	 add	 esp, 8
  00157	8b c8		 mov	 ecx, eax
  00159	ff 15 00 00 00
	00		 call	 DWORD PTR __imp_??6?$basic_ostream@DU?$char_traits@D@std@@@std@@QAEAAV01@P6AAAV01@AAV01@@Z@Z
  0015f	3b f4		 cmp	 esi, esp
  00161	e8 00 00 00 00	 call	 __RTC_CheckEsp
$LN9@main:

; 32   :             cout << endl;

  00166	8b f4		 mov	 esi, esp
  00168	68 00 00 00 00	 push	 OFFSET ??$endl@DU?$char_traits@D@std@@@std@@YAAAV?$basic_ostream@DU?$char_traits@D@std@@@0@AAV10@@Z ; std::endl<char,std::char_traits<char> >
  0016d	8b 0d 00 00 00
	00		 mov	 ecx, DWORD PTR __imp_?cout@std@@3V?$basic_ostream@DU?$char_traits@D@std@@@1@A
  00173	ff 15 00 00 00
	00		 call	 DWORD PTR __imp_??6?$basic_ostream@DU?$char_traits@D@std@@@std@@QAEAAV01@P6AAAV01@AAV01@@Z@Z
  00179	3b f4		 cmp	 esi, esp
  0017b	e8 00 00 00 00	 call	 __RTC_CheckEsp

; 33   :         } break;

  00180	e9 5d 01 00 00	 jmp	 $LN2@main
$LN10@main:

; 34   :         case 2: {
; 35   :             cout << "РџРѕСЂСЏРґРєРѕРІС‹Р№ РЅРѕРјРµСЂ РґРЅСЏ: " << GetOrdinalNumber(day, month, year) << endl; cout << endl;

  00185	8b f4		 mov	 esi, esp
  00187	68 00 00 00 00	 push	 OFFSET ??$endl@DU?$char_traits@D@std@@@std@@YAAAV?$basic_ostream@DU?$char_traits@D@std@@@0@AAV10@@Z ; std::endl<char,std::char_traits<char> >
  0018c	8b 45 f4	 mov	 eax, DWORD PTR _year$[ebp]
  0018f	50		 push	 eax
  00190	8b 4d e8	 mov	 ecx, DWORD PTR _month$[ebp]
  00193	51		 push	 ecx
  00194	8b 55 dc	 mov	 edx, DWORD PTR _day$[ebp]
  00197	52		 push	 edx
  00198	e8 00 00 00 00	 call	 ?GetOrdinalNumber@@YAHHHH@Z ; GetOrdinalNumber
  0019d	83 c4 0c	 add	 esp, 12			; 0000000cH
  001a0	8b fc		 mov	 edi, esp
  001a2	50		 push	 eax
  001a3	68 00 00 00 00	 push	 OFFSET ??_C@_0BH@KNEJGAJJ@?O?n?p?$PP?d?j?n?b?$PL?i?5?m?n?l?e?p?5?d?m?$PP?3?5@
  001a8	a1 00 00 00 00	 mov	 eax, DWORD PTR __imp_?cout@std@@3V?$basic_ostream@DU?$char_traits@D@std@@@1@A
  001ad	50		 push	 eax
  001ae	e8 00 00 00 00	 call	 ??$?6U?$char_traits@D@std@@@std@@YAAAV?$basic_ostream@DU?$char_traits@D@std@@@0@AAV10@PBD@Z ; std::operator<<<std::char_traits<char> >
  001b3	83 c4 08	 add	 esp, 8
  001b6	8b c8		 mov	 ecx, eax
  001b8	ff 15 00 00 00
	00		 call	 DWORD PTR __imp_??6?$basic_ostream@DU?$char_traits@D@std@@@std@@QAEAAV01@H@Z
  001be	3b fc		 cmp	 edi, esp
  001c0	e8 00 00 00 00	 call	 __RTC_CheckEsp
  001c5	8b c8		 mov	 ecx, eax
  001c7	ff 15 00 00 00
	00		 call	 DWORD PTR __imp_??6?$basic_ostream@DU?$char_traits@D@std@@@std@@QAEAAV01@P6AAAV01@AAV01@@Z@Z
  001cd	3b f4		 cmp	 esi, esp
  001cf	e8 00 00 00 00	 call	 __RTC_CheckEsp
  001d4	8b f4		 mov	 esi, esp
  001d6	68 00 00 00 00	 push	 OFFSET ??$endl@DU?$char_traits@D@std@@@std@@YAAAV?$basic_ostream@DU?$char_traits@D@std@@@0@AAV10@@Z ; std::endl<char,std::char_traits<char> >
  001db	8b 0d 00 00 00
	00		 mov	 ecx, DWORD PTR __imp_?cout@std@@3V?$basic_ostream@DU?$char_traits@D@std@@@1@A
  001e1	ff 15 00 00 00
	00		 call	 DWORD PTR __imp_??6?$basic_ostream@DU?$char_traits@D@std@@@std@@QAEAAV01@P6AAAV01@AAV01@@Z@Z
  001e7	3b f4		 cmp	 esi, esp
  001e9	e8 00 00 00 00	 call	 __RTC_CheckEsp

; 36   :         }
; 37   :               break;

  001ee	e9 ef 00 00 00	 jmp	 $LN2@main
$LN11@main:

; 38   :         case 3: {
; 39   :             cout << "Р’РІРµРґРёС‚Рµ РґР°С‚Сѓ РІР°С€РµРіРѕ РґРЅСЏ СЂРѕР¶РґРµРЅРёСЏ"<<endl;

  001f3	8b f4		 mov	 esi, esp
  001f5	68 00 00 00 00	 push	 OFFSET ??$endl@DU?$char_traits@D@std@@@std@@YAAAV?$basic_ostream@DU?$char_traits@D@std@@@0@AAV10@@Z ; std::endl<char,std::char_traits<char> >
  001fa	68 00 00 00 00	 push	 OFFSET ??_C@_0CB@DMLDBMFI@?B?b?e?d?h?r?e?5?d?$OA?r?s?5?b?$OA?x?e?c?n?5?d?m?$PP?5?p?n?f?d?e?m?h@
  001ff	a1 00 00 00 00	 mov	 eax, DWORD PTR __imp_?cout@std@@3V?$basic_ostream@DU?$char_traits@D@std@@@1@A
  00204	50		 push	 eax
  00205	e8 00 00 00 00	 call	 ??$?6U?$char_traits@D@std@@@std@@YAAAV?$basic_ostream@DU?$char_traits@D@std@@@0@AAV10@PBD@Z ; std::operator<<<std::char_traits<char> >
  0020a	83 c4 08	 add	 esp, 8
  0020d	8b c8		 mov	 ecx, eax
  0020f	ff 15 00 00 00
	00		 call	 DWORD PTR __imp_??6?$basic_ostream@DU?$char_traits@D@std@@@std@@QAEAAV01@P6AAAV01@AAV01@@Z@Z
  00215	3b f4		 cmp	 esi, esp
  00217	e8 00 00 00 00	 call	 __RTC_CheckEsp

; 40   :             GetDaysBeforeBirthday(day, month, year);

  0021c	8b 45 f4	 mov	 eax, DWORD PTR _year$[ebp]
  0021f	50		 push	 eax
  00220	8b 4d e8	 mov	 ecx, DWORD PTR _month$[ebp]
  00223	51		 push	 ecx
  00224	8b 55 dc	 mov	 edx, DWORD PTR _day$[ebp]
  00227	52		 push	 edx
  00228	e8 00 00 00 00	 call	 ?GetDaysBeforeBirthday@@YAHHHH@Z ; GetDaysBeforeBirthday
  0022d	83 c4 0c	 add	 esp, 12			; 0000000cH

; 41   :             cout << endl;

  00230	8b f4		 mov	 esi, esp
  00232	68 00 00 00 00	 push	 OFFSET ??$endl@DU?$char_traits@D@std@@@std@@YAAAV?$basic_ostream@DU?$char_traits@D@std@@@0@AAV10@@Z ; std::endl<char,std::char_traits<char> >
  00237	8b 0d 00 00 00
	00		 mov	 ecx, DWORD PTR __imp_?cout@std@@3V?$basic_ostream@DU?$char_traits@D@std@@@1@A
  0023d	ff 15 00 00 00
	00		 call	 DWORD PTR __imp_??6?$basic_ostream@DU?$char_traits@D@std@@@std@@QAEAAV01@P6AAAV01@AAV01@@Z@Z
  00243	3b f4		 cmp	 esi, esp
  00245	e8 00 00 00 00	 call	 __RTC_CheckEsp

; 42   :         }break;

  0024a	e9 93 00 00 00	 jmp	 $LN2@main
$LN12@main:

; 43   :         case 4: main(); cout << endl; break;

  0024f	e8 00 00 00 00	 call	 _main
  00254	8b f4		 mov	 esi, esp
  00256	68 00 00 00 00	 push	 OFFSET ??$endl@DU?$char_traits@D@std@@@std@@YAAAV?$basic_ostream@DU?$char_traits@D@std@@@0@AAV10@@Z ; std::endl<char,std::char_traits<char> >
  0025b	8b 0d 00 00 00
	00		 mov	 ecx, DWORD PTR __imp_?cout@std@@3V?$basic_ostream@DU?$char_traits@D@std@@@1@A
  00261	ff 15 00 00 00
	00		 call	 DWORD PTR __imp_??6?$basic_ostream@DU?$char_traits@D@std@@@std@@QAEAAV01@P6AAAV01@AAV01@@Z@Z
  00267	3b f4		 cmp	 esi, esp
  00269	e8 00 00 00 00	 call	 __RTC_CheckEsp
  0026e	eb 72		 jmp	 SHORT $LN2@main
$LN13@main:

; 44   :         case 5: exit(0); break;

  00270	8b f4		 mov	 esi, esp
  00272	6a 00		 push	 0
  00274	ff 15 00 00 00
	00		 call	 DWORD PTR __imp__exit
  0027a	3b f4		 cmp	 esi, esp
  0027c	e8 00 00 00 00	 call	 __RTC_CheckEsp
  00281	eb 5f		 jmp	 SHORT $LN2@main
$LN14@main:

; 45   :         default:
; 46   :             cout << "РќРµРёР·РІРµСЃС‚РЅР°СЏ РѕРїРµСЂР°С†РёСЏ, РїРѕР¶Р°Р»СѓР№СЃС‚Р° РІС‹Р±РµСЂРёС‚Рµ С†РёС„СЂСѓ РѕС‚ 1 РґРѕ 5" << endl; cout << endl;

  00283	8b f4		 mov	 esi, esp
  00285	68 00 00 00 00	 push	 OFFSET ??$endl@DU?$char_traits@D@std@@@std@@YAAAV?$basic_ostream@DU?$char_traits@D@std@@@0@AAV10@@Z ; std::endl<char,std::char_traits<char> >
  0028a	68 00 00 00 00	 push	 OFFSET ??_C@_0DK@MJBHBFKA@?M?e?h?g?b?e?q?r?m?$OA?$PP?5?n?o?e?p?$OA?v?h?$PP?0?5?o?n?f?$OA?k?s?i?q?r@
  0028f	a1 00 00 00 00	 mov	 eax, DWORD PTR __imp_?cout@std@@3V?$basic_ostream@DU?$char_traits@D@std@@@1@A
  00294	50		 push	 eax
  00295	e8 00 00 00 00	 call	 ??$?6U?$char_traits@D@std@@@std@@YAAAV?$basic_ostream@DU?$char_traits@D@std@@@0@AAV10@PBD@Z ; std::operator<<<std::char_traits<char> >
  0029a	83 c4 08	 add	 esp, 8
  0029d	8b c8		 mov	 ecx, eax
  0029f	ff 15 00 00 00
	00		 call	 DWORD PTR __imp_??6?$basic_ostream@DU?$char_traits@D@std@@@std@@QAEAAV01@P6AAAV01@AAV01@@Z@Z
  002a5	3b f4		 cmp	 esi, esp
  002a7	e8 00 00 00 00	 call	 __RTC_CheckEsp
  002ac	8b f4		 mov	 esi, esp
  002ae	68 00 00 00 00	 push	 OFFSET ??$endl@DU?$char_traits@D@std@@@std@@YAAAV?$basic_ostream@DU?$char_traits@D@std@@@0@AAV10@@Z ; std::endl<char,std::char_traits<char> >
  002b3	8b 0d 00 00 00
	00		 mov	 ecx, DWORD PTR __imp_?cout@std@@3V?$basic_ostream@DU?$char_traits@D@std@@@1@A
  002b9	ff 15 00 00 00
	00		 call	 DWORD PTR __imp_??6?$basic_ostream@DU?$char_traits@D@std@@@std@@QAEAAV01@P6AAAV01@AAV01@@Z@Z
  002bf	3b f4		 cmp	 esi, esp
  002c1	e8 00 00 00 00	 call	 __RTC_CheckEsp

; 47   :             break;

  002c6	eb 1a		 jmp	 SHORT $LN2@main

; 48   :             cout << endl;

  002c8	8b f4		 mov	 esi, esp
  002ca	68 00 00 00 00	 push	 OFFSET ??$endl@DU?$char_traits@D@std@@@std@@YAAAV?$basic_ostream@DU?$char_traits@D@std@@@0@AAV10@@Z ; std::endl<char,std::char_traits<char> >
  002cf	8b 0d 00 00 00
	00		 mov	 ecx, DWORD PTR __imp_?cout@std@@3V?$basic_ostream@DU?$char_traits@D@std@@@1@A
  002d5	ff 15 00 00 00
	00		 call	 DWORD PTR __imp_??6?$basic_ostream@DU?$char_traits@D@std@@@std@@QAEAAV01@P6AAAV01@AAV01@@Z@Z
  002db	3b f4		 cmp	 esi, esp
  002dd	e8 00 00 00 00	 call	 __RTC_CheckEsp
$LN2@main:

; 49   :         }
; 50   :     } while (k != 5);

  002e2	83 7d d0 05	 cmp	 DWORD PTR _k$[ebp], 5
  002e6	0f 85 85 fd ff
	ff		 jne	 $LN4@main

; 51   : }

  002ec	eb 02		 jmp	 SHORT $LN17@main
$LN15@main:
  002ee	eb 02		 jmp	 SHORT $LN16@main
$LN17@main:
  002f0	33 c0		 xor	 eax, eax
$LN16@main:
  002f2	52		 push	 edx
  002f3	8b cd		 mov	 ecx, ebp
  002f5	50		 push	 eax
  002f6	8d 15 00 00 00
	00		 lea	 edx, DWORD PTR $LN24@main
  002fc	e8 00 00 00 00	 call	 @_RTC_CheckStackVars@8
  00301	58		 pop	 eax
  00302	5a		 pop	 edx
  00303	5f		 pop	 edi
  00304	5e		 pop	 esi
  00305	5b		 pop	 ebx
  00306	8b 4d fc	 mov	 ecx, DWORD PTR __$ArrayPad$[ebp]
  00309	33 cd		 xor	 ecx, ebp
  0030b	e8 00 00 00 00	 call	 @__security_check_cookie@4
  00310	81 c4 f8 00 00
	00		 add	 esp, 248		; 000000f8H
  00316	3b ec		 cmp	 ebp, esp
  00318	e8 00 00 00 00	 call	 __RTC_CheckEsp
  0031d	8b e5		 mov	 esp, ebp
  0031f	5d		 pop	 ebp
  00320	c3		 ret	 0
  00321	0f 1f 00	 npad	 3
$LN24@main:
  00324	04 00 00 00	 DD	 4
  00328	00 00 00 00	 DD	 $LN23@main
$LN23@main:
  0032c	f4 ff ff ff	 DD	 -12			; fffffff4H
  00330	04 00 00 00	 DD	 4
  00334	00 00 00 00	 DD	 $LN19@main
  00338	e8 ff ff ff	 DD	 -24			; ffffffe8H
  0033c	04 00 00 00	 DD	 4
  00340	00 00 00 00	 DD	 $LN20@main
  00344	dc ff ff ff	 DD	 -36			; ffffffdcH
  00348	04 00 00 00	 DD	 4
  0034c	00 00 00 00	 DD	 $LN21@main
  00350	d0 ff ff ff	 DD	 -48			; ffffffd0H
  00354	04 00 00 00	 DD	 4
  00358	00 00 00 00	 DD	 $LN22@main
$LN22@main:
  0035c	6b		 DB	 107			; 0000006bH
  0035d	00		 DB	 0
$LN21@main:
  0035e	64		 DB	 100			; 00000064H
  0035f	61		 DB	 97			; 00000061H
  00360	79		 DB	 121			; 00000079H
  00361	00		 DB	 0
$LN20@main:
  00362	6d		 DB	 109			; 0000006dH
  00363	6f		 DB	 111			; 0000006fH
  00364	6e		 DB	 110			; 0000006eH
  00365	74		 DB	 116			; 00000074H
  00366	68		 DB	 104			; 00000068H
  00367	00		 DB	 0
$LN19@main:
  00368	79		 DB	 121			; 00000079H
  00369	65		 DB	 101			; 00000065H
  0036a	61		 DB	 97			; 00000061H
  0036b	72		 DB	 114			; 00000072H
  0036c	00		 DB	 0
  0036d	0f 1f 00	 npad	 3
$LN18@main:
  00370	00 00 00 00	 DD	 $LN7@main
  00374	00 00 00 00	 DD	 $LN10@main
  00378	00 00 00 00	 DD	 $LN11@main
  0037c	00 00 00 00	 DD	 $LN12@main
  00380	00 00 00 00	 DD	 $LN13@main
_main	ENDP
_TEXT	ENDS
; Function compile flags: /Odtp /RTCsu /ZI
; File F:\лабы\КПО\1 лаба\kpo_lab1v2\kpo_lab1v2\kpo_lab1v2.cpp
;	COMDAT ?GetDaysBeforeBirthday@@YAHHHH@Z
_TEXT	SEGMENT
_AllDays$ = -84						; size = 4
_BeforeBirthday$ = -72					; size = 4
_BirthdayOrdinalNumber$ = -60				; size = 4
_byear$ = -48						; size = 4
_bmonth$ = -36						; size = 4
_bday$ = -24						; size = 4
_CurrentOrdinalNumber$ = -12				; size = 4
__$ArrayPad$ = -4					; size = 4
_day$ = 8						; size = 4
_month$ = 12						; size = 4
_year$ = 16						; size = 4
?GetDaysBeforeBirthday@@YAHHHH@Z PROC			; GetDaysBeforeBirthday, COMDAT

; 196  : int GetDaysBeforeBirthday(int day, int month, int year) {

  00000	55		 push	 ebp
  00001	8b ec		 mov	 ebp, esp
  00003	81 ec 18 01 00
	00		 sub	 esp, 280		; 00000118H
  00009	53		 push	 ebx
  0000a	56		 push	 esi
  0000b	57		 push	 edi
  0000c	8d 7d a8	 lea	 edi, DWORD PTR [ebp-88]
  0000f	b9 16 00 00 00	 mov	 ecx, 22			; 00000016H
  00014	b8 cc cc cc cc	 mov	 eax, -858993460		; ccccccccH
  00019	f3 ab		 rep stosd
  0001b	a1 00 00 00 00	 mov	 eax, DWORD PTR ___security_cookie
  00020	33 c5		 xor	 eax, ebp
  00022	89 45 fc	 mov	 DWORD PTR __$ArrayPad$[ebp], eax
  00025	b9 00 00 00 00	 mov	 ecx, OFFSET __94B3D082_kpo_lab1v2@cpp
  0002a	e8 00 00 00 00	 call	 @__CheckForDebuggerJustMyCode@4

; 197  : 
; 198  :     int CurrentOrdinalNumber;
; 199  :     CurrentOrdinalNumber = GetOrdinalNumber(day, month, year);

  0002f	8b 45 10	 mov	 eax, DWORD PTR _year$[ebp]
  00032	50		 push	 eax
  00033	8b 4d 0c	 mov	 ecx, DWORD PTR _month$[ebp]
  00036	51		 push	 ecx
  00037	8b 55 08	 mov	 edx, DWORD PTR _day$[ebp]
  0003a	52		 push	 edx
  0003b	e8 00 00 00 00	 call	 ?GetOrdinalNumber@@YAHHHH@Z ; GetOrdinalNumber
  00040	83 c4 0c	 add	 esp, 12			; 0000000cH
  00043	89 45 f4	 mov	 DWORD PTR _CurrentOrdinalNumber$[ebp], eax

; 200  : 
; 201  :     int bday = 0, bmonth = 0, byear = 0;

  00046	c7 45 e8 00 00
	00 00		 mov	 DWORD PTR _bday$[ebp], 0
  0004d	c7 45 dc 00 00
	00 00		 mov	 DWORD PTR _bmonth$[ebp], 0
  00054	c7 45 d0 00 00
	00 00		 mov	 DWORD PTR _byear$[ebp], 0

; 202  :     forInput(&bday, &bmonth, &byear);

  0005b	8d 45 d0	 lea	 eax, DWORD PTR _byear$[ebp]
  0005e	50		 push	 eax
  0005f	8d 4d dc	 lea	 ecx, DWORD PTR _bmonth$[ebp]
  00062	51		 push	 ecx
  00063	8d 55 e8	 lea	 edx, DWORD PTR _bday$[ebp]
  00066	52		 push	 edx
  00067	e8 00 00 00 00	 call	 ?forInput@@YAXPAH00@Z	; forInput
  0006c	83 c4 0c	 add	 esp, 12			; 0000000cH

; 203  :     //
; 204  :     int BirthdayOrdinalNumber = 0;

  0006f	c7 45 c4 00 00
	00 00		 mov	 DWORD PTR _BirthdayOrdinalNumber$[ebp], 0

; 205  :     int BeforeBirthday = 0;

  00076	c7 45 b8 00 00
	00 00		 mov	 DWORD PTR _BeforeBirthday$[ebp], 0

; 206  :     int AllDays = 0;

  0007d	c7 45 ac 00 00
	00 00		 mov	 DWORD PTR _AllDays$[ebp], 0

; 207  :     if (CheackLeapYear(year)) {

  00084	8b 45 10	 mov	 eax, DWORD PTR _year$[ebp]
  00087	50		 push	 eax
  00088	e8 00 00 00 00	 call	 ?CheackLeapYear@@YA_NH@Z ; CheackLeapYear
  0008d	83 c4 04	 add	 esp, 4
  00090	0f b6 c8	 movzx	 ecx, al
  00093	85 c9		 test	 ecx, ecx
  00095	74 09		 je	 SHORT $LN5@GetDaysBef

; 208  :         AllDays = 366;

  00097	c7 45 ac 6e 01
	00 00		 mov	 DWORD PTR _AllDays$[ebp], 366 ; 0000016eH

; 209  :     }

  0009e	eb 07		 jmp	 SHORT $LN6@GetDaysBef
$LN5@GetDaysBef:

; 210  :     else {
; 211  :         AllDays = 365;

  000a0	c7 45 ac 6d 01
	00 00		 mov	 DWORD PTR _AllDays$[ebp], 365 ; 0000016dH
$LN6@GetDaysBef:

; 212  :     }
; 213  : 
; 214  :     if (year < byear) {

  000a7	8b 45 10	 mov	 eax, DWORD PTR _year$[ebp]
  000aa	3b 45 d0	 cmp	 eax, DWORD PTR _byear$[ebp]
  000ad	0f 8d d0 00 00
	00		 jge	 $LN7@GetDaysBef

; 215  :         cout << "Рљ СЃРѕР¶Р°Р»РµРЅРёСЋ РІС‹ РµС‰С‘ РЅРµ СЂРѕРґРµР»РёСЃСЊ";

  000b3	68 00 00 00 00	 push	 OFFSET ??_C@_0BP@LMBHMHKM@?J?5?q?n?f?$OA?k?e?m?h?$PO?5?b?$PL?5?e?y?$LI?5?m?e?5?p?n?d?e?k?h?q?$PM@
  000b8	a1 00 00 00 00	 mov	 eax, DWORD PTR __imp_?cout@std@@3V?$basic_ostream@DU?$char_traits@D@std@@@1@A
  000bd	50		 push	 eax
  000be	e8 00 00 00 00	 call	 ??$?6U?$char_traits@D@std@@@std@@YAAAV?$basic_ostream@DU?$char_traits@D@std@@@0@AAV10@PBD@Z ; std::operator<<<std::char_traits<char> >
  000c3	83 c4 08	 add	 esp, 8

; 216  :        BeforeBirthday = AllDays - GetOrdinalNumber(day, month, year);

  000c6	8b 45 10	 mov	 eax, DWORD PTR _year$[ebp]
  000c9	50		 push	 eax
  000ca	8b 4d 0c	 mov	 ecx, DWORD PTR _month$[ebp]
  000cd	51		 push	 ecx
  000ce	8b 55 08	 mov	 edx, DWORD PTR _day$[ebp]
  000d1	52		 push	 edx
  000d2	e8 00 00 00 00	 call	 ?GetOrdinalNumber@@YAHHHH@Z ; GetOrdinalNumber
  000d7	83 c4 0c	 add	 esp, 12			; 0000000cH
  000da	8b 4d ac	 mov	 ecx, DWORD PTR _AllDays$[ebp]
  000dd	2b c8		 sub	 ecx, eax
  000df	89 4d b8	 mov	 DWORD PTR _BeforeBirthday$[ebp], ecx

; 217  : 
; 218  :         for (; year < (byear-1); year++) {

  000e2	eb 09		 jmp	 SHORT $LN4@GetDaysBef
$LN2@GetDaysBef:
  000e4	8b 45 10	 mov	 eax, DWORD PTR _year$[ebp]
  000e7	83 c0 01	 add	 eax, 1
  000ea	89 45 10	 mov	 DWORD PTR _year$[ebp], eax
$LN4@GetDaysBef:
  000ed	8b 45 d0	 mov	 eax, DWORD PTR _byear$[ebp]
  000f0	83 e8 01	 sub	 eax, 1
  000f3	39 45 10	 cmp	 DWORD PTR _year$[ebp], eax
  000f6	7d 2d		 jge	 SHORT $LN3@GetDaysBef

; 219  :             if (CheackLeapYear(year)) {

  000f8	8b 45 10	 mov	 eax, DWORD PTR _year$[ebp]
  000fb	50		 push	 eax
  000fc	e8 00 00 00 00	 call	 ?CheackLeapYear@@YA_NH@Z ; CheackLeapYear
  00101	83 c4 04	 add	 esp, 4
  00104	0f b6 c8	 movzx	 ecx, al
  00107	85 c9		 test	 ecx, ecx
  00109	74 0d		 je	 SHORT $LN9@GetDaysBef

; 220  :                 BeforeBirthday += 366;

  0010b	8b 45 b8	 mov	 eax, DWORD PTR _BeforeBirthday$[ebp]
  0010e	05 6e 01 00 00	 add	 eax, 366		; 0000016eH
  00113	89 45 b8	 mov	 DWORD PTR _BeforeBirthday$[ebp], eax

; 221  :             }

  00116	eb 0b		 jmp	 SHORT $LN10@GetDaysBef
$LN9@GetDaysBef:

; 222  :             else {
; 223  :                 BeforeBirthday += 365;

  00118	8b 45 b8	 mov	 eax, DWORD PTR _BeforeBirthday$[ebp]
  0011b	05 6d 01 00 00	 add	 eax, 365		; 0000016dH
  00120	89 45 b8	 mov	 DWORD PTR _BeforeBirthday$[ebp], eax
$LN10@GetDaysBef:

; 224  :             }
; 225  :         }

  00123	eb bf		 jmp	 SHORT $LN2@GetDaysBef
$LN3@GetDaysBef:

; 226  :         BeforeBirthday += GetOrdinalNumber(bday, bmonth, year);

  00125	8b 45 10	 mov	 eax, DWORD PTR _year$[ebp]
  00128	50		 push	 eax
  00129	8b 4d dc	 mov	 ecx, DWORD PTR _bmonth$[ebp]
  0012c	51		 push	 ecx
  0012d	8b 55 e8	 mov	 edx, DWORD PTR _bday$[ebp]
  00130	52		 push	 edx
  00131	e8 00 00 00 00	 call	 ?GetOrdinalNumber@@YAHHHH@Z ; GetOrdinalNumber
  00136	83 c4 0c	 add	 esp, 12			; 0000000cH
  00139	03 45 b8	 add	 eax, DWORD PTR _BeforeBirthday$[ebp]
  0013c	89 45 b8	 mov	 DWORD PTR _BeforeBirthday$[ebp], eax

; 227  :         cout << "Р”РЅРµР№ РґРѕ РІР°С€РµРіРѕ СЂРѕР¶РґРµРЅРёСЏ: " << BeforeBirthday << endl;

  0013f	8b f4		 mov	 esi, esp
  00141	68 00 00 00 00	 push	 OFFSET ??$endl@DU?$char_traits@D@std@@@std@@YAAAV?$basic_ostream@DU?$char_traits@D@std@@@0@AAV10@@Z ; std::endl<char,std::char_traits<char> >
  00146	8b fc		 mov	 edi, esp
  00148	8b 45 b8	 mov	 eax, DWORD PTR _BeforeBirthday$[ebp]
  0014b	50		 push	 eax
  0014c	68 00 00 00 00	 push	 OFFSET ??_C@_0BK@HIPHAHND@?D?m?e?i?5?d?n?5?b?$OA?x?e?c?n?5?p?n?f?d?e?m?h?$PP?3?5@
  00151	8b 0d 00 00 00
	00		 mov	 ecx, DWORD PTR __imp_?cout@std@@3V?$basic_ostream@DU?$char_traits@D@std@@@1@A
  00157	51		 push	 ecx
  00158	e8 00 00 00 00	 call	 ??$?6U?$char_traits@D@std@@@std@@YAAAV?$basic_ostream@DU?$char_traits@D@std@@@0@AAV10@PBD@Z ; std::operator<<<std::char_traits<char> >
  0015d	83 c4 08	 add	 esp, 8
  00160	8b c8		 mov	 ecx, eax
  00162	ff 15 00 00 00
	00		 call	 DWORD PTR __imp_??6?$basic_ostream@DU?$char_traits@D@std@@@std@@QAEAAV01@H@Z
  00168	3b fc		 cmp	 edi, esp
  0016a	e8 00 00 00 00	 call	 __RTC_CheckEsp
  0016f	8b c8		 mov	 ecx, eax
  00171	ff 15 00 00 00
	00		 call	 DWORD PTR __imp_??6?$basic_ostream@DU?$char_traits@D@std@@@std@@QAEAAV01@P6AAAV01@AAV01@@Z@Z
  00177	3b f4		 cmp	 esi, esp
  00179	e8 00 00 00 00	 call	 __RTC_CheckEsp

; 228  :     }

  0017e	e9 ee 00 00 00	 jmp	 $LN8@GetDaysBef
$LN7@GetDaysBef:

; 229  :     else {
; 230  :         BirthdayOrdinalNumber = GetOrdinalNumber(bday, bmonth, year);

  00183	8b 45 10	 mov	 eax, DWORD PTR _year$[ebp]
  00186	50		 push	 eax
  00187	8b 4d dc	 mov	 ecx, DWORD PTR _bmonth$[ebp]
  0018a	51		 push	 ecx
  0018b	8b 55 e8	 mov	 edx, DWORD PTR _bday$[ebp]
  0018e	52		 push	 edx
  0018f	e8 00 00 00 00	 call	 ?GetOrdinalNumber@@YAHHHH@Z ; GetOrdinalNumber
  00194	83 c4 0c	 add	 esp, 12			; 0000000cH
  00197	89 45 c4	 mov	 DWORD PTR _BirthdayOrdinalNumber$[ebp], eax

; 231  :         BeforeBirthday = BirthdayOrdinalNumber - CurrentOrdinalNumber;

  0019a	8b 45 c4	 mov	 eax, DWORD PTR _BirthdayOrdinalNumber$[ebp]
  0019d	2b 45 f4	 sub	 eax, DWORD PTR _CurrentOrdinalNumber$[ebp]
  001a0	89 45 b8	 mov	 DWORD PTR _BeforeBirthday$[ebp], eax

; 232  :         if (BeforeBirthday > 0)

  001a3	83 7d b8 00	 cmp	 DWORD PTR _BeforeBirthday$[ebp], 0
  001a7	7e 44		 jle	 SHORT $LN11@GetDaysBef

; 233  :         {
; 234  :             cout << "РљРѕР»РёС‡РµСЃС‚РІРѕ РґРЅРµР№ РґРѕ РґРЅСЏ СЂРѕР¶РґРµРЅРёСЏ: " << BeforeBirthday << endl;

  001a9	8b f4		 mov	 esi, esp
  001ab	68 00 00 00 00	 push	 OFFSET ??$endl@DU?$char_traits@D@std@@@std@@YAAAV?$basic_ostream@DU?$char_traits@D@std@@@0@AAV10@@Z ; std::endl<char,std::char_traits<char> >
  001b0	8b fc		 mov	 edi, esp
  001b2	8b 45 b8	 mov	 eax, DWORD PTR _BeforeBirthday$[ebp]
  001b5	50		 push	 eax
  001b6	68 00 00 00 00	 push	 OFFSET ??_C@_0CC@HOIDFCJH@?J?n?k?h?w?e?q?r?b?n?5?d?m?e?i?5?d?n?5?d?m?$PP?5?p?n?f?d?e?m?h?$PP@
  001bb	8b 0d 00 00 00
	00		 mov	 ecx, DWORD PTR __imp_?cout@std@@3V?$basic_ostream@DU?$char_traits@D@std@@@1@A
  001c1	51		 push	 ecx
  001c2	e8 00 00 00 00	 call	 ??$?6U?$char_traits@D@std@@@std@@YAAAV?$basic_ostream@DU?$char_traits@D@std@@@0@AAV10@PBD@Z ; std::operator<<<std::char_traits<char> >
  001c7	83 c4 08	 add	 esp, 8
  001ca	8b c8		 mov	 ecx, eax
  001cc	ff 15 00 00 00
	00		 call	 DWORD PTR __imp_??6?$basic_ostream@DU?$char_traits@D@std@@@std@@QAEAAV01@H@Z
  001d2	3b fc		 cmp	 edi, esp
  001d4	e8 00 00 00 00	 call	 __RTC_CheckEsp
  001d9	8b c8		 mov	 ecx, eax
  001db	ff 15 00 00 00
	00		 call	 DWORD PTR __imp_??6?$basic_ostream@DU?$char_traits@D@std@@@std@@QAEAAV01@P6AAAV01@AAV01@@Z@Z
  001e1	3b f4		 cmp	 esi, esp
  001e3	e8 00 00 00 00	 call	 __RTC_CheckEsp

; 235  :         }

  001e8	e9 84 00 00 00	 jmp	 $LN8@GetDaysBef
$LN11@GetDaysBef:

; 236  :         else if (BeforeBirthday < 0)

  001ed	83 7d b8 00	 cmp	 DWORD PTR _BeforeBirthday$[ebp], 0
  001f1	7d 4f		 jge	 SHORT $LN13@GetDaysBef

; 237  :         {
; 238  :             BeforeBirthday = AllDays - (CurrentOrdinalNumber - BirthdayOrdinalNumber);

  001f3	8b 45 f4	 mov	 eax, DWORD PTR _CurrentOrdinalNumber$[ebp]
  001f6	2b 45 c4	 sub	 eax, DWORD PTR _BirthdayOrdinalNumber$[ebp]
  001f9	8b 4d ac	 mov	 ecx, DWORD PTR _AllDays$[ebp]
  001fc	2b c8		 sub	 ecx, eax
  001fe	89 4d b8	 mov	 DWORD PTR _BeforeBirthday$[ebp], ecx

; 239  :             cout << "РљРѕР»РёС‡РµСЃС‚РІРѕ РґРЅРµР№ РґРѕ РґРЅСЏ СЂРѕР¶РґРµРЅРёСЏ: " << BeforeBirthday << endl;

  00201	8b f4		 mov	 esi, esp
  00203	68 00 00 00 00	 push	 OFFSET ??$endl@DU?$char_traits@D@std@@@std@@YAAAV?$basic_ostream@DU?$char_traits@D@std@@@0@AAV10@@Z ; std::endl<char,std::char_traits<char> >
  00208	8b fc		 mov	 edi, esp
  0020a	8b 45 b8	 mov	 eax, DWORD PTR _BeforeBirthday$[ebp]
  0020d	50		 push	 eax
  0020e	68 00 00 00 00	 push	 OFFSET ??_C@_0CC@HOIDFCJH@?J?n?k?h?w?e?q?r?b?n?5?d?m?e?i?5?d?n?5?d?m?$PP?5?p?n?f?d?e?m?h?$PP@
  00213	8b 0d 00 00 00
	00		 mov	 ecx, DWORD PTR __imp_?cout@std@@3V?$basic_ostream@DU?$char_traits@D@std@@@1@A
  00219	51		 push	 ecx
  0021a	e8 00 00 00 00	 call	 ??$?6U?$char_traits@D@std@@@std@@YAAAV?$basic_ostream@DU?$char_traits@D@std@@@0@AAV10@PBD@Z ; std::operator<<<std::char_traits<char> >
  0021f	83 c4 08	 add	 esp, 8
  00222	8b c8		 mov	 ecx, eax
  00224	ff 15 00 00 00
	00		 call	 DWORD PTR __imp_??6?$basic_ostream@DU?$char_traits@D@std@@@std@@QAEAAV01@H@Z
  0022a	3b fc		 cmp	 edi, esp
  0022c	e8 00 00 00 00	 call	 __RTC_CheckEsp
  00231	8b c8		 mov	 ecx, eax
  00233	ff 15 00 00 00
	00		 call	 DWORD PTR __imp_??6?$basic_ostream@DU?$char_traits@D@std@@@std@@QAEAAV01@P6AAAV01@AAV01@@Z@Z
  00239	3b f4		 cmp	 esi, esp
  0023b	e8 00 00 00 00	 call	 __RTC_CheckEsp

; 240  :         }

  00240	eb 2f		 jmp	 SHORT $LN8@GetDaysBef
$LN13@GetDaysBef:

; 241  :         else if (BeforeBirthday == 0)

  00242	83 7d b8 00	 cmp	 DWORD PTR _BeforeBirthday$[ebp], 0
  00246	75 29		 jne	 SHORT $LN8@GetDaysBef

; 242  :         {
; 243  :             cout << "РЈСЂР°! РЎРµРіРѕРґРЅСЏ РІР°С€ РґРµРЅСЊ СЂРѕР¶РґРµРЅРёСЏ!" << endl;

  00248	8b f4		 mov	 esi, esp
  0024a	68 00 00 00 00	 push	 OFFSET ??$endl@DU?$char_traits@D@std@@@std@@YAAAV?$basic_ostream@DU?$char_traits@D@std@@@0@AAV10@@Z ; std::endl<char,std::char_traits<char> >
  0024f	68 00 00 00 00	 push	 OFFSET ??_C@_0CA@DKPLGFLM@?S?p?$OA?$CB?5?Q?e?c?n?d?m?$PP?5?b?$OA?x?5?d?e?m?$PM?5?p?n?f?d?e?m?h?$PP?$CB@
  00254	a1 00 00 00 00	 mov	 eax, DWORD PTR __imp_?cout@std@@3V?$basic_ostream@DU?$char_traits@D@std@@@1@A
  00259	50		 push	 eax
  0025a	e8 00 00 00 00	 call	 ??$?6U?$char_traits@D@std@@@std@@YAAAV?$basic_ostream@DU?$char_traits@D@std@@@0@AAV10@PBD@Z ; std::operator<<<std::char_traits<char> >
  0025f	83 c4 08	 add	 esp, 8
  00262	8b c8		 mov	 ecx, eax
  00264	ff 15 00 00 00
	00		 call	 DWORD PTR __imp_??6?$basic_ostream@DU?$char_traits@D@std@@@std@@QAEAAV01@P6AAAV01@AAV01@@Z@Z
  0026a	3b f4		 cmp	 esi, esp
  0026c	e8 00 00 00 00	 call	 __RTC_CheckEsp
$LN8@GetDaysBef:

; 244  :         }
; 245  :     }
; 246  :     return BeforeBirthday;

  00271	8b 45 b8	 mov	 eax, DWORD PTR _BeforeBirthday$[ebp]

; 247  : }

  00274	52		 push	 edx
  00275	8b cd		 mov	 ecx, ebp
  00277	50		 push	 eax
  00278	8d 15 00 00 00
	00		 lea	 edx, DWORD PTR $LN21@GetDaysBef
  0027e	e8 00 00 00 00	 call	 @_RTC_CheckStackVars@8
  00283	58		 pop	 eax
  00284	5a		 pop	 edx
  00285	5f		 pop	 edi
  00286	5e		 pop	 esi
  00287	5b		 pop	 ebx
  00288	8b 4d fc	 mov	 ecx, DWORD PTR __$ArrayPad$[ebp]
  0028b	33 cd		 xor	 ecx, ebp
  0028d	e8 00 00 00 00	 call	 @__security_check_cookie@4
  00292	81 c4 18 01 00
	00		 add	 esp, 280		; 00000118H
  00298	3b ec		 cmp	 ebp, esp
  0029a	e8 00 00 00 00	 call	 __RTC_CheckEsp
  0029f	8b e5		 mov	 esp, ebp
  002a1	5d		 pop	 ebp
  002a2	c3		 ret	 0
  002a3	90		 npad	 1
$LN21@GetDaysBef:
  002a4	03 00 00 00	 DD	 3
  002a8	00 00 00 00	 DD	 $LN20@GetDaysBef
$LN20@GetDaysBef:
  002ac	e8 ff ff ff	 DD	 -24			; ffffffe8H
  002b0	04 00 00 00	 DD	 4
  002b4	00 00 00 00	 DD	 $LN17@GetDaysBef
  002b8	dc ff ff ff	 DD	 -36			; ffffffdcH
  002bc	04 00 00 00	 DD	 4
  002c0	00 00 00 00	 DD	 $LN18@GetDaysBef
  002c4	d0 ff ff ff	 DD	 -48			; ffffffd0H
  002c8	04 00 00 00	 DD	 4
  002cc	00 00 00 00	 DD	 $LN19@GetDaysBef
$LN19@GetDaysBef:
  002d0	62		 DB	 98			; 00000062H
  002d1	79		 DB	 121			; 00000079H
  002d2	65		 DB	 101			; 00000065H
  002d3	61		 DB	 97			; 00000061H
  002d4	72		 DB	 114			; 00000072H
  002d5	00		 DB	 0
$LN18@GetDaysBef:
  002d6	62		 DB	 98			; 00000062H
  002d7	6d		 DB	 109			; 0000006dH
  002d8	6f		 DB	 111			; 0000006fH
  002d9	6e		 DB	 110			; 0000006eH
  002da	74		 DB	 116			; 00000074H
  002db	68		 DB	 104			; 00000068H
  002dc	00		 DB	 0
$LN17@GetDaysBef:
  002dd	62		 DB	 98			; 00000062H
  002de	64		 DB	 100			; 00000064H
  002df	61		 DB	 97			; 00000061H
  002e0	79		 DB	 121			; 00000079H
  002e1	00		 DB	 0
?GetDaysBeforeBirthday@@YAHHHH@Z ENDP			; GetDaysBeforeBirthday
_TEXT	ENDS
; Function compile flags: /Odtp /RTCsu /ZI
; File F:\лабы\КПО\1 лаба\kpo_lab1v2\kpo_lab1v2\kpo_lab1v2.cpp
;	COMDAT ?GetOrdinalNumber@@YAHHHH@Z
_TEXT	SEGMENT
_i$1 = -76						; size = 4
_numberofdays$ = -64					; size = 48
_ordinal_number$ = -8					; size = 4
_day$ = 8						; size = 4
_month$ = 12						; size = 4
_year$ = 16						; size = 4
?GetOrdinalNumber@@YAHHHH@Z PROC			; GetOrdinalNumber, COMDAT

; 181  : {

  00000	55		 push	 ebp
  00001	8b ec		 mov	 ebp, esp
  00003	81 ec 10 01 00
	00		 sub	 esp, 272		; 00000110H
  00009	53		 push	 ebx
  0000a	56		 push	 esi
  0000b	57		 push	 edi
  0000c	8d 7d b0	 lea	 edi, DWORD PTR [ebp-80]
  0000f	b9 14 00 00 00	 mov	 ecx, 20			; 00000014H
  00014	b8 cc cc cc cc	 mov	 eax, -858993460		; ccccccccH
  00019	f3 ab		 rep stosd
  0001b	b9 00 00 00 00	 mov	 ecx, OFFSET __94B3D082_kpo_lab1v2@cpp
  00020	e8 00 00 00 00	 call	 @__CheckForDebuggerJustMyCode@4

; 182  :     int ordinal_number = 0;

  00025	c7 45 f8 00 00
	00 00		 mov	 DWORD PTR _ordinal_number$[ebp], 0

; 183  :     int numberofdays[12] = { 31, 28, 31, 30, 31, 30, 31, 31, 30, 31, 30, 31 };

  0002c	c7 45 c0 1f 00
	00 00		 mov	 DWORD PTR _numberofdays$[ebp], 31 ; 0000001fH
  00033	c7 45 c4 1c 00
	00 00		 mov	 DWORD PTR _numberofdays$[ebp+4], 28 ; 0000001cH
  0003a	c7 45 c8 1f 00
	00 00		 mov	 DWORD PTR _numberofdays$[ebp+8], 31 ; 0000001fH
  00041	c7 45 cc 1e 00
	00 00		 mov	 DWORD PTR _numberofdays$[ebp+12], 30 ; 0000001eH
  00048	c7 45 d0 1f 00
	00 00		 mov	 DWORD PTR _numberofdays$[ebp+16], 31 ; 0000001fH
  0004f	c7 45 d4 1e 00
	00 00		 mov	 DWORD PTR _numberofdays$[ebp+20], 30 ; 0000001eH
  00056	c7 45 d8 1f 00
	00 00		 mov	 DWORD PTR _numberofdays$[ebp+24], 31 ; 0000001fH
  0005d	c7 45 dc 1f 00
	00 00		 mov	 DWORD PTR _numberofdays$[ebp+28], 31 ; 0000001fH
  00064	c7 45 e0 1e 00
	00 00		 mov	 DWORD PTR _numberofdays$[ebp+32], 30 ; 0000001eH
  0006b	c7 45 e4 1f 00
	00 00		 mov	 DWORD PTR _numberofdays$[ebp+36], 31 ; 0000001fH
  00072	c7 45 e8 1e 00
	00 00		 mov	 DWORD PTR _numberofdays$[ebp+40], 30 ; 0000001eH
  00079	c7 45 ec 1f 00
	00 00		 mov	 DWORD PTR _numberofdays$[ebp+44], 31 ; 0000001fH

; 184  : 
; 185  :     if (CheackLeapYear(year))

  00080	8b 45 10	 mov	 eax, DWORD PTR _year$[ebp]
  00083	50		 push	 eax
  00084	e8 00 00 00 00	 call	 ?CheackLeapYear@@YA_NH@Z ; CheackLeapYear
  00089	83 c4 04	 add	 esp, 4
  0008c	0f b6 c8	 movzx	 ecx, al
  0008f	85 c9		 test	 ecx, ecx
  00091	74 10		 je	 SHORT $LN5@GetOrdinal

; 186  :         numberofdays[1] = 29;

  00093	b8 04 00 00 00	 mov	 eax, 4
  00098	c1 e0 00	 shl	 eax, 0
  0009b	c7 44 05 c0 1d
	00 00 00	 mov	 DWORD PTR _numberofdays$[ebp+eax], 29 ; 0000001dH
$LN5@GetOrdinal:

; 187  : 
; 188  :     for (int i = 0; i < month - 1; i++)

  000a3	c7 45 b4 00 00
	00 00		 mov	 DWORD PTR _i$1[ebp], 0
  000aa	eb 09		 jmp	 SHORT $LN4@GetOrdinal
$LN2@GetOrdinal:
  000ac	8b 45 b4	 mov	 eax, DWORD PTR _i$1[ebp]
  000af	83 c0 01	 add	 eax, 1
  000b2	89 45 b4	 mov	 DWORD PTR _i$1[ebp], eax
$LN4@GetOrdinal:
  000b5	8b 45 0c	 mov	 eax, DWORD PTR _month$[ebp]
  000b8	83 e8 01	 sub	 eax, 1
  000bb	39 45 b4	 cmp	 DWORD PTR _i$1[ebp], eax
  000be	7d 0f		 jge	 SHORT $LN3@GetOrdinal

; 189  :     {
; 190  :         ordinal_number += numberofdays[i];

  000c0	8b 45 b4	 mov	 eax, DWORD PTR _i$1[ebp]
  000c3	8b 4d f8	 mov	 ecx, DWORD PTR _ordinal_number$[ebp]
  000c6	03 4c 85 c0	 add	 ecx, DWORD PTR _numberofdays$[ebp+eax*4]
  000ca	89 4d f8	 mov	 DWORD PTR _ordinal_number$[ebp], ecx

; 191  :     }

  000cd	eb dd		 jmp	 SHORT $LN2@GetOrdinal
$LN3@GetOrdinal:

; 192  :     ordinal_number += day;

  000cf	8b 45 f8	 mov	 eax, DWORD PTR _ordinal_number$[ebp]
  000d2	03 45 08	 add	 eax, DWORD PTR _day$[ebp]
  000d5	89 45 f8	 mov	 DWORD PTR _ordinal_number$[ebp], eax

; 193  :     cout << endl;

  000d8	8b f4		 mov	 esi, esp
  000da	68 00 00 00 00	 push	 OFFSET ??$endl@DU?$char_traits@D@std@@@std@@YAAAV?$basic_ostream@DU?$char_traits@D@std@@@0@AAV10@@Z ; std::endl<char,std::char_traits<char> >
  000df	8b 0d 00 00 00
	00		 mov	 ecx, DWORD PTR __imp_?cout@std@@3V?$basic_ostream@DU?$char_traits@D@std@@@1@A
  000e5	ff 15 00 00 00
	00		 call	 DWORD PTR __imp_??6?$basic_ostream@DU?$char_traits@D@std@@@std@@QAEAAV01@P6AAAV01@AAV01@@Z@Z
  000eb	3b f4		 cmp	 esi, esp
  000ed	e8 00 00 00 00	 call	 __RTC_CheckEsp

; 194  :     return ordinal_number;

  000f2	8b 45 f8	 mov	 eax, DWORD PTR _ordinal_number$[ebp]

; 195  : }

  000f5	52		 push	 edx
  000f6	8b cd		 mov	 ecx, ebp
  000f8	50		 push	 eax
  000f9	8d 15 00 00 00
	00		 lea	 edx, DWORD PTR $LN9@GetOrdinal
  000ff	e8 00 00 00 00	 call	 @_RTC_CheckStackVars@8
  00104	58		 pop	 eax
  00105	5a		 pop	 edx
  00106	5f		 pop	 edi
  00107	5e		 pop	 esi
  00108	5b		 pop	 ebx
  00109	81 c4 10 01 00
	00		 add	 esp, 272		; 00000110H
  0010f	3b ec		 cmp	 ebp, esp
  00111	e8 00 00 00 00	 call	 __RTC_CheckEsp
  00116	8b e5		 mov	 esp, ebp
  00118	5d		 pop	 ebp
  00119	c3		 ret	 0
  0011a	66 90		 npad	 2
$LN9@GetOrdinal:
  0011c	01 00 00 00	 DD	 1
  00120	00 00 00 00	 DD	 $LN8@GetOrdinal
$LN8@GetOrdinal:
  00124	c0 ff ff ff	 DD	 -64			; ffffffc0H
  00128	30 00 00 00	 DD	 48			; 00000030H
  0012c	00 00 00 00	 DD	 $LN7@GetOrdinal
$LN7@GetOrdinal:
  00130	6e		 DB	 110			; 0000006eH
  00131	75		 DB	 117			; 00000075H
  00132	6d		 DB	 109			; 0000006dH
  00133	62		 DB	 98			; 00000062H
  00134	65		 DB	 101			; 00000065H
  00135	72		 DB	 114			; 00000072H
  00136	6f		 DB	 111			; 0000006fH
  00137	66		 DB	 102			; 00000066H
  00138	64		 DB	 100			; 00000064H
  00139	61		 DB	 97			; 00000061H
  0013a	79		 DB	 121			; 00000079H
  0013b	73		 DB	 115			; 00000073H
  0013c	00		 DB	 0
?GetOrdinalNumber@@YAHHHH@Z ENDP			; GetOrdinalNumber
_TEXT	ENDS
; Function compile flags: /Odtp /RTCsu /ZI
; File F:\лабы\КПО\1 лаба\kpo_lab1v2\kpo_lab1v2\kpo_lab1v2.cpp
;	COMDAT ?forInput@@YAXPAH00@Z
_TEXT	SEGMENT
tv234 = -600						; size = 4
tv231 = -600						; size = 4
tv186 = -600						; size = 4
tv176 = -600						; size = 4
tv166 = -600						; size = 4
$T2 = -592						; size = 4
$T3 = -580						; size = 4
$T4 = -568						; size = 28
$T5 = -532						; size = 28
$T6 = -496						; size = 28
$T7 = -460						; size = 4
$T8 = -448						; size = 4
$T9 = -436						; size = 4
$T10 = -424						; size = 4
$T11 = -412						; size = 4
_i$12 = -208						; size = 4
_i$13 = -196						; size = 4
_i$14 = -184						; size = 4
_i$15 = -172						; size = 4
_n$ = -160						; size = 4
_day$ = -148						; size = 4
_month$ = -136						; size = 4
_year$ = -124						; size = 4
_provY$ = -109						; size = 1
_provM$ = -97						; size = 1
_provD$ = -85						; size = 1
_YEAR$ = -76						; size = 5
_MONTH$ = -60						; size = 3
_DAY$ = -48						; size = 3
_iData$ = -36						; size = 4
_cData$ = -24						; size = 4
__$ArrayPad$ = -16					; size = 4
__$EHRec$ = -12						; size = 12
_d$ = 8							; size = 4
_m$ = 12						; size = 4
_y$ = 16						; size = 4
?forInput@@YAXPAH00@Z PROC				; forInput, COMDAT

; 60   : void forInput(int* d, int* m, int* y) {

  00000	55		 push	 ebp
  00001	8b ec		 mov	 ebp, esp
  00003	6a ff		 push	 -1
  00005	68 00 00 00 00	 push	 __ehhandler$?forInput@@YAXPAH00@Z
  0000a	64 a1 00 00 00
	00		 mov	 eax, DWORD PTR fs:0
  00010	50		 push	 eax
  00011	81 ec 4c 02 00
	00		 sub	 esp, 588		; 0000024cH
  00017	53		 push	 ebx
  00018	56		 push	 esi
  00019	57		 push	 edi
  0001a	8d bd 68 fe ff
	ff		 lea	 edi, DWORD PTR [ebp-408]
  00020	b9 63 00 00 00	 mov	 ecx, 99			; 00000063H
  00025	b8 cc cc cc cc	 mov	 eax, -858993460		; ccccccccH
  0002a	f3 ab		 rep stosd
  0002c	a1 00 00 00 00	 mov	 eax, DWORD PTR ___security_cookie
  00031	33 c5		 xor	 eax, ebp
  00033	89 45 f0	 mov	 DWORD PTR __$ArrayPad$[ebp], eax
  00036	50		 push	 eax
  00037	8d 45 f4	 lea	 eax, DWORD PTR __$EHRec$[ebp]
  0003a	64 a3 00 00 00
	00		 mov	 DWORD PTR fs:0, eax
  00040	b9 00 00 00 00	 mov	 ecx, OFFSET __94B3D082_kpo_lab1v2@cpp
  00045	e8 00 00 00 00	 call	 @__CheckForDebuggerJustMyCode@4

; 61   :     char* cData = new char[8];

  0004a	6a 08		 push	 8
  0004c	e8 00 00 00 00	 call	 ??_U@YAPAXI@Z		; operator new[]
  00051	83 c4 04	 add	 esp, 4
  00054	89 85 64 fe ff
	ff		 mov	 DWORD PTR $T11[ebp], eax
  0005a	8b 85 64 fe ff
	ff		 mov	 eax, DWORD PTR $T11[ebp]
  00060	89 45 e8	 mov	 DWORD PTR _cData$[ebp], eax

; 62   :     int* iData = new int[8];

  00063	6a 20		 push	 32			; 00000020H
  00065	e8 00 00 00 00	 call	 ??_U@YAPAXI@Z		; operator new[]
  0006a	83 c4 04	 add	 esp, 4
  0006d	89 85 58 fe ff
	ff		 mov	 DWORD PTR $T10[ebp], eax
  00073	8b 85 58 fe ff
	ff		 mov	 eax, DWORD PTR $T10[ebp]
  00079	89 45 dc	 mov	 DWORD PTR _iData$[ebp], eax

; 63   :     char DAY[3];
; 64   :     char MONTH[3];
; 65   :     char YEAR[5];
; 66   : 
; 67   :     bool provD = false;

  0007c	c6 45 ab 00	 mov	 BYTE PTR _provD$[ebp], 0

; 68   :     bool provM = false;

  00080	c6 45 9f 00	 mov	 BYTE PTR _provM$[ebp], 0

; 69   :     bool provY = false;

  00084	c6 45 93 00	 mov	 BYTE PTR _provY$[ebp], 0

; 70   : 
; 71   :     int year = 0;

  00088	c7 45 84 00 00
	00 00		 mov	 DWORD PTR _year$[ebp], 0

; 72   :     int month = 0;

  0008f	c7 85 78 ff ff
	ff 00 00 00 00	 mov	 DWORD PTR _month$[ebp], 0

; 73   :     int day = 0;

  00099	c7 85 6c ff ff
	ff 00 00 00 00	 mov	 DWORD PTR _day$[ebp], 0

; 74   :     int n = 3;

  000a3	c7 85 60 ff ff
	ff 03 00 00 00	 mov	 DWORD PTR _n$[ebp], 3

; 75   : 
; 76   :     cout << "Р’РІРµРґРёС‚Рµ РґР°С‚Сѓ РІ С„РѕСЂРјР°С‚Рµ Р”Р”РњРњР“Р“Р“Р“" << endl << "Р”Р”РњРњР“Р“Р“Р“ = ";

  000ad	68 00 00 00 00	 push	 OFFSET ??_C@_0M@NDJIFNPC@?D?D?L?L?C?C?C?C?5?$DN?5@
  000b2	8b f4		 mov	 esi, esp
  000b4	68 00 00 00 00	 push	 OFFSET ??$endl@DU?$char_traits@D@std@@@std@@YAAAV?$basic_ostream@DU?$char_traits@D@std@@@0@AAV10@@Z ; std::endl<char,std::char_traits<char> >
  000b9	68 00 00 00 00	 push	 OFFSET ??_C@_0CA@DCOGFNOO@?B?b?e?d?h?r?e?5?d?$OA?r?s?5?b?5?t?n?p?l?$OA?r?e?5?D?D?L?L?C?C?C?C@
  000be	a1 00 00 00 00	 mov	 eax, DWORD PTR __imp_?cout@std@@3V?$basic_ostream@DU?$char_traits@D@std@@@1@A
  000c3	50		 push	 eax
  000c4	e8 00 00 00 00	 call	 ??$?6U?$char_traits@D@std@@@std@@YAAAV?$basic_ostream@DU?$char_traits@D@std@@@0@AAV10@PBD@Z ; std::operator<<<std::char_traits<char> >
  000c9	83 c4 08	 add	 esp, 8
  000cc	8b c8		 mov	 ecx, eax
  000ce	ff 15 00 00 00
	00		 call	 DWORD PTR __imp_??6?$basic_ostream@DU?$char_traits@D@std@@@std@@QAEAAV01@P6AAAV01@AAV01@@Z@Z
  000d4	3b f4		 cmp	 esi, esp
  000d6	e8 00 00 00 00	 call	 __RTC_CheckEsp
  000db	50		 push	 eax
  000dc	e8 00 00 00 00	 call	 ??$?6U?$char_traits@D@std@@@std@@YAAAV?$basic_ostream@DU?$char_traits@D@std@@@0@AAV10@PBD@Z ; std::operator<<<std::char_traits<char> >
  000e1	83 c4 08	 add	 esp, 8

; 77   :     for (int i = 0; i < 8; i++) {

  000e4	c7 85 54 ff ff
	ff 00 00 00 00	 mov	 DWORD PTR _i$15[ebp], 0
  000ee	eb 0f		 jmp	 SHORT $LN4@forInput
$LN2@forInput:
  000f0	8b 85 54 ff ff
	ff		 mov	 eax, DWORD PTR _i$15[ebp]
  000f6	83 c0 01	 add	 eax, 1
  000f9	89 85 54 ff ff
	ff		 mov	 DWORD PTR _i$15[ebp], eax
$LN4@forInput:
  000ff	83 bd 54 ff ff
	ff 08		 cmp	 DWORD PTR _i$15[ebp], 8
  00106	7d 1b		 jge	 SHORT $LN3@forInput

; 78   :         cin >> cData[i];

  00108	8b 45 e8	 mov	 eax, DWORD PTR _cData$[ebp]
  0010b	03 85 54 ff ff
	ff		 add	 eax, DWORD PTR _i$15[ebp]
  00111	50		 push	 eax
  00112	8b 0d 00 00 00
	00		 mov	 ecx, DWORD PTR __imp_?cin@std@@3V?$basic_istream@DU?$char_traits@D@std@@@1@A
  00118	51		 push	 ecx
  00119	e8 00 00 00 00	 call	 ??$?5DU?$char_traits@D@std@@@std@@YAAAV?$basic_istream@DU?$char_traits@D@std@@@0@AAV10@AAD@Z ; std::operator>><char,std::char_traits<char> >
  0011e	83 c4 08	 add	 esp, 8

; 79   :     }

  00121	eb cd		 jmp	 SHORT $LN2@forInput
$LN3@forInput:

; 80   :     DAY[0] = cData[0];

  00123	b8 01 00 00 00	 mov	 eax, 1
  00128	6b c8 00	 imul	 ecx, eax, 0
  0012b	ba 01 00 00 00	 mov	 edx, 1
  00130	6b c2 00	 imul	 eax, edx, 0
  00133	8b 55 e8	 mov	 edx, DWORD PTR _cData$[ebp]
  00136	8a 0c 0a	 mov	 cl, BYTE PTR [edx+ecx]
  00139	88 4c 05 d0	 mov	 BYTE PTR _DAY$[ebp+eax], cl

; 81   :     DAY[1] = cData[1];

  0013d	b8 01 00 00 00	 mov	 eax, 1
  00142	c1 e0 00	 shl	 eax, 0
  00145	b9 01 00 00 00	 mov	 ecx, 1
  0014a	c1 e1 00	 shl	 ecx, 0
  0014d	8b 55 e8	 mov	 edx, DWORD PTR _cData$[ebp]
  00150	8a 04 02	 mov	 al, BYTE PTR [edx+eax]
  00153	88 44 0d d0	 mov	 BYTE PTR _DAY$[ebp+ecx], al

; 82   : 
; 83   :     MONTH[0] = cData[2];

  00157	b8 01 00 00 00	 mov	 eax, 1
  0015c	d1 e0		 shl	 eax, 1
  0015e	b9 01 00 00 00	 mov	 ecx, 1
  00163	6b d1 00	 imul	 edx, ecx, 0
  00166	8b 4d e8	 mov	 ecx, DWORD PTR _cData$[ebp]
  00169	8a 04 01	 mov	 al, BYTE PTR [ecx+eax]
  0016c	88 44 15 c4	 mov	 BYTE PTR _MONTH$[ebp+edx], al

; 84   :     MONTH[1] = cData[3];

  00170	b8 01 00 00 00	 mov	 eax, 1
  00175	6b c8 03	 imul	 ecx, eax, 3
  00178	ba 01 00 00 00	 mov	 edx, 1
  0017d	c1 e2 00	 shl	 edx, 0
  00180	8b 45 e8	 mov	 eax, DWORD PTR _cData$[ebp]
  00183	8a 0c 08	 mov	 cl, BYTE PTR [eax+ecx]
  00186	88 4c 15 c4	 mov	 BYTE PTR _MONTH$[ebp+edx], cl

; 85   : 
; 86   :     YEAR[0] = cData[4];

  0018a	b8 01 00 00 00	 mov	 eax, 1
  0018f	c1 e0 02	 shl	 eax, 2
  00192	b9 01 00 00 00	 mov	 ecx, 1
  00197	6b d1 00	 imul	 edx, ecx, 0
  0019a	8b 4d e8	 mov	 ecx, DWORD PTR _cData$[ebp]
  0019d	8a 04 01	 mov	 al, BYTE PTR [ecx+eax]
  001a0	88 44 15 b4	 mov	 BYTE PTR _YEAR$[ebp+edx], al

; 87   :     YEAR[1] = cData[5];

  001a4	b8 01 00 00 00	 mov	 eax, 1
  001a9	6b c8 05	 imul	 ecx, eax, 5
  001ac	ba 01 00 00 00	 mov	 edx, 1
  001b1	c1 e2 00	 shl	 edx, 0
  001b4	8b 45 e8	 mov	 eax, DWORD PTR _cData$[ebp]
  001b7	8a 0c 08	 mov	 cl, BYTE PTR [eax+ecx]
  001ba	88 4c 15 b4	 mov	 BYTE PTR _YEAR$[ebp+edx], cl

; 88   :     YEAR[2] = cData[6];

  001be	b8 01 00 00 00	 mov	 eax, 1
  001c3	6b c8 06	 imul	 ecx, eax, 6
  001c6	ba 01 00 00 00	 mov	 edx, 1
  001cb	d1 e2		 shl	 edx, 1
  001cd	8b 45 e8	 mov	 eax, DWORD PTR _cData$[ebp]
  001d0	8a 0c 08	 mov	 cl, BYTE PTR [eax+ecx]
  001d3	88 4c 15 b4	 mov	 BYTE PTR _YEAR$[ebp+edx], cl

; 89   :     YEAR[3] = cData[7];

  001d7	b8 01 00 00 00	 mov	 eax, 1
  001dc	6b c8 07	 imul	 ecx, eax, 7
  001df	ba 01 00 00 00	 mov	 edx, 1
  001e4	6b c2 03	 imul	 eax, edx, 3
  001e7	8b 55 e8	 mov	 edx, DWORD PTR _cData$[ebp]
  001ea	8a 0c 0a	 mov	 cl, BYTE PTR [edx+ecx]
  001ed	88 4c 05 b4	 mov	 BYTE PTR _YEAR$[ebp+eax], cl

; 90   : 
; 91   :     DAY[2] = '\0';

  001f1	b8 01 00 00 00	 mov	 eax, 1
  001f6	d1 e0		 shl	 eax, 1
  001f8	89 85 4c fe ff
	ff		 mov	 DWORD PTR $T9[ebp], eax
  001fe	83 bd 4c fe ff
	ff 03		 cmp	 DWORD PTR $T9[ebp], 3
  00205	73 02		 jae	 SHORT $LN59@forInput
  00207	eb 05		 jmp	 SHORT $LN60@forInput
$LN59@forInput:
  00209	e8 00 00 00 00	 call	 ___report_rangecheckfailure
$LN60@forInput:
  0020e	8b 8d 4c fe ff
	ff		 mov	 ecx, DWORD PTR $T9[ebp]
  00214	c6 44 0d d0 00	 mov	 BYTE PTR _DAY$[ebp+ecx], 0

; 92   :     MONTH[2] = '\0';

  00219	b8 01 00 00 00	 mov	 eax, 1
  0021e	d1 e0		 shl	 eax, 1
  00220	89 85 40 fe ff
	ff		 mov	 DWORD PTR $T8[ebp], eax
  00226	83 bd 40 fe ff
	ff 03		 cmp	 DWORD PTR $T8[ebp], 3
  0022d	73 02		 jae	 SHORT $LN61@forInput
  0022f	eb 05		 jmp	 SHORT $LN62@forInput
$LN61@forInput:
  00231	e8 00 00 00 00	 call	 ___report_rangecheckfailure
$LN62@forInput:
  00236	8b 8d 40 fe ff
	ff		 mov	 ecx, DWORD PTR $T8[ebp]
  0023c	c6 44 0d c4 00	 mov	 BYTE PTR _MONTH$[ebp+ecx], 0

; 93   :     YEAR[4] = '\0';

  00241	b8 01 00 00 00	 mov	 eax, 1
  00246	c1 e0 02	 shl	 eax, 2
  00249	89 85 34 fe ff
	ff		 mov	 DWORD PTR $T7[ebp], eax
  0024f	83 bd 34 fe ff
	ff 05		 cmp	 DWORD PTR $T7[ebp], 5
  00256	73 02		 jae	 SHORT $LN63@forInput
  00258	eb 05		 jmp	 SHORT $LN64@forInput
$LN63@forInput:
  0025a	e8 00 00 00 00	 call	 ___report_rangecheckfailure
$LN64@forInput:
  0025f	8b 8d 34 fe ff
	ff		 mov	 ecx, DWORD PTR $T7[ebp]
  00265	c6 44 0d b4 00	 mov	 BYTE PTR _YEAR$[ebp+ecx], 0

; 94   : 
; 95   :     for (int i = 0; i < 2; i++) {

  0026a	c7 85 48 ff ff
	ff 00 00 00 00	 mov	 DWORD PTR _i$14[ebp], 0
  00274	eb 0f		 jmp	 SHORT $LN7@forInput
$LN5@forInput:
  00276	8b 85 48 ff ff
	ff		 mov	 eax, DWORD PTR _i$14[ebp]
  0027c	83 c0 01	 add	 eax, 1
  0027f	89 85 48 ff ff
	ff		 mov	 DWORD PTR _i$14[ebp], eax
$LN7@forInput:
  00285	83 bd 48 ff ff
	ff 02		 cmp	 DWORD PTR _i$14[ebp], 2
  0028c	0f 8d 85 00 00
	00		 jge	 $LN6@forInput

; 96   :         switch (DAY[i])

  00292	8b 85 48 ff ff
	ff		 mov	 eax, DWORD PTR _i$14[ebp]
  00298	0f be 4c 05 d0	 movsx	 ecx, BYTE PTR _DAY$[ebp+eax]
  0029d	89 8d a8 fd ff
	ff		 mov	 DWORD PTR tv166[ebp], ecx
  002a3	8b 95 a8 fd ff
	ff		 mov	 edx, DWORD PTR tv166[ebp]
  002a9	83 ea 30	 sub	 edx, 48			; 00000030H
  002ac	89 95 a8 fd ff
	ff		 mov	 DWORD PTR tv166[ebp], edx
  002b2	83 bd a8 fd ff
	ff 09		 cmp	 DWORD PTR tv166[ebp], 9
  002b9	77 49		 ja	 SHORT $LN30@forInput
  002bb	8b 85 a8 fd ff
	ff		 mov	 eax, DWORD PTR tv166[ebp]
  002c1	ff 24 85 00 00
	00 00		 jmp	 DWORD PTR $LN72@forInput[eax*4]
$LN20@forInput:

; 97   :         {
; 98   :         case '0': provD = true; break;

  002c8	c6 45 ab 01	 mov	 BYTE PTR _provD$[ebp], 1
  002cc	eb 3a		 jmp	 SHORT $LN8@forInput
$LN21@forInput:

; 99   :         case '1': provD = true; break;

  002ce	c6 45 ab 01	 mov	 BYTE PTR _provD$[ebp], 1
  002d2	eb 34		 jmp	 SHORT $LN8@forInput
$LN22@forInput:

; 100  :         case '2': provD = true; break;

  002d4	c6 45 ab 01	 mov	 BYTE PTR _provD$[ebp], 1
  002d8	eb 2e		 jmp	 SHORT $LN8@forInput
$LN23@forInput:

; 101  :         case '3': provD = true; break;

  002da	c6 45 ab 01	 mov	 BYTE PTR _provD$[ebp], 1
  002de	eb 28		 jmp	 SHORT $LN8@forInput
$LN24@forInput:

; 102  :         case '4': provD = true; break;

  002e0	c6 45 ab 01	 mov	 BYTE PTR _provD$[ebp], 1
  002e4	eb 22		 jmp	 SHORT $LN8@forInput
$LN25@forInput:

; 103  :         case '5': provD = true; break;

  002e6	c6 45 ab 01	 mov	 BYTE PTR _provD$[ebp], 1
  002ea	eb 1c		 jmp	 SHORT $LN8@forInput
$LN26@forInput:

; 104  :         case '6': provD = true; break;

  002ec	c6 45 ab 01	 mov	 BYTE PTR _provD$[ebp], 1
  002f0	eb 16		 jmp	 SHORT $LN8@forInput
$LN27@forInput:

; 105  :         case '7': provD = true; break;

  002f2	c6 45 ab 01	 mov	 BYTE PTR _provD$[ebp], 1
  002f6	eb 10		 jmp	 SHORT $LN8@forInput
$LN28@forInput:

; 106  :         case '8': provD = true; break;

  002f8	c6 45 ab 01	 mov	 BYTE PTR _provD$[ebp], 1
  002fc	eb 0a		 jmp	 SHORT $LN8@forInput
$LN29@forInput:

; 107  :         case '9': provD = true; break;

  002fe	c6 45 ab 01	 mov	 BYTE PTR _provD$[ebp], 1
  00302	eb 04		 jmp	 SHORT $LN8@forInput
$LN30@forInput:

; 108  :         default: provD = false;

  00304	c6 45 ab 00	 mov	 BYTE PTR _provD$[ebp], 0
$LN8@forInput:

; 109  :         }
; 110  :         if (provD == false) break;

  00308	0f b6 45 ab	 movzx	 eax, BYTE PTR _provD$[ebp]
  0030c	85 c0		 test	 eax, eax
  0030e	75 02		 jne	 SHORT $LN31@forInput
  00310	eb 05		 jmp	 SHORT $LN6@forInput
$LN31@forInput:

; 111  :     }

  00312	e9 5f ff ff ff	 jmp	 $LN5@forInput
$LN6@forInput:

; 112  : 
; 113  :     for (int i = 0; i < 2; i++) {

  00317	c7 85 3c ff ff
	ff 00 00 00 00	 mov	 DWORD PTR _i$13[ebp], 0
  00321	eb 0f		 jmp	 SHORT $LN12@forInput
$LN10@forInput:
  00323	8b 85 3c ff ff
	ff		 mov	 eax, DWORD PTR _i$13[ebp]
  00329	83 c0 01	 add	 eax, 1
  0032c	89 85 3c ff ff
	ff		 mov	 DWORD PTR _i$13[ebp], eax
$LN12@forInput:
  00332	83 bd 3c ff ff
	ff 02		 cmp	 DWORD PTR _i$13[ebp], 2
  00339	0f 8d 85 00 00
	00		 jge	 $LN11@forInput

; 114  :         switch (MONTH[i])

  0033f	8b 85 3c ff ff
	ff		 mov	 eax, DWORD PTR _i$13[ebp]
  00345	0f be 4c 05 c4	 movsx	 ecx, BYTE PTR _MONTH$[ebp+eax]
  0034a	89 8d a8 fd ff
	ff		 mov	 DWORD PTR tv176[ebp], ecx
  00350	8b 95 a8 fd ff
	ff		 mov	 edx, DWORD PTR tv176[ebp]
  00356	83 ea 30	 sub	 edx, 48			; 00000030H
  00359	89 95 a8 fd ff
	ff		 mov	 DWORD PTR tv176[ebp], edx
  0035f	83 bd a8 fd ff
	ff 09		 cmp	 DWORD PTR tv176[ebp], 9
  00366	77 49		 ja	 SHORT $LN42@forInput
  00368	8b 85 a8 fd ff
	ff		 mov	 eax, DWORD PTR tv176[ebp]
  0036e	ff 24 85 00 00
	00 00		 jmp	 DWORD PTR $LN73@forInput[eax*4]
$LN32@forInput:

; 115  :         {
; 116  :         case '0': provM = true; break;

  00375	c6 45 9f 01	 mov	 BYTE PTR _provM$[ebp], 1
  00379	eb 3a		 jmp	 SHORT $LN13@forInput
$LN33@forInput:

; 117  :         case '1': provM = true; break;

  0037b	c6 45 9f 01	 mov	 BYTE PTR _provM$[ebp], 1
  0037f	eb 34		 jmp	 SHORT $LN13@forInput
$LN34@forInput:

; 118  :         case '2': provM = true; break;

  00381	c6 45 9f 01	 mov	 BYTE PTR _provM$[ebp], 1
  00385	eb 2e		 jmp	 SHORT $LN13@forInput
$LN35@forInput:

; 119  :         case '3': provM = true; break;

  00387	c6 45 9f 01	 mov	 BYTE PTR _provM$[ebp], 1
  0038b	eb 28		 jmp	 SHORT $LN13@forInput
$LN36@forInput:

; 120  :         case '4': provM = true; break;

  0038d	c6 45 9f 01	 mov	 BYTE PTR _provM$[ebp], 1
  00391	eb 22		 jmp	 SHORT $LN13@forInput
$LN37@forInput:

; 121  :         case '5': provM = true; break;

  00393	c6 45 9f 01	 mov	 BYTE PTR _provM$[ebp], 1
  00397	eb 1c		 jmp	 SHORT $LN13@forInput
$LN38@forInput:

; 122  :         case '6': provM = true; break;

  00399	c6 45 9f 01	 mov	 BYTE PTR _provM$[ebp], 1
  0039d	eb 16		 jmp	 SHORT $LN13@forInput
$LN39@forInput:

; 123  :         case '7': provM = true; break;

  0039f	c6 45 9f 01	 mov	 BYTE PTR _provM$[ebp], 1
  003a3	eb 10		 jmp	 SHORT $LN13@forInput
$LN40@forInput:

; 124  :         case '8': provM = true; break;

  003a5	c6 45 9f 01	 mov	 BYTE PTR _provM$[ebp], 1
  003a9	eb 0a		 jmp	 SHORT $LN13@forInput
$LN41@forInput:

; 125  :         case '9': provM = true; break;

  003ab	c6 45 9f 01	 mov	 BYTE PTR _provM$[ebp], 1
  003af	eb 04		 jmp	 SHORT $LN13@forInput
$LN42@forInput:

; 126  :         default: provM = false;

  003b1	c6 45 9f 00	 mov	 BYTE PTR _provM$[ebp], 0
$LN13@forInput:

; 127  :         }
; 128  :         if (provM == false) break;

  003b5	0f b6 45 9f	 movzx	 eax, BYTE PTR _provM$[ebp]
  003b9	85 c0		 test	 eax, eax
  003bb	75 02		 jne	 SHORT $LN43@forInput
  003bd	eb 05		 jmp	 SHORT $LN11@forInput
$LN43@forInput:

; 129  :     }

  003bf	e9 5f ff ff ff	 jmp	 $LN10@forInput
$LN11@forInput:

; 130  : 
; 131  :     for (int i = 0; i < 4; i++) {

  003c4	c7 85 30 ff ff
	ff 00 00 00 00	 mov	 DWORD PTR _i$12[ebp], 0
  003ce	eb 0f		 jmp	 SHORT $LN17@forInput
$LN15@forInput:
  003d0	8b 85 30 ff ff
	ff		 mov	 eax, DWORD PTR _i$12[ebp]
  003d6	83 c0 01	 add	 eax, 1
  003d9	89 85 30 ff ff
	ff		 mov	 DWORD PTR _i$12[ebp], eax
$LN17@forInput:
  003df	83 bd 30 ff ff
	ff 04		 cmp	 DWORD PTR _i$12[ebp], 4
  003e6	0f 8d 85 00 00
	00		 jge	 $LN16@forInput

; 132  :         switch (YEAR[i])

  003ec	8b 85 30 ff ff
	ff		 mov	 eax, DWORD PTR _i$12[ebp]
  003f2	0f be 4c 05 b4	 movsx	 ecx, BYTE PTR _YEAR$[ebp+eax]
  003f7	89 8d a8 fd ff
	ff		 mov	 DWORD PTR tv186[ebp], ecx
  003fd	8b 95 a8 fd ff
	ff		 mov	 edx, DWORD PTR tv186[ebp]
  00403	83 ea 30	 sub	 edx, 48			; 00000030H
  00406	89 95 a8 fd ff
	ff		 mov	 DWORD PTR tv186[ebp], edx
  0040c	83 bd a8 fd ff
	ff 09		 cmp	 DWORD PTR tv186[ebp], 9
  00413	77 49		 ja	 SHORT $LN54@forInput
  00415	8b 85 a8 fd ff
	ff		 mov	 eax, DWORD PTR tv186[ebp]
  0041b	ff 24 85 00 00
	00 00		 jmp	 DWORD PTR $LN74@forInput[eax*4]
$LN44@forInput:

; 133  :         {
; 134  :         case '0': provY = true; break;

  00422	c6 45 93 01	 mov	 BYTE PTR _provY$[ebp], 1
  00426	eb 3a		 jmp	 SHORT $LN18@forInput
$LN45@forInput:

; 135  :         case '1': provY = true; break;

  00428	c6 45 93 01	 mov	 BYTE PTR _provY$[ebp], 1
  0042c	eb 34		 jmp	 SHORT $LN18@forInput
$LN46@forInput:

; 136  :         case '2': provY = true; break;

  0042e	c6 45 93 01	 mov	 BYTE PTR _provY$[ebp], 1
  00432	eb 2e		 jmp	 SHORT $LN18@forInput
$LN47@forInput:

; 137  :         case '3': provY = true; break;

  00434	c6 45 93 01	 mov	 BYTE PTR _provY$[ebp], 1
  00438	eb 28		 jmp	 SHORT $LN18@forInput
$LN48@forInput:

; 138  :         case '4': provY = true; break;

  0043a	c6 45 93 01	 mov	 BYTE PTR _provY$[ebp], 1
  0043e	eb 22		 jmp	 SHORT $LN18@forInput
$LN49@forInput:

; 139  :         case '5': provY = true; break;

  00440	c6 45 93 01	 mov	 BYTE PTR _provY$[ebp], 1
  00444	eb 1c		 jmp	 SHORT $LN18@forInput
$LN50@forInput:

; 140  :         case '6': provY = true; break;

  00446	c6 45 93 01	 mov	 BYTE PTR _provY$[ebp], 1
  0044a	eb 16		 jmp	 SHORT $LN18@forInput
$LN51@forInput:

; 141  :         case '7': provY = true; break;

  0044c	c6 45 93 01	 mov	 BYTE PTR _provY$[ebp], 1
  00450	eb 10		 jmp	 SHORT $LN18@forInput
$LN52@forInput:

; 142  :         case '8': provY = true; break;

  00452	c6 45 93 01	 mov	 BYTE PTR _provY$[ebp], 1
  00456	eb 0a		 jmp	 SHORT $LN18@forInput
$LN53@forInput:

; 143  :         case '9': provY = true; break;

  00458	c6 45 93 01	 mov	 BYTE PTR _provY$[ebp], 1
  0045c	eb 04		 jmp	 SHORT $LN18@forInput
$LN54@forInput:

; 144  :         default: provY = false;

  0045e	c6 45 93 00	 mov	 BYTE PTR _provY$[ebp], 0
$LN18@forInput:

; 145  :         }
; 146  :         if (provY == false) break;

  00462	0f b6 45 93	 movzx	 eax, BYTE PTR _provY$[ebp]
  00466	85 c0		 test	 eax, eax
  00468	75 02		 jne	 SHORT $LN55@forInput
  0046a	eb 05		 jmp	 SHORT $LN16@forInput
$LN55@forInput:

; 147  :     }

  0046c	e9 5f ff ff ff	 jmp	 $LN15@forInput
$LN16@forInput:

; 148  : 
; 149  :     if (provD && provM && provY) {

  00471	0f b6 45 ab	 movzx	 eax, BYTE PTR _provD$[ebp]
  00475	85 c0		 test	 eax, eax
  00477	0f 84 da 00 00
	00		 je	 $LN56@forInput
  0047d	0f b6 45 9f	 movzx	 eax, BYTE PTR _provM$[ebp]
  00481	85 c0		 test	 eax, eax
  00483	0f 84 ce 00 00
	00		 je	 $LN56@forInput
  00489	0f b6 45 93	 movzx	 eax, BYTE PTR _provY$[ebp]
  0048d	85 c0		 test	 eax, eax
  0048f	0f 84 c2 00 00
	00		 je	 $LN56@forInput

; 150  :         day = stoi(DAY);

  00495	8d 45 d0	 lea	 eax, DWORD PTR _DAY$[ebp]
  00498	50		 push	 eax
  00499	8d 8d 10 fe ff
	ff		 lea	 ecx, DWORD PTR $T6[ebp]
  0049f	e8 00 00 00 00	 call	 ??0?$basic_string@DU?$char_traits@D@std@@V?$allocator@D@2@@std@@QAE@QBD@Z ; std::basic_string<char,std::char_traits<char>,std::allocator<char> >::basic_string<char,std::char_traits<char>,std::allocator<char> >
  004a4	c7 45 fc 00 00
	00 00		 mov	 DWORD PTR __$EHRec$[ebp+8], 0
  004ab	6a 0a		 push	 10			; 0000000aH
  004ad	6a 00		 push	 0
  004af	8d 8d 10 fe ff
	ff		 lea	 ecx, DWORD PTR $T6[ebp]
  004b5	51		 push	 ecx
  004b6	e8 00 00 00 00	 call	 ?stoi@std@@YAHABV?$basic_string@DU?$char_traits@D@std@@V?$allocator@D@2@@1@PAIH@Z ; std::stoi
  004bb	83 c4 0c	 add	 esp, 12			; 0000000cH
  004be	89 85 6c ff ff
	ff		 mov	 DWORD PTR _day$[ebp], eax
  004c4	c7 45 fc ff ff
	ff ff		 mov	 DWORD PTR __$EHRec$[ebp+8], -1
  004cb	8d 8d 10 fe ff
	ff		 lea	 ecx, DWORD PTR $T6[ebp]
  004d1	e8 00 00 00 00	 call	 ??1?$basic_string@DU?$char_traits@D@std@@V?$allocator@D@2@@std@@QAE@XZ ; std::basic_string<char,std::char_traits<char>,std::allocator<char> >::~basic_string<char,std::char_traits<char>,std::allocator<char> >

; 151  :         month = stoi(MONTH);

  004d6	8d 45 c4	 lea	 eax, DWORD PTR _MONTH$[ebp]
  004d9	50		 push	 eax
  004da	8d 8d ec fd ff
	ff		 lea	 ecx, DWORD PTR $T5[ebp]
  004e0	e8 00 00 00 00	 call	 ??0?$basic_string@DU?$char_traits@D@std@@V?$allocator@D@2@@std@@QAE@QBD@Z ; std::basic_string<char,std::char_traits<char>,std::allocator<char> >::basic_string<char,std::char_traits<char>,std::allocator<char> >
  004e5	c7 45 fc 01 00
	00 00		 mov	 DWORD PTR __$EHRec$[ebp+8], 1
  004ec	6a 0a		 push	 10			; 0000000aH
  004ee	6a 00		 push	 0
  004f0	8d 8d ec fd ff
	ff		 lea	 ecx, DWORD PTR $T5[ebp]
  004f6	51		 push	 ecx
  004f7	e8 00 00 00 00	 call	 ?stoi@std@@YAHABV?$basic_string@DU?$char_traits@D@std@@V?$allocator@D@2@@1@PAIH@Z ; std::stoi
  004fc	83 c4 0c	 add	 esp, 12			; 0000000cH
  004ff	89 85 78 ff ff
	ff		 mov	 DWORD PTR _month$[ebp], eax
  00505	c7 45 fc ff ff
	ff ff		 mov	 DWORD PTR __$EHRec$[ebp+8], -1
  0050c	8d 8d ec fd ff
	ff		 lea	 ecx, DWORD PTR $T5[ebp]
  00512	e8 00 00 00 00	 call	 ??1?$basic_string@DU?$char_traits@D@std@@V?$allocator@D@2@@std@@QAE@XZ ; std::basic_string<char,std::char_traits<char>,std::allocator<char> >::~basic_string<char,std::char_traits<char>,std::allocator<char> >

; 152  :         year = stoi(YEAR);

  00517	8d 45 b4	 lea	 eax, DWORD PTR _YEAR$[ebp]
  0051a	50		 push	 eax
  0051b	8d 8d c8 fd ff
	ff		 lea	 ecx, DWORD PTR $T4[ebp]
  00521	e8 00 00 00 00	 call	 ??0?$basic_string@DU?$char_traits@D@std@@V?$allocator@D@2@@std@@QAE@QBD@Z ; std::basic_string<char,std::char_traits<char>,std::allocator<char> >::basic_string<char,std::char_traits<char>,std::allocator<char> >
  00526	c7 45 fc 02 00
	00 00		 mov	 DWORD PTR __$EHRec$[ebp+8], 2
  0052d	6a 0a		 push	 10			; 0000000aH
  0052f	6a 00		 push	 0
  00531	8d 8d c8 fd ff
	ff		 lea	 ecx, DWORD PTR $T4[ebp]
  00537	51		 push	 ecx
  00538	e8 00 00 00 00	 call	 ?stoi@std@@YAHABV?$basic_string@DU?$char_traits@D@std@@V?$allocator@D@2@@1@PAIH@Z ; std::stoi
  0053d	83 c4 0c	 add	 esp, 12			; 0000000cH
  00540	89 45 84	 mov	 DWORD PTR _year$[ebp], eax
  00543	c7 45 fc ff ff
	ff ff		 mov	 DWORD PTR __$EHRec$[ebp+8], -1
  0054a	8d 8d c8 fd ff
	ff		 lea	 ecx, DWORD PTR $T4[ebp]
  00550	e8 00 00 00 00	 call	 ??1?$basic_string@DU?$char_traits@D@std@@V?$allocator@D@2@@std@@QAE@XZ ; std::basic_string<char,std::char_traits<char>,std::allocator<char> >::~basic_string<char,std::char_traits<char>,std::allocator<char> >

; 153  :     }

  00555	eb 43		 jmp	 SHORT $LN57@forInput
$LN56@forInput:

; 154  :     else {
; 155  :         cout << "РќРµРєРѕСЂСЂРµРєС‚РЅС‹Р№ РІРІРѕРґ, РїРѕРїСЂРѕР±СѓР№С‚Рµ РµС‰С‘ СЂР°Р·.\n " << endl;

  00557	8b f4		 mov	 esi, esp
  00559	68 00 00 00 00	 push	 OFFSET ??$endl@DU?$char_traits@D@std@@@std@@YAAAV?$basic_ostream@DU?$char_traits@D@std@@@0@AAV10@@Z ; std::endl<char,std::char_traits<char> >
  0055e	68 00 00 00 00	 push	 OFFSET ??_C@_0CJ@GBAPBDAC@?M?e?j?n?p?p?e?j?r?m?$PL?i?5?b?b?n?d?0?5?o?n?o?p?n?a?s?i?r?e?5?e@
  00563	a1 00 00 00 00	 mov	 eax, DWORD PTR __imp_?cout@std@@3V?$basic_ostream@DU?$char_traits@D@std@@@1@A
  00568	50		 push	 eax
  00569	e8 00 00 00 00	 call	 ??$?6U?$char_traits@D@std@@@std@@YAAAV?$basic_ostream@DU?$char_traits@D@std@@@0@AAV10@PBD@Z ; std::operator<<<std::char_traits<char> >
  0056e	83 c4 08	 add	 esp, 8
  00571	8b c8		 mov	 ecx, eax
  00573	ff 15 00 00 00
	00		 call	 DWORD PTR __imp_??6?$basic_ostream@DU?$char_traits@D@std@@@std@@QAEAAV01@P6AAAV01@AAV01@@Z@Z
  00579	3b f4		 cmp	 esi, esp
  0057b	e8 00 00 00 00	 call	 __RTC_CheckEsp

; 156  :         forInput(&day, &month, &year);

  00580	8d 45 84	 lea	 eax, DWORD PTR _year$[ebp]
  00583	50		 push	 eax
  00584	8d 8d 78 ff ff
	ff		 lea	 ecx, DWORD PTR _month$[ebp]
  0058a	51		 push	 ecx
  0058b	8d 95 6c ff ff
	ff		 lea	 edx, DWORD PTR _day$[ebp]
  00591	52		 push	 edx
  00592	e8 00 00 00 00	 call	 ?forInput@@YAXPAH00@Z	; forInput
  00597	83 c4 0c	 add	 esp, 12			; 0000000cH
$LN57@forInput:

; 157  :     }
; 158  :     delete[] cData;

  0059a	8b 45 e8	 mov	 eax, DWORD PTR _cData$[ebp]
  0059d	89 85 bc fd ff
	ff		 mov	 DWORD PTR $T3[ebp], eax
  005a3	8b 8d bc fd ff
	ff		 mov	 ecx, DWORD PTR $T3[ebp]
  005a9	51		 push	 ecx
  005aa	e8 00 00 00 00	 call	 ??_V@YAXPAX@Z		; operator delete[]
  005af	83 c4 04	 add	 esp, 4
  005b2	83 bd bc fd ff
	ff 00		 cmp	 DWORD PTR $T3[ebp], 0
  005b9	75 0c		 jne	 SHORT $LN65@forInput
  005bb	c7 85 a8 fd ff
	ff 00 00 00 00	 mov	 DWORD PTR tv231[ebp], 0
  005c5	eb 10		 jmp	 SHORT $LN66@forInput
$LN65@forInput:
  005c7	c7 45 e8 23 81
	00 00		 mov	 DWORD PTR _cData$[ebp], 33059 ; 00008123H
  005ce	8b 55 e8	 mov	 edx, DWORD PTR _cData$[ebp]
  005d1	89 95 a8 fd ff
	ff		 mov	 DWORD PTR tv231[ebp], edx
$LN66@forInput:

; 159  :     *d = day;

  005d7	8b 45 08	 mov	 eax, DWORD PTR _d$[ebp]
  005da	8b 8d 6c ff ff
	ff		 mov	 ecx, DWORD PTR _day$[ebp]
  005e0	89 08		 mov	 DWORD PTR [eax], ecx

; 160  :     *m = month;

  005e2	8b 45 0c	 mov	 eax, DWORD PTR _m$[ebp]
  005e5	8b 8d 78 ff ff
	ff		 mov	 ecx, DWORD PTR _month$[ebp]
  005eb	89 08		 mov	 DWORD PTR [eax], ecx

; 161  :     *y = year;

  005ed	8b 45 10	 mov	 eax, DWORD PTR _y$[ebp]
  005f0	8b 4d 84	 mov	 ecx, DWORD PTR _year$[ebp]
  005f3	89 08		 mov	 DWORD PTR [eax], ecx

; 162  :     delete[] iData;

  005f5	8b 45 dc	 mov	 eax, DWORD PTR _iData$[ebp]
  005f8	89 85 b0 fd ff
	ff		 mov	 DWORD PTR $T2[ebp], eax
  005fe	8b 8d b0 fd ff
	ff		 mov	 ecx, DWORD PTR $T2[ebp]
  00604	51		 push	 ecx
  00605	e8 00 00 00 00	 call	 ??_V@YAXPAX@Z		; operator delete[]
  0060a	83 c4 04	 add	 esp, 4
  0060d	83 bd b0 fd ff
	ff 00		 cmp	 DWORD PTR $T2[ebp], 0
  00614	75 0c		 jne	 SHORT $LN67@forInput
  00616	c7 85 a8 fd ff
	ff 00 00 00 00	 mov	 DWORD PTR tv234[ebp], 0
  00620	eb 10		 jmp	 SHORT $LN68@forInput
$LN67@forInput:
  00622	c7 45 dc 23 81
	00 00		 mov	 DWORD PTR _iData$[ebp], 33059 ; 00008123H
  00629	8b 55 dc	 mov	 edx, DWORD PTR _iData$[ebp]
  0062c	89 95 a8 fd ff
	ff		 mov	 DWORD PTR tv234[ebp], edx
$LN68@forInput:

; 163  :     //РїСЂРѕРІРµСЂРєР° РІРІРѕРґР°
; 164  :     CheackValidnost(day, month, year);

  00632	8b 45 84	 mov	 eax, DWORD PTR _year$[ebp]
  00635	50		 push	 eax
  00636	8b 8d 78 ff ff
	ff		 mov	 ecx, DWORD PTR _month$[ebp]
  0063c	51		 push	 ecx
  0063d	8b 95 6c ff ff
	ff		 mov	 edx, DWORD PTR _day$[ebp]
  00643	52		 push	 edx
  00644	e8 00 00 00 00	 call	 ?CheackValidnost@@YAXHHH@Z ; CheackValidnost
  00649	83 c4 0c	 add	 esp, 12			; 0000000cH
$LN58@forInput:

; 165  : }

  0064c	52		 push	 edx
  0064d	8b cd		 mov	 ecx, ebp
  0064f	50		 push	 eax
  00650	8d 15 00 00 00
	00		 lea	 edx, DWORD PTR $LN83@forInput
  00656	e8 00 00 00 00	 call	 @_RTC_CheckStackVars@8
  0065b	58		 pop	 eax
  0065c	5a		 pop	 edx
  0065d	8b 4d f4	 mov	 ecx, DWORD PTR __$EHRec$[ebp]
  00660	64 89 0d 00 00
	00 00		 mov	 DWORD PTR fs:0, ecx
  00667	59		 pop	 ecx
  00668	5f		 pop	 edi
  00669	5e		 pop	 esi
  0066a	5b		 pop	 ebx
  0066b	8b 4d f0	 mov	 ecx, DWORD PTR __$ArrayPad$[ebp]
  0066e	33 cd		 xor	 ecx, ebp
  00670	e8 00 00 00 00	 call	 @__security_check_cookie@4
  00675	81 c4 58 02 00
	00		 add	 esp, 600		; 00000258H
  0067b	3b ec		 cmp	 ebp, esp
  0067d	e8 00 00 00 00	 call	 __RTC_CheckEsp
  00682	8b e5		 mov	 esp, ebp
  00684	5d		 pop	 ebp
  00685	c3		 ret	 0
  00686	66 90		 npad	 2
$LN83@forInput:
  00688	06 00 00 00	 DD	 6
  0068c	00 00 00 00	 DD	 $LN82@forInput
$LN82@forInput:
  00690	d0 ff ff ff	 DD	 -48			; ffffffd0H
  00694	03 00 00 00	 DD	 3
  00698	00 00 00 00	 DD	 $LN75@forInput
  0069c	c4 ff ff ff	 DD	 -60			; ffffffc4H
  006a0	03 00 00 00	 DD	 3
  006a4	00 00 00 00	 DD	 $LN76@forInput
  006a8	b4 ff ff ff	 DD	 -76			; ffffffb4H
  006ac	05 00 00 00	 DD	 5
  006b0	00 00 00 00	 DD	 $LN77@forInput
  006b4	84 ff ff ff	 DD	 -124			; ffffff84H
  006b8	04 00 00 00	 DD	 4
  006bc	00 00 00 00	 DD	 $LN78@forInput
  006c0	78 ff ff ff	 DD	 -136			; ffffff78H
  006c4	04 00 00 00	 DD	 4
  006c8	00 00 00 00	 DD	 $LN79@forInput
  006cc	6c ff ff ff	 DD	 -148			; ffffff6cH
  006d0	04 00 00 00	 DD	 4
  006d4	00 00 00 00	 DD	 $LN80@forInput
$LN80@forInput:
  006d8	64		 DB	 100			; 00000064H
  006d9	61		 DB	 97			; 00000061H
  006da	79		 DB	 121			; 00000079H
  006db	00		 DB	 0
$LN79@forInput:
  006dc	6d		 DB	 109			; 0000006dH
  006dd	6f		 DB	 111			; 0000006fH
  006de	6e		 DB	 110			; 0000006eH
  006df	74		 DB	 116			; 00000074H
  006e0	68		 DB	 104			; 00000068H
  006e1	00		 DB	 0
$LN78@forInput:
  006e2	79		 DB	 121			; 00000079H
  006e3	65		 DB	 101			; 00000065H
  006e4	61		 DB	 97			; 00000061H
  006e5	72		 DB	 114			; 00000072H
  006e6	00		 DB	 0
$LN77@forInput:
  006e7	59		 DB	 89			; 00000059H
  006e8	45		 DB	 69			; 00000045H
  006e9	41		 DB	 65			; 00000041H
  006ea	52		 DB	 82			; 00000052H
  006eb	00		 DB	 0
$LN76@forInput:
  006ec	4d		 DB	 77			; 0000004dH
  006ed	4f		 DB	 79			; 0000004fH
  006ee	4e		 DB	 78			; 0000004eH
  006ef	54		 DB	 84			; 00000054H
  006f0	48		 DB	 72			; 00000048H
  006f1	00		 DB	 0
$LN75@forInput:
  006f2	44		 DB	 68			; 00000044H
  006f3	41		 DB	 65			; 00000041H
  006f4	59		 DB	 89			; 00000059H
  006f5	00		 DB	 0
  006f6	66 90		 npad	 2
$LN72@forInput:
  006f8	00 00 00 00	 DD	 $LN20@forInput
  006fc	00 00 00 00	 DD	 $LN21@forInput
  00700	00 00 00 00	 DD	 $LN22@forInput
  00704	00 00 00 00	 DD	 $LN23@forInput
  00708	00 00 00 00	 DD	 $LN24@forInput
  0070c	00 00 00 00	 DD	 $LN25@forInput
  00710	00 00 00 00	 DD	 $LN26@forInput
  00714	00 00 00 00	 DD	 $LN27@forInput
  00718	00 00 00 00	 DD	 $LN28@forInput
  0071c	00 00 00 00	 DD	 $LN29@forInput
$LN73@forInput:
  00720	00 00 00 00	 DD	 $LN32@forInput
  00724	00 00 00 00	 DD	 $LN33@forInput
  00728	00 00 00 00	 DD	 $LN34@forInput
  0072c	00 00 00 00	 DD	 $LN35@forInput
  00730	00 00 00 00	 DD	 $LN36@forInput
  00734	00 00 00 00	 DD	 $LN37@forInput
  00738	00 00 00 00	 DD	 $LN38@forInput
  0073c	00 00 00 00	 DD	 $LN39@forInput
  00740	00 00 00 00	 DD	 $LN40@forInput
  00744	00 00 00 00	 DD	 $LN41@forInput
$LN74@forInput:
  00748	00 00 00 00	 DD	 $LN44@forInput
  0074c	00 00 00 00	 DD	 $LN45@forInput
  00750	00 00 00 00	 DD	 $LN46@forInput
  00754	00 00 00 00	 DD	 $LN47@forInput
  00758	00 00 00 00	 DD	 $LN48@forInput
  0075c	00 00 00 00	 DD	 $LN49@forInput
  00760	00 00 00 00	 DD	 $LN50@forInput
  00764	00 00 00 00	 DD	 $LN51@forInput
  00768	00 00 00 00	 DD	 $LN52@forInput
  0076c	00 00 00 00	 DD	 $LN53@forInput
_TEXT	ENDS
;	COMDAT text$x
text$x	SEGMENT
__unwindfunclet$?forInput@@YAXPAH00@Z$0:
  00000	8d 8d 10 fe ff
	ff		 lea	 ecx, DWORD PTR $T6[ebp]
  00006	e9 00 00 00 00	 jmp	 ??1?$basic_string@DU?$char_traits@D@std@@V?$allocator@D@2@@std@@QAE@XZ ; std::basic_string<char,std::char_traits<char>,std::allocator<char> >::~basic_string<char,std::char_traits<char>,std::allocator<char> >
__unwindfunclet$?forInput@@YAXPAH00@Z$1:
  0000b	8d 8d ec fd ff
	ff		 lea	 ecx, DWORD PTR $T5[ebp]
  00011	e9 00 00 00 00	 jmp	 ??1?$basic_string@DU?$char_traits@D@std@@V?$allocator@D@2@@std@@QAE@XZ ; std::basic_string<char,std::char_traits<char>,std::allocator<char> >::~basic_string<char,std::char_traits<char>,std::allocator<char> >
__unwindfunclet$?forInput@@YAXPAH00@Z$2:
  00016	8d 8d c8 fd ff
	ff		 lea	 ecx, DWORD PTR $T4[ebp]
  0001c	e9 00 00 00 00	 jmp	 ??1?$basic_string@DU?$char_traits@D@std@@V?$allocator@D@2@@std@@QAE@XZ ; std::basic_string<char,std::char_traits<char>,std::allocator<char> >::~basic_string<char,std::char_traits<char>,std::allocator<char> >
  00021	cc		 int	 3
  00022	cc		 int	 3
  00023	cc		 int	 3
  00024	cc		 int	 3
  00025	cc		 int	 3
__ehhandler$?forInput@@YAXPAH00@Z:
  00026	90		 npad	 1
  00027	90		 npad	 1
  00028	8b 54 24 08	 mov	 edx, DWORD PTR [esp+8]
  0002c	8d 42 0c	 lea	 eax, DWORD PTR [edx+12]
  0002f	8b 8a a4 fd ff
	ff		 mov	 ecx, DWORD PTR [edx-604]
  00035	33 c8		 xor	 ecx, eax
  00037	e8 00 00 00 00	 call	 @__security_check_cookie@4
  0003c	8b 4a fc	 mov	 ecx, DWORD PTR [edx-4]
  0003f	33 c8		 xor	 ecx, eax
  00041	e8 00 00 00 00	 call	 @__security_check_cookie@4
  00046	b8 00 00 00 00	 mov	 eax, OFFSET __ehfuncinfo$?forInput@@YAXPAH00@Z
  0004b	e9 00 00 00 00	 jmp	 ___CxxFrameHandler3
text$x	ENDS
?forInput@@YAXPAH00@Z ENDP				; forInput
; Function compile flags: /Odtp /RTCsu /ZI
; File F:\лабы\КПО\1 лаба\kpo_lab1v2\kpo_lab1v2\kpo_lab1v2.cpp
;	COMDAT ?CheackLeapYear@@YA_NH@Z
_TEXT	SEGMENT
_year$ = 8						; size = 4
?CheackLeapYear@@YA_NH@Z PROC				; CheackLeapYear, COMDAT

; 53   : bool CheackLeapYear(int year) {

  00000	55		 push	 ebp
  00001	8b ec		 mov	 ebp, esp
  00003	81 ec c0 00 00
	00		 sub	 esp, 192		; 000000c0H
  00009	53		 push	 ebx
  0000a	56		 push	 esi
  0000b	57		 push	 edi
  0000c	8b fd		 mov	 edi, ebp
  0000e	33 c9		 xor	 ecx, ecx
  00010	b8 cc cc cc cc	 mov	 eax, -858993460		; ccccccccH
  00015	f3 ab		 rep stosd
  00017	b9 00 00 00 00	 mov	 ecx, OFFSET __94B3D082_kpo_lab1v2@cpp
  0001c	e8 00 00 00 00	 call	 @__CheckForDebuggerJustMyCode@4

; 54   :     if ((year % 4 == 0) && (year % 100 != 0) || (year % 400 == 0))

  00021	8b 45 08	 mov	 eax, DWORD PTR _year$[ebp]
  00024	25 03 00 00 80	 and	 eax, -2147483645	; 80000003H
  00029	79 05		 jns	 SHORT $LN7@CheackLeap
  0002b	48		 dec	 eax
  0002c	83 c8 fc	 or	 eax, -4			; fffffffcH
  0002f	40		 inc	 eax
$LN7@CheackLeap:
  00030	85 c0		 test	 eax, eax
  00032	75 0f		 jne	 SHORT $LN5@CheackLeap
  00034	8b 45 08	 mov	 eax, DWORD PTR _year$[ebp]
  00037	99		 cdq
  00038	b9 64 00 00 00	 mov	 ecx, 100		; 00000064H
  0003d	f7 f9		 idiv	 ecx
  0003f	85 d2		 test	 edx, edx
  00041	75 0f		 jne	 SHORT $LN4@CheackLeap
$LN5@CheackLeap:
  00043	8b 45 08	 mov	 eax, DWORD PTR _year$[ebp]
  00046	99		 cdq
  00047	b9 90 01 00 00	 mov	 ecx, 400		; 00000190H
  0004c	f7 f9		 idiv	 ecx
  0004e	85 d2		 test	 edx, edx
  00050	75 06		 jne	 SHORT $LN2@CheackLeap
$LN4@CheackLeap:

; 55   :         return true;

  00052	b0 01		 mov	 al, 1
  00054	eb 04		 jmp	 SHORT $LN1@CheackLeap
  00056	eb 02		 jmp	 SHORT $LN1@CheackLeap
$LN2@CheackLeap:

; 56   :     else
; 57   :         return false;

  00058	32 c0		 xor	 al, al
$LN1@CheackLeap:

; 58   : }

  0005a	5f		 pop	 edi
  0005b	5e		 pop	 esi
  0005c	5b		 pop	 ebx
  0005d	81 c4 c0 00 00
	00		 add	 esp, 192		; 000000c0H
  00063	3b ec		 cmp	 ebp, esp
  00065	e8 00 00 00 00	 call	 __RTC_CheckEsp
  0006a	8b e5		 mov	 esp, ebp
  0006c	5d		 pop	 ebp
  0006d	c3		 ret	 0
?CheackLeapYear@@YA_NH@Z ENDP				; CheackLeapYear
_TEXT	ENDS
; Function compile flags: /Odtp /RTCsu /ZI
; File F:\лабы\КПО\1 лаба\kpo_lab1v2\kpo_lab1v2\kpo_lab1v2.cpp
;	COMDAT ?CheackValidnost@@YAXHHH@Z
_TEXT	SEGMENT
_numberofdays$ = -52					; size = 48
_day$ = 8						; size = 4
_month$ = 12						; size = 4
_year$ = 16						; size = 4
?CheackValidnost@@YAXHHH@Z PROC				; CheackValidnost, COMDAT

; 168  : {

  00000	55		 push	 ebp
  00001	8b ec		 mov	 ebp, esp
  00003	81 ec f8 00 00
	00		 sub	 esp, 248		; 000000f8H
  00009	53		 push	 ebx
  0000a	56		 push	 esi
  0000b	57		 push	 edi
  0000c	8d 7d c8	 lea	 edi, DWORD PTR [ebp-56]
  0000f	b9 0e 00 00 00	 mov	 ecx, 14			; 0000000eH
  00014	b8 cc cc cc cc	 mov	 eax, -858993460		; ccccccccH
  00019	f3 ab		 rep stosd
  0001b	b9 00 00 00 00	 mov	 ecx, OFFSET __94B3D082_kpo_lab1v2@cpp
  00020	e8 00 00 00 00	 call	 @__CheckForDebuggerJustMyCode@4

; 169  :     int numberofdays[12] = { 31, 28, 31, 30, 31, 30, 31, 31, 30, 31, 30, 31 };

  00025	c7 45 cc 1f 00
	00 00		 mov	 DWORD PTR _numberofdays$[ebp], 31 ; 0000001fH
  0002c	c7 45 d0 1c 00
	00 00		 mov	 DWORD PTR _numberofdays$[ebp+4], 28 ; 0000001cH
  00033	c7 45 d4 1f 00
	00 00		 mov	 DWORD PTR _numberofdays$[ebp+8], 31 ; 0000001fH
  0003a	c7 45 d8 1e 00
	00 00		 mov	 DWORD PTR _numberofdays$[ebp+12], 30 ; 0000001eH
  00041	c7 45 dc 1f 00
	00 00		 mov	 DWORD PTR _numberofdays$[ebp+16], 31 ; 0000001fH
  00048	c7 45 e0 1e 00
	00 00		 mov	 DWORD PTR _numberofdays$[ebp+20], 30 ; 0000001eH
  0004f	c7 45 e4 1f 00
	00 00		 mov	 DWORD PTR _numberofdays$[ebp+24], 31 ; 0000001fH
  00056	c7 45 e8 1f 00
	00 00		 mov	 DWORD PTR _numberofdays$[ebp+28], 31 ; 0000001fH
  0005d	c7 45 ec 1e 00
	00 00		 mov	 DWORD PTR _numberofdays$[ebp+32], 30 ; 0000001eH
  00064	c7 45 f0 1f 00
	00 00		 mov	 DWORD PTR _numberofdays$[ebp+36], 31 ; 0000001fH
  0006b	c7 45 f4 1e 00
	00 00		 mov	 DWORD PTR _numberofdays$[ebp+40], 30 ; 0000001eH
  00072	c7 45 f8 1f 00
	00 00		 mov	 DWORD PTR _numberofdays$[ebp+44], 31 ; 0000001fH

; 170  : 
; 171  :     if (CheackLeapYear(year))

  00079	8b 45 10	 mov	 eax, DWORD PTR _year$[ebp]
  0007c	50		 push	 eax
  0007d	e8 00 00 00 00	 call	 ?CheackLeapYear@@YA_NH@Z ; CheackLeapYear
  00082	83 c4 04	 add	 esp, 4
  00085	0f b6 c8	 movzx	 ecx, al
  00088	85 c9		 test	 ecx, ecx
  0008a	74 10		 je	 SHORT $LN2@CheackVali

; 172  :         numberofdays[1] = 29;

  0008c	b8 04 00 00 00	 mov	 eax, 4
  00091	c1 e0 00	 shl	 eax, 0
  00094	c7 44 05 cc 1d
	00 00 00	 mov	 DWORD PTR _numberofdays$[ebp+eax], 29 ; 0000001dH
$LN2@CheackVali:

; 173  : 
; 174  :     if (day > numberofdays[month - 1] || year < 1) {

  0009c	8b 45 0c	 mov	 eax, DWORD PTR _month$[ebp]
  0009f	8b 4d 08	 mov	 ecx, DWORD PTR _day$[ebp]
  000a2	3b 4c 85 c8	 cmp	 ecx, DWORD PTR _numberofdays$[ebp+eax*4-4]
  000a6	7f 06		 jg	 SHORT $LN4@CheackVali
  000a8	83 7d 10 01	 cmp	 DWORD PTR _year$[ebp], 1
  000ac	7d 3d		 jge	 SHORT $LN1@CheackVali
$LN4@CheackVali:

; 175  :         cout << "РќРµРєРѕСЂСЂРµРєС‚РЅС‹Р№ РІРІРѕРґ, РїРѕРїСЂРѕР±СѓР№С‚Рµ РµС‰С‘ СЂР°Р·.\n " << endl;

  000ae	8b f4		 mov	 esi, esp
  000b0	68 00 00 00 00	 push	 OFFSET ??$endl@DU?$char_traits@D@std@@@std@@YAAAV?$basic_ostream@DU?$char_traits@D@std@@@0@AAV10@@Z ; std::endl<char,std::char_traits<char> >
  000b5	68 00 00 00 00	 push	 OFFSET ??_C@_0CJ@GBAPBDAC@?M?e?j?n?p?p?e?j?r?m?$PL?i?5?b?b?n?d?0?5?o?n?o?p?n?a?s?i?r?e?5?e@
  000ba	a1 00 00 00 00	 mov	 eax, DWORD PTR __imp_?cout@std@@3V?$basic_ostream@DU?$char_traits@D@std@@@1@A
  000bf	50		 push	 eax
  000c0	e8 00 00 00 00	 call	 ??$?6U?$char_traits@D@std@@@std@@YAAAV?$basic_ostream@DU?$char_traits@D@std@@@0@AAV10@PBD@Z ; std::operator<<<std::char_traits<char> >
  000c5	83 c4 08	 add	 esp, 8
  000c8	8b c8		 mov	 ecx, eax
  000ca	ff 15 00 00 00
	00		 call	 DWORD PTR __imp_??6?$basic_ostream@DU?$char_traits@D@std@@@std@@QAEAAV01@P6AAAV01@AAV01@@Z@Z
  000d0	3b f4		 cmp	 esi, esp
  000d2	e8 00 00 00 00	 call	 __RTC_CheckEsp

; 176  :         forInput(&day, &month, &year);

  000d7	8d 45 10	 lea	 eax, DWORD PTR _year$[ebp]
  000da	50		 push	 eax
  000db	8d 4d 0c	 lea	 ecx, DWORD PTR _month$[ebp]
  000de	51		 push	 ecx
  000df	8d 55 08	 lea	 edx, DWORD PTR _day$[ebp]
  000e2	52		 push	 edx
  000e3	e8 00 00 00 00	 call	 ?forInput@@YAXPAH00@Z	; forInput
  000e8	83 c4 0c	 add	 esp, 12			; 0000000cH
$LN1@CheackVali:

; 177  :     }
; 178  : 
; 179  : }

  000eb	52		 push	 edx
  000ec	8b cd		 mov	 ecx, ebp
  000ee	50		 push	 eax
  000ef	8d 15 00 00 00
	00		 lea	 edx, DWORD PTR $LN8@CheackVali
  000f5	e8 00 00 00 00	 call	 @_RTC_CheckStackVars@8
  000fa	58		 pop	 eax
  000fb	5a		 pop	 edx
  000fc	5f		 pop	 edi
  000fd	5e		 pop	 esi
  000fe	5b		 pop	 ebx
  000ff	81 c4 f8 00 00
	00		 add	 esp, 248		; 000000f8H
  00105	3b ec		 cmp	 ebp, esp
  00107	e8 00 00 00 00	 call	 __RTC_CheckEsp
  0010c	8b e5		 mov	 esp, ebp
  0010e	5d		 pop	 ebp
  0010f	c3		 ret	 0
$LN8@CheackVali:
  00110	01 00 00 00	 DD	 1
  00114	00 00 00 00	 DD	 $LN7@CheackVali
$LN7@CheackVali:
  00118	cc ff ff ff	 DD	 -52			; ffffffccH
  0011c	30 00 00 00	 DD	 48			; 00000030H
  00120	00 00 00 00	 DD	 $LN6@CheackVali
$LN6@CheackVali:
  00124	6e		 DB	 110			; 0000006eH
  00125	75		 DB	 117			; 00000075H
  00126	6d		 DB	 109			; 0000006dH
  00127	62		 DB	 98			; 00000062H
  00128	65		 DB	 101			; 00000065H
  00129	72		 DB	 114			; 00000072H
  0012a	6f		 DB	 111			; 0000006fH
  0012b	66		 DB	 102			; 00000066H
  0012c	64		 DB	 100			; 00000064H
  0012d	61		 DB	 97			; 00000061H
  0012e	79		 DB	 121			; 00000079H
  0012f	73		 DB	 115			; 00000073H
  00130	00		 DB	 0
?CheackValidnost@@YAXHHH@Z ENDP				; CheackValidnost
_TEXT	ENDS
; Function compile flags: /Odtp /RTCsu /ZI
; File C:\Program Files (x86)\Microsoft Visual Studio\2019\Community\VC\Tools\MSVC\14.29.30133\include\string
;	COMDAT ?stoi@std@@YAHABV?$basic_string@DU?$char_traits@D@std@@V?$allocator@D@2@@1@PAIH@Z
_TEXT	SEGMENT
__Ans$ = -48						; size = 4
__Eptr$ = -36						; size = 4
__Ptr$ = -24						; size = 4
__Errno_ref$ = -12					; size = 4
__$ArrayPad$ = -4					; size = 4
__Str$ = 8						; size = 4
__Idx$ = 12						; size = 4
__Base$ = 16						; size = 4
?stoi@std@@YAHABV?$basic_string@DU?$char_traits@D@std@@V?$allocator@D@2@@1@PAIH@Z PROC ; std::stoi, COMDAT

; 88   : inline int stoi(const string& _Str, size_t* _Idx = nullptr, int _Base = 10) {

  00000	55		 push	 ebp
  00001	8b ec		 mov	 ebp, esp
  00003	81 ec f4 00 00
	00		 sub	 esp, 244		; 000000f4H
  00009	53		 push	 ebx
  0000a	56		 push	 esi
  0000b	57		 push	 edi
  0000c	8d 7d cc	 lea	 edi, DWORD PTR [ebp-52]
  0000f	b9 0d 00 00 00	 mov	 ecx, 13			; 0000000dH
  00014	b8 cc cc cc cc	 mov	 eax, -858993460		; ccccccccH
  00019	f3 ab		 rep stosd
  0001b	a1 00 00 00 00	 mov	 eax, DWORD PTR ___security_cookie
  00020	33 c5		 xor	 eax, ebp
  00022	89 45 fc	 mov	 DWORD PTR __$ArrayPad$[ebp], eax
  00025	b9 00 00 00 00	 mov	 ecx, OFFSET __B7987E10_string
  0002a	e8 00 00 00 00	 call	 @__CheckForDebuggerJustMyCode@4

; 89   :     // convert string to int
; 90   :     int& _Errno_ref  = errno; // Nonzero cost, pay it once

  0002f	8b f4		 mov	 esi, esp
  00031	ff 15 00 00 00
	00		 call	 DWORD PTR __imp___errno
  00037	3b f4		 cmp	 esi, esp
  00039	e8 00 00 00 00	 call	 __RTC_CheckEsp
  0003e	89 45 f4	 mov	 DWORD PTR __Errno_ref$[ebp], eax

; 91   :     const char* _Ptr = _Str.c_str();

  00041	8b 4d 08	 mov	 ecx, DWORD PTR __Str$[ebp]
  00044	e8 00 00 00 00	 call	 ?c_str@?$basic_string@DU?$char_traits@D@std@@V?$allocator@D@2@@std@@QBEPBDXZ ; std::basic_string<char,std::char_traits<char>,std::allocator<char> >::c_str
  00049	89 45 e8	 mov	 DWORD PTR __Ptr$[ebp], eax

; 92   :     char* _Eptr;
; 93   :     _Errno_ref      = 0;

  0004c	8b 45 f4	 mov	 eax, DWORD PTR __Errno_ref$[ebp]
  0004f	c7 00 00 00 00
	00		 mov	 DWORD PTR [eax], 0

; 94   :     const long _Ans = _CSTD strtol(_Ptr, &_Eptr, _Base);

  00055	8b f4		 mov	 esi, esp
  00057	8b 45 10	 mov	 eax, DWORD PTR __Base$[ebp]
  0005a	50		 push	 eax
  0005b	8d 4d dc	 lea	 ecx, DWORD PTR __Eptr$[ebp]
  0005e	51		 push	 ecx
  0005f	8b 55 e8	 mov	 edx, DWORD PTR __Ptr$[ebp]
  00062	52		 push	 edx
  00063	ff 15 00 00 00
	00		 call	 DWORD PTR __imp__strtol
  00069	83 c4 0c	 add	 esp, 12			; 0000000cH
  0006c	3b f4		 cmp	 esi, esp
  0006e	e8 00 00 00 00	 call	 __RTC_CheckEsp
  00073	89 45 d0	 mov	 DWORD PTR __Ans$[ebp], eax

; 95   : 
; 96   :     if (_Ptr == _Eptr) {

  00076	8b 45 e8	 mov	 eax, DWORD PTR __Ptr$[ebp]
  00079	3b 45 dc	 cmp	 eax, DWORD PTR __Eptr$[ebp]
  0007c	75 0a		 jne	 SHORT $LN2@stoi

; 97   :         _Xinvalid_argument("invalid stoi argument");

  0007e	68 00 00 00 00	 push	 OFFSET ??_C@_0BG@HGEDEDEC@invalid?5stoi?5argument@
  00083	e8 00 00 00 00	 call	 ?_Xinvalid_argument@std@@YAXPBD@Z ; std::_Xinvalid_argument
$LN2@stoi:

; 98   :     }
; 99   : 
; 100  :     if (_Errno_ref == ERANGE || _Ans < INT_MIN || INT_MAX < _Ans) {

  00088	8b 45 f4	 mov	 eax, DWORD PTR __Errno_ref$[ebp]
  0008b	83 38 22	 cmp	 DWORD PTR [eax], 34	; 00000022H
  0008e	74 12		 je	 SHORT $LN4@stoi
  00090	81 7d d0 00 00
	00 80		 cmp	 DWORD PTR __Ans$[ebp], -2147483648 ; 80000000H
  00097	7c 09		 jl	 SHORT $LN4@stoi
  00099	81 7d d0 ff ff
	ff 7f		 cmp	 DWORD PTR __Ans$[ebp], 2147483647 ; 7fffffffH
  000a0	7e 0a		 jle	 SHORT $LN3@stoi
$LN4@stoi:

; 101  :         _Xout_of_range("stoi argument out of range");

  000a2	68 00 00 00 00	 push	 OFFSET ??_C@_0BL@MFFNMGGC@stoi?5argument?5out?5of?5range@
  000a7	e8 00 00 00 00	 call	 ?_Xout_of_range@std@@YAXPBD@Z ; std::_Xout_of_range
$LN3@stoi:

; 102  :     }
; 103  : 
; 104  :     if (_Idx) {

  000ac	83 7d 0c 00	 cmp	 DWORD PTR __Idx$[ebp], 0
  000b0	74 0b		 je	 SHORT $LN5@stoi

; 105  :         *_Idx = static_cast<size_t>(_Eptr - _Ptr);

  000b2	8b 45 dc	 mov	 eax, DWORD PTR __Eptr$[ebp]
  000b5	2b 45 e8	 sub	 eax, DWORD PTR __Ptr$[ebp]
  000b8	8b 4d 0c	 mov	 ecx, DWORD PTR __Idx$[ebp]
  000bb	89 01		 mov	 DWORD PTR [ecx], eax
$LN5@stoi:

; 106  :     }
; 107  : 
; 108  :     return static_cast<int>(_Ans);

  000bd	8b 45 d0	 mov	 eax, DWORD PTR __Ans$[ebp]
$LN6@stoi:

; 109  : }

  000c0	52		 push	 edx
  000c1	8b cd		 mov	 ecx, ebp
  000c3	50		 push	 eax
  000c4	8d 15 00 00 00
	00		 lea	 edx, DWORD PTR $LN9@stoi
  000ca	e8 00 00 00 00	 call	 @_RTC_CheckStackVars@8
  000cf	58		 pop	 eax
  000d0	5a		 pop	 edx
  000d1	5f		 pop	 edi
  000d2	5e		 pop	 esi
  000d3	5b		 pop	 ebx
  000d4	8b 4d fc	 mov	 ecx, DWORD PTR __$ArrayPad$[ebp]
  000d7	33 cd		 xor	 ecx, ebp
  000d9	e8 00 00 00 00	 call	 @__security_check_cookie@4
  000de	81 c4 f4 00 00
	00		 add	 esp, 244		; 000000f4H
  000e4	3b ec		 cmp	 ebp, esp
  000e6	e8 00 00 00 00	 call	 __RTC_CheckEsp
  000eb	8b e5		 mov	 esp, ebp
  000ed	5d		 pop	 ebp
  000ee	c3		 ret	 0
  000ef	90		 npad	 1
$LN9@stoi:
  000f0	01 00 00 00	 DD	 1
  000f4	00 00 00 00	 DD	 $LN8@stoi
$LN8@stoi:
  000f8	dc ff ff ff	 DD	 -36			; ffffffdcH
  000fc	04 00 00 00	 DD	 4
  00100	00 00 00 00	 DD	 $LN7@stoi
$LN7@stoi:
  00104	5f		 DB	 95			; 0000005fH
  00105	45		 DB	 69			; 00000045H
  00106	70		 DB	 112			; 00000070H
  00107	74		 DB	 116			; 00000074H
  00108	72		 DB	 114			; 00000072H
  00109	00		 DB	 0
?stoi@std@@YAHABV?$basic_string@DU?$char_traits@D@std@@V?$allocator@D@2@@1@PAIH@Z ENDP ; std::stoi
_TEXT	ENDS
; Function compile flags: /Odtp /RTCsu /ZI
;	COMDAT ??1?$_Compressed_pair@V?$allocator@D@std@@V?$_String_val@U?$_Simple_types@D@std@@@2@$00@std@@QAE@XZ
_TEXT	SEGMENT
_this$ = -8						; size = 4
??1?$_Compressed_pair@V?$allocator@D@std@@V?$_String_val@U?$_Simple_types@D@std@@@2@$00@std@@QAE@XZ PROC ; std::_Compressed_pair<std::allocator<char>,std::_String_val<std::_Simple_types<char> >,1>::~_Compressed_pair<std::allocator<char>,std::_String_val<std::_Simple_types<char> >,1>, COMDAT
; _this$ = ecx
  00000	55		 push	 ebp
  00001	8b ec		 mov	 ebp, esp
  00003	81 ec cc 00 00
	00		 sub	 esp, 204		; 000000ccH
  00009	53		 push	 ebx
  0000a	56		 push	 esi
  0000b	57		 push	 edi
  0000c	51		 push	 ecx
  0000d	8d 7d f4	 lea	 edi, DWORD PTR [ebp-12]
  00010	b9 03 00 00 00	 mov	 ecx, 3
  00015	b8 cc cc cc cc	 mov	 eax, -858993460		; ccccccccH
  0001a	f3 ab		 rep stosd
  0001c	59		 pop	 ecx
  0001d	89 4d f8	 mov	 DWORD PTR _this$[ebp], ecx
  00020	8b 4d f8	 mov	 ecx, DWORD PTR _this$[ebp]
  00023	e8 00 00 00 00	 call	 ??1?$_String_val@U?$_Simple_types@D@std@@@std@@QAE@XZ
  00028	5f		 pop	 edi
  00029	5e		 pop	 esi
  0002a	5b		 pop	 ebx
  0002b	81 c4 cc 00 00
	00		 add	 esp, 204		; 000000ccH
  00031	3b ec		 cmp	 ebp, esp
  00033	e8 00 00 00 00	 call	 __RTC_CheckEsp
  00038	8b e5		 mov	 esp, ebp
  0003a	5d		 pop	 ebp
  0003b	c3		 ret	 0
??1?$_Compressed_pair@V?$allocator@D@std@@V?$_String_val@U?$_Simple_types@D@std@@@2@$00@std@@QAE@XZ ENDP ; std::_Compressed_pair<std::allocator<char>,std::_String_val<std::_Simple_types<char> >,1>::~_Compressed_pair<std::allocator<char>,std::_String_val<std::_Simple_types<char> >,1>
_TEXT	ENDS
; Function compile flags: /Odtp /RTCsu /ZI
; File C:\Program Files (x86)\Microsoft Visual Studio\2019\Community\VC\Tools\MSVC\14.29.30133\include\xmemory
;	COMDAT ?_Get_first@?$_Compressed_pair@V?$allocator@D@std@@V?$_String_val@U?$_Simple_types@D@std@@@2@$00@std@@QBEABV?$allocator@D@2@XZ
_TEXT	SEGMENT
_this$ = -8						; size = 4
?_Get_first@?$_Compressed_pair@V?$allocator@D@std@@V?$_String_val@U?$_Simple_types@D@std@@@2@$00@std@@QBEABV?$allocator@D@2@XZ PROC ; std::_Compressed_pair<std::allocator<char>,std::_String_val<std::_Simple_types<char> >,1>::_Get_first, COMDAT
; _this$ = ecx

; 1381 :     constexpr const _Ty1& _Get_first() const noexcept {

  00000	55		 push	 ebp
  00001	8b ec		 mov	 ebp, esp
  00003	81 ec cc 00 00
	00		 sub	 esp, 204		; 000000ccH
  00009	53		 push	 ebx
  0000a	56		 push	 esi
  0000b	57		 push	 edi
  0000c	51		 push	 ecx
  0000d	8d 7d f4	 lea	 edi, DWORD PTR [ebp-12]
  00010	b9 03 00 00 00	 mov	 ecx, 3
  00015	b8 cc cc cc cc	 mov	 eax, -858993460		; ccccccccH
  0001a	f3 ab		 rep stosd
  0001c	59		 pop	 ecx
  0001d	89 4d f8	 mov	 DWORD PTR _this$[ebp], ecx
  00020	b9 00 00 00 00	 mov	 ecx, OFFSET __79D216CD_xmemory
  00025	e8 00 00 00 00	 call	 @__CheckForDebuggerJustMyCode@4

; 1382 :         return *this;

  0002a	8b 45 f8	 mov	 eax, DWORD PTR _this$[ebp]

; 1383 :     }

  0002d	5f		 pop	 edi
  0002e	5e		 pop	 esi
  0002f	5b		 pop	 ebx
  00030	81 c4 cc 00 00
	00		 add	 esp, 204		; 000000ccH
  00036	3b ec		 cmp	 ebp, esp
  00038	e8 00 00 00 00	 call	 __RTC_CheckEsp
  0003d	8b e5		 mov	 esp, ebp
  0003f	5d		 pop	 ebp
  00040	c3		 ret	 0
?_Get_first@?$_Compressed_pair@V?$allocator@D@std@@V?$_String_val@U?$_Simple_types@D@std@@@2@$00@std@@QBEABV?$allocator@D@2@XZ ENDP ; std::_Compressed_pair<std::allocator<char>,std::_String_val<std::_Simple_types<char> >,1>::_Get_first
_TEXT	ENDS
; Function compile flags: /Odtp /RTCsu /ZI
; File C:\Program Files (x86)\Microsoft Visual Studio\2019\Community\VC\Tools\MSVC\14.29.30133\include\xmemory
;	COMDAT ?_Get_first@?$_Compressed_pair@V?$allocator@D@std@@V?$_String_val@U?$_Simple_types@D@std@@@2@$00@std@@QAEAAV?$allocator@D@2@XZ
_TEXT	SEGMENT
_this$ = -8						; size = 4
?_Get_first@?$_Compressed_pair@V?$allocator@D@std@@V?$_String_val@U?$_Simple_types@D@std@@@2@$00@std@@QAEAAV?$allocator@D@2@XZ PROC ; std::_Compressed_pair<std::allocator<char>,std::_String_val<std::_Simple_types<char> >,1>::_Get_first, COMDAT
; _this$ = ecx

; 1377 :     constexpr _Ty1& _Get_first() noexcept {

  00000	55		 push	 ebp
  00001	8b ec		 mov	 ebp, esp
  00003	81 ec cc 00 00
	00		 sub	 esp, 204		; 000000ccH
  00009	53		 push	 ebx
  0000a	56		 push	 esi
  0000b	57		 push	 edi
  0000c	51		 push	 ecx
  0000d	8d 7d f4	 lea	 edi, DWORD PTR [ebp-12]
  00010	b9 03 00 00 00	 mov	 ecx, 3
  00015	b8 cc cc cc cc	 mov	 eax, -858993460		; ccccccccH
  0001a	f3 ab		 rep stosd
  0001c	59		 pop	 ecx
  0001d	89 4d f8	 mov	 DWORD PTR _this$[ebp], ecx
  00020	b9 00 00 00 00	 mov	 ecx, OFFSET __79D216CD_xmemory
  00025	e8 00 00 00 00	 call	 @__CheckForDebuggerJustMyCode@4

; 1378 :         return *this;

  0002a	8b 45 f8	 mov	 eax, DWORD PTR _this$[ebp]

; 1379 :     }

  0002d	5f		 pop	 edi
  0002e	5e		 pop	 esi
  0002f	5b		 pop	 ebx
  00030	81 c4 cc 00 00
	00		 add	 esp, 204		; 000000ccH
  00036	3b ec		 cmp	 ebp, esp
  00038	e8 00 00 00 00	 call	 __RTC_CheckEsp
  0003d	8b e5		 mov	 esp, ebp
  0003f	5d		 pop	 ebp
  00040	c3		 ret	 0
?_Get_first@?$_Compressed_pair@V?$allocator@D@std@@V?$_String_val@U?$_Simple_types@D@std@@@2@$00@std@@QAEAAV?$allocator@D@2@XZ ENDP ; std::_Compressed_pair<std::allocator<char>,std::_String_val<std::_Simple_types<char> >,1>::_Get_first
_TEXT	ENDS
; Function compile flags: /Odtp /RTCsu /ZI
; File C:\Program Files (x86)\Microsoft Visual Studio\2019\Community\VC\Tools\MSVC\14.29.30133\include\xstring
;	COMDAT ?_Getal@?$basic_string@DU?$char_traits@D@std@@V?$allocator@D@2@@std@@ABEABV?$allocator@D@2@XZ
_TEXT	SEGMENT
_this$ = -8						; size = 4
?_Getal@?$basic_string@DU?$char_traits@D@std@@V?$allocator@D@2@@std@@ABEABV?$allocator@D@2@XZ PROC ; std::basic_string<char,std::char_traits<char>,std::allocator<char> >::_Getal, COMDAT
; _this$ = ecx

; 4654 :     _CONSTEXPR20_CONTAINER const _Alty& _Getal() const noexcept {

  00000	55		 push	 ebp
  00001	8b ec		 mov	 ebp, esp
  00003	81 ec cc 00 00
	00		 sub	 esp, 204		; 000000ccH
  00009	53		 push	 ebx
  0000a	56		 push	 esi
  0000b	57		 push	 edi
  0000c	51		 push	 ecx
  0000d	8d 7d f4	 lea	 edi, DWORD PTR [ebp-12]
  00010	b9 03 00 00 00	 mov	 ecx, 3
  00015	b8 cc cc cc cc	 mov	 eax, -858993460		; ccccccccH
  0001a	f3 ab		 rep stosd
  0001c	59		 pop	 ecx
  0001d	89 4d f8	 mov	 DWORD PTR _this$[ebp], ecx
  00020	b9 00 00 00 00	 mov	 ecx, OFFSET __0D019051_xstring
  00025	e8 00 00 00 00	 call	 @__CheckForDebuggerJustMyCode@4

; 4655 :         return _Mypair._Get_first();

  0002a	8b 4d f8	 mov	 ecx, DWORD PTR _this$[ebp]
  0002d	e8 00 00 00 00	 call	 ?_Get_first@?$_Compressed_pair@V?$allocator@D@std@@V?$_String_val@U?$_Simple_types@D@std@@@2@$00@std@@QBEABV?$allocator@D@2@XZ ; std::_Compressed_pair<std::allocator<char>,std::_String_val<std::_Simple_types<char> >,1>::_Get_first

; 4656 :     }

  00032	5f		 pop	 edi
  00033	5e		 pop	 esi
  00034	5b		 pop	 ebx
  00035	81 c4 cc 00 00
	00		 add	 esp, 204		; 000000ccH
  0003b	3b ec		 cmp	 ebp, esp
  0003d	e8 00 00 00 00	 call	 __RTC_CheckEsp
  00042	8b e5		 mov	 esp, ebp
  00044	5d		 pop	 ebp
  00045	c3		 ret	 0
?_Getal@?$basic_string@DU?$char_traits@D@std@@V?$allocator@D@2@@std@@ABEABV?$allocator@D@2@XZ ENDP ; std::basic_string<char,std::char_traits<char>,std::allocator<char> >::_Getal
_TEXT	ENDS
; Function compile flags: /Odtp /RTCsu /ZI
; File C:\Program Files (x86)\Microsoft Visual Studio\2019\Community\VC\Tools\MSVC\14.29.30133\include\xstring
;	COMDAT ?_Getal@?$basic_string@DU?$char_traits@D@std@@V?$allocator@D@2@@std@@AAEAAV?$allocator@D@2@XZ
_TEXT	SEGMENT
_this$ = -8						; size = 4
?_Getal@?$basic_string@DU?$char_traits@D@std@@V?$allocator@D@2@@std@@AAEAAV?$allocator@D@2@XZ PROC ; std::basic_string<char,std::char_traits<char>,std::allocator<char> >::_Getal, COMDAT
; _this$ = ecx

; 4650 :     _CONSTEXPR20_CONTAINER _Alty& _Getal() noexcept {

  00000	55		 push	 ebp
  00001	8b ec		 mov	 ebp, esp
  00003	81 ec cc 00 00
	00		 sub	 esp, 204		; 000000ccH
  00009	53		 push	 ebx
  0000a	56		 push	 esi
  0000b	57		 push	 edi
  0000c	51		 push	 ecx
  0000d	8d 7d f4	 lea	 edi, DWORD PTR [ebp-12]
  00010	b9 03 00 00 00	 mov	 ecx, 3
  00015	b8 cc cc cc cc	 mov	 eax, -858993460		; ccccccccH
  0001a	f3 ab		 rep stosd
  0001c	59		 pop	 ecx
  0001d	89 4d f8	 mov	 DWORD PTR _this$[ebp], ecx
  00020	b9 00 00 00 00	 mov	 ecx, OFFSET __0D019051_xstring
  00025	e8 00 00 00 00	 call	 @__CheckForDebuggerJustMyCode@4

; 4651 :         return _Mypair._Get_first();

  0002a	8b 4d f8	 mov	 ecx, DWORD PTR _this$[ebp]
  0002d	e8 00 00 00 00	 call	 ?_Get_first@?$_Compressed_pair@V?$allocator@D@std@@V?$_String_val@U?$_Simple_types@D@std@@@2@$00@std@@QAEAAV?$allocator@D@2@XZ ; std::_Compressed_pair<std::allocator<char>,std::_String_val<std::_Simple_types<char> >,1>::_Get_first

; 4652 :     }

  00032	5f		 pop	 edi
  00033	5e		 pop	 esi
  00034	5b		 pop	 ebx
  00035	81 c4 cc 00 00
	00		 add	 esp, 204		; 000000ccH
  0003b	3b ec		 cmp	 ebp, esp
  0003d	e8 00 00 00 00	 call	 __RTC_CheckEsp
  00042	8b e5		 mov	 esp, ebp
  00044	5d		 pop	 ebp
  00045	c3		 ret	 0
?_Getal@?$basic_string@DU?$char_traits@D@std@@V?$allocator@D@2@@std@@AAEAAV?$allocator@D@2@XZ ENDP ; std::basic_string<char,std::char_traits<char>,std::allocator<char> >::_Getal
_TEXT	ENDS
; Function compile flags: /Odtp /RTCsu /ZI
; File C:\Program Files (x86)\Microsoft Visual Studio\2019\Community\VC\Tools\MSVC\14.29.30133\include\xstring
;	COMDAT ?_Tidy_deallocate@?$basic_string@DU?$char_traits@D@std@@V?$allocator@D@2@@std@@AAEXXZ
_TEXT	SEGMENT
$T2 = -245						; size = 1
__Al$3 = -44						; size = 4
__Ptr$4 = -32						; size = 4
_this$ = -20						; size = 4
__$EHRec$ = -12						; size = 12
?_Tidy_deallocate@?$basic_string@DU?$char_traits@D@std@@V?$allocator@D@2@@std@@AAEXXZ PROC ; std::basic_string<char,std::char_traits<char>,std::allocator<char> >::_Tidy_deallocate, COMDAT
; _this$ = ecx

; 4616 :     _CONSTEXPR20_CONTAINER void _Tidy_deallocate() noexcept { // initialize buffer, deallocating any storage

  00000	55		 push	 ebp
  00001	8b ec		 mov	 ebp, esp
  00003	6a ff		 push	 -1
  00005	68 00 00 00 00	 push	 __ehhandler$?_Tidy_deallocate@?$basic_string@DU?$char_traits@D@std@@V?$allocator@D@2@@std@@AAEXXZ
  0000a	64 a1 00 00 00
	00		 mov	 eax, DWORD PTR fs:0
  00010	50		 push	 eax
  00011	81 ec f0 00 00
	00		 sub	 esp, 240		; 000000f0H
  00017	53		 push	 ebx
  00018	56		 push	 esi
  00019	57		 push	 edi
  0001a	51		 push	 ecx
  0001b	8d 7d c4	 lea	 edi, DWORD PTR [ebp-60]
  0001e	b9 0c 00 00 00	 mov	 ecx, 12			; 0000000cH
  00023	b8 cc cc cc cc	 mov	 eax, -858993460		; ccccccccH
  00028	f3 ab		 rep stosd
  0002a	59		 pop	 ecx
  0002b	a1 00 00 00 00	 mov	 eax, DWORD PTR ___security_cookie
  00030	33 c5		 xor	 eax, ebp
  00032	50		 push	 eax
  00033	8d 45 f4	 lea	 eax, DWORD PTR __$EHRec$[ebp]
  00036	64 a3 00 00 00
	00		 mov	 DWORD PTR fs:0, eax
  0003c	89 4d ec	 mov	 DWORD PTR _this$[ebp], ecx
  0003f	b9 00 00 00 00	 mov	 ecx, OFFSET __0D019051_xstring
  00044	e8 00 00 00 00	 call	 @__CheckForDebuggerJustMyCode@4

; 4617 :         _Mypair._Myval2._Orphan_all();

  00049	8b 4d ec	 mov	 ecx, DWORD PTR _this$[ebp]
  0004c	e8 00 00 00 00	 call	 ?_Orphan_all@_Container_base12@std@@QAEXXZ ; std::_Container_base12::_Orphan_all

; 4618 :         if (_Mypair._Myval2._Large_string_engaged()) {

  00051	8b 4d ec	 mov	 ecx, DWORD PTR _this$[ebp]
  00054	e8 00 00 00 00	 call	 ?_Large_string_engaged@?$_String_val@U?$_Simple_types@D@std@@@std@@QBE_NXZ ; std::_String_val<std::_Simple_types<char> >::_Large_string_engaged
  00059	0f b6 c0	 movzx	 eax, al
  0005c	85 c0		 test	 eax, eax
  0005e	74 39		 je	 SHORT $LN2@Tidy_deall

; 4619 :             const pointer _Ptr = _Mypair._Myval2._Bx._Ptr;

  00060	8b 45 ec	 mov	 eax, DWORD PTR _this$[ebp]
  00063	8b 48 04	 mov	 ecx, DWORD PTR [eax+4]
  00066	89 4d e0	 mov	 DWORD PTR __Ptr$4[ebp], ecx

; 4620 :             auto& _Al          = _Getal();

  00069	8b 4d ec	 mov	 ecx, DWORD PTR _this$[ebp]
  0006c	e8 00 00 00 00	 call	 ?_Getal@?$basic_string@DU?$char_traits@D@std@@V?$allocator@D@2@@std@@AAEAAV?$allocator@D@2@XZ ; std::basic_string<char,std::char_traits<char>,std::allocator<char> >::_Getal
  00071	89 45 d4	 mov	 DWORD PTR __Al$3[ebp], eax

; 4621 :             _Destroy_in_place(_Mypair._Myval2._Bx._Ptr);

  00074	8b 45 ec	 mov	 eax, DWORD PTR _this$[ebp]
  00077	83 c0 04	 add	 eax, 4
  0007a	50		 push	 eax
  0007b	e8 00 00 00 00	 call	 ??$_Destroy_in_place@PAD@std@@YAXAAPAD@Z ; std::_Destroy_in_place<char *>
  00080	83 c4 04	 add	 esp, 4

; 4622 :             _Al.deallocate(_Ptr, _Mypair._Myval2._Myres + 1);

  00083	8b 45 ec	 mov	 eax, DWORD PTR _this$[ebp]
  00086	8b 48 18	 mov	 ecx, DWORD PTR [eax+24]
  00089	83 c1 01	 add	 ecx, 1
  0008c	51		 push	 ecx
  0008d	8b 55 e0	 mov	 edx, DWORD PTR __Ptr$4[ebp]
  00090	52		 push	 edx
  00091	8b 4d d4	 mov	 ecx, DWORD PTR __Al$3[ebp]
  00094	e8 00 00 00 00	 call	 ?deallocate@?$allocator@D@std@@QAEXQADI@Z ; std::allocator<char>::deallocate
$LN2@Tidy_deall:

; 4623 :         }
; 4624 : 
; 4625 : #ifdef __cpp_lib_constexpr_string
; 4626 :         if (_STD is_constant_evaluated()) {
; 4627 :             _Mypair._Myval2._Bx._Ptr = nullptr;
; 4628 :             _Mypair._Myval2._Mysize  = 0;
; 4629 :             _Mypair._Myval2._Myres   = 0;
; 4630 :         } else
; 4631 : #endif // __cpp_lib_constexpr_string
; 4632 :         {
; 4633 :             _Mypair._Myval2._Mysize = 0;

  00099	8b 45 ec	 mov	 eax, DWORD PTR _this$[ebp]
  0009c	c7 40 14 00 00
	00 00		 mov	 DWORD PTR [eax+20], 0

; 4634 :             _Mypair._Myval2._Myres  = _BUF_SIZE - 1;

  000a3	8b 45 ec	 mov	 eax, DWORD PTR _this$[ebp]
  000a6	c7 40 18 0f 00
	00 00		 mov	 DWORD PTR [eax+24], 15	; 0000000fH

; 4635 :             // the _Traits::assign is last so the codegen doesn't think the char write can alias this
; 4636 :             _Traits::assign(_Mypair._Myval2._Bx._Buf[0], _Elem());

  000ad	c6 85 0b ff ff
	ff 00		 mov	 BYTE PTR $T2[ebp], 0
  000b4	8d 85 0b ff ff
	ff		 lea	 eax, DWORD PTR $T2[ebp]
  000ba	50		 push	 eax
  000bb	b9 01 00 00 00	 mov	 ecx, 1
  000c0	6b d1 00	 imul	 edx, ecx, 0
  000c3	8b 45 ec	 mov	 eax, DWORD PTR _this$[ebp]
  000c6	8d 4c 10 04	 lea	 ecx, DWORD PTR [eax+edx+4]
  000ca	51		 push	 ecx
  000cb	e8 00 00 00 00	 call	 ?assign@?$_Narrow_char_traits@DH@std@@SAXAADABD@Z ; std::_Narrow_char_traits<char,int>::assign
  000d0	83 c4 08	 add	 esp, 8

; 4637 :         }
; 4638 :     }

  000d3	8b 4d f4	 mov	 ecx, DWORD PTR __$EHRec$[ebp]
  000d6	64 89 0d 00 00
	00 00		 mov	 DWORD PTR fs:0, ecx
  000dd	59		 pop	 ecx
  000de	5f		 pop	 edi
  000df	5e		 pop	 esi
  000e0	5b		 pop	 ebx
  000e1	81 c4 fc 00 00
	00		 add	 esp, 252		; 000000fcH
  000e7	3b ec		 cmp	 ebp, esp
  000e9	e8 00 00 00 00	 call	 __RTC_CheckEsp
  000ee	8b e5		 mov	 esp, ebp
  000f0	5d		 pop	 ebp
  000f1	c3		 ret	 0
  000f2	cc		 int	 3
  000f3	cc		 int	 3
  000f4	cc		 int	 3
  000f5	cc		 int	 3
  000f6	cc		 int	 3
_TEXT	ENDS
;	COMDAT text$x
text$x	SEGMENT
__ehhandler$?_Tidy_deallocate@?$basic_string@DU?$char_traits@D@std@@V?$allocator@D@2@@std@@AAEXXZ:
  00000	90		 npad	 1
  00001	90		 npad	 1
  00002	8b 54 24 08	 mov	 edx, DWORD PTR [esp+8]
  00006	8d 42 0c	 lea	 eax, DWORD PTR [edx+12]
  00009	8b 8a 00 ff ff
	ff		 mov	 ecx, DWORD PTR [edx-256]
  0000f	33 c8		 xor	 ecx, eax
  00011	e8 00 00 00 00	 call	 @__security_check_cookie@4
  00016	b8 00 00 00 00	 mov	 eax, OFFSET __ehfuncinfo$?_Tidy_deallocate@?$basic_string@DU?$char_traits@D@std@@V?$allocator@D@2@@std@@AAEXXZ
  0001b	e9 00 00 00 00	 jmp	 ___CxxFrameHandler3
text$x	ENDS
?_Tidy_deallocate@?$basic_string@DU?$char_traits@D@std@@V?$allocator@D@2@@std@@AAEXXZ ENDP ; std::basic_string<char,std::char_traits<char>,std::allocator<char> >::_Tidy_deallocate
; Function compile flags: /Odtp /RTCsu /ZI
; File C:\Program Files (x86)\Microsoft Visual Studio\2019\Community\VC\Tools\MSVC\14.29.30133\include\xstring
;	COMDAT ?_Tidy_init@?$basic_string@DU?$char_traits@D@std@@V?$allocator@D@2@@std@@AAEXXZ
_TEXT	SEGMENT
$T1 = -221						; size = 1
__My_data$ = -20					; size = 4
_this$ = -8						; size = 4
?_Tidy_init@?$basic_string@DU?$char_traits@D@std@@V?$allocator@D@2@@std@@AAEXXZ PROC ; std::basic_string<char,std::char_traits<char>,std::allocator<char> >::_Tidy_init, COMDAT
; _this$ = ecx

; 4594 :     _CONSTEXPR20_CONTAINER void _Tidy_init() noexcept { // initialize basic_string data members

  00000	55		 push	 ebp
  00001	8b ec		 mov	 ebp, esp
  00003	81 ec e4 00 00
	00		 sub	 esp, 228		; 000000e4H
  00009	53		 push	 ebx
  0000a	56		 push	 esi
  0000b	57		 push	 edi
  0000c	51		 push	 ecx
  0000d	8d 7d dc	 lea	 edi, DWORD PTR [ebp-36]
  00010	b9 09 00 00 00	 mov	 ecx, 9
  00015	b8 cc cc cc cc	 mov	 eax, -858993460		; ccccccccH
  0001a	f3 ab		 rep stosd
  0001c	59		 pop	 ecx
  0001d	89 4d f8	 mov	 DWORD PTR _this$[ebp], ecx
  00020	b9 00 00 00 00	 mov	 ecx, OFFSET __0D019051_xstring
  00025	e8 00 00 00 00	 call	 @__CheckForDebuggerJustMyCode@4

; 4595 :         auto& _My_data   = _Mypair._Myval2;

  0002a	8b 45 f8	 mov	 eax, DWORD PTR _this$[ebp]
  0002d	89 45 ec	 mov	 DWORD PTR __My_data$[ebp], eax

; 4596 :         _My_data._Mysize = 0;

  00030	8b 45 ec	 mov	 eax, DWORD PTR __My_data$[ebp]
  00033	c7 40 14 00 00
	00 00		 mov	 DWORD PTR [eax+20], 0

; 4597 : 
; 4598 : #ifdef __cpp_lib_constexpr_string
; 4599 :         if (_STD is_constant_evaluated()) {
; 4600 :             _My_data._Myres        = _BUF_SIZE; // SSO disabled in constexpr context
; 4601 :             auto& _Al              = _Getal();
; 4602 :             const pointer _New_ptr = _Al.allocate(_BUF_SIZE + 1); // throws
; 4603 :             _My_data._Bx._Ptr      = _New_ptr;
; 4604 : 
; 4605 :             _Elem* const _Raw_new = _Unfancy(_New_ptr);
; 4606 :             _Traits::assign(_Raw_new, _BUF_SIZE + 1, _Elem());
; 4607 :         } else
; 4608 : #endif // __cpp_lib_constexpr_string
; 4609 :         {
; 4610 :             _My_data._Myres = _BUF_SIZE - 1;

  0003a	8b 45 ec	 mov	 eax, DWORD PTR __My_data$[ebp]
  0003d	c7 40 18 0f 00
	00 00		 mov	 DWORD PTR [eax+24], 15	; 0000000fH

; 4611 :             // the _Traits::assign is last so the codegen doesn't think the char write can alias this
; 4612 :             _Traits::assign(_My_data._Bx._Buf[0], _Elem());

  00044	c6 85 23 ff ff
	ff 00		 mov	 BYTE PTR $T1[ebp], 0
  0004b	8d 85 23 ff ff
	ff		 lea	 eax, DWORD PTR $T1[ebp]
  00051	50		 push	 eax
  00052	b9 01 00 00 00	 mov	 ecx, 1
  00057	6b d1 00	 imul	 edx, ecx, 0
  0005a	8b 45 ec	 mov	 eax, DWORD PTR __My_data$[ebp]
  0005d	8d 4c 10 04	 lea	 ecx, DWORD PTR [eax+edx+4]
  00061	51		 push	 ecx
  00062	e8 00 00 00 00	 call	 ?assign@?$_Narrow_char_traits@DH@std@@SAXAADABD@Z ; std::_Narrow_char_traits<char,int>::assign
  00067	83 c4 08	 add	 esp, 8

; 4613 :         }
; 4614 :     }

  0006a	5f		 pop	 edi
  0006b	5e		 pop	 esi
  0006c	5b		 pop	 ebx
  0006d	81 c4 e4 00 00
	00		 add	 esp, 228		; 000000e4H
  00073	3b ec		 cmp	 ebp, esp
  00075	e8 00 00 00 00	 call	 __RTC_CheckEsp
  0007a	8b e5		 mov	 esp, ebp
  0007c	5d		 pop	 ebp
  0007d	c3		 ret	 0
?_Tidy_init@?$basic_string@DU?$char_traits@D@std@@V?$allocator@D@2@@std@@AAEXXZ ENDP ; std::basic_string<char,std::char_traits<char>,std::allocator<char> >::_Tidy_init
_TEXT	ENDS
; Function compile flags: /Odtp /RTCsu /ZI
; File C:\Program Files (x86)\Microsoft Visual Studio\2019\Community\VC\Tools\MSVC\14.29.30133\include\xstring
;	COMDAT ?_Calculate_growth@?$basic_string@DU?$char_traits@D@std@@V?$allocator@D@2@@std@@ABEII@Z
_TEXT	SEGMENT
_this$ = -8						; size = 4
__Requested$ = 8					; size = 4
?_Calculate_growth@?$basic_string@DU?$char_traits@D@std@@V?$allocator@D@2@@std@@ABEII@Z PROC ; std::basic_string<char,std::char_traits<char>,std::allocator<char> >::_Calculate_growth, COMDAT
; _this$ = ecx

; 4500 :     _NODISCARD _CONSTEXPR20_CONTAINER size_type _Calculate_growth(const size_type _Requested) const noexcept {

  00000	55		 push	 ebp
  00001	8b ec		 mov	 ebp, esp
  00003	81 ec cc 00 00
	00		 sub	 esp, 204		; 000000ccH
  00009	53		 push	 ebx
  0000a	56		 push	 esi
  0000b	57		 push	 edi
  0000c	51		 push	 ecx
  0000d	8d 7d f4	 lea	 edi, DWORD PTR [ebp-12]
  00010	b9 03 00 00 00	 mov	 ecx, 3
  00015	b8 cc cc cc cc	 mov	 eax, -858993460		; ccccccccH
  0001a	f3 ab		 rep stosd
  0001c	59		 pop	 ecx
  0001d	89 4d f8	 mov	 DWORD PTR _this$[ebp], ecx
  00020	b9 00 00 00 00	 mov	 ecx, OFFSET __0D019051_xstring
  00025	e8 00 00 00 00	 call	 @__CheckForDebuggerJustMyCode@4

; 4501 :         return _Calculate_growth(_Requested, _Mypair._Myval2._Myres, max_size());

  0002a	8b 4d f8	 mov	 ecx, DWORD PTR _this$[ebp]
  0002d	e8 00 00 00 00	 call	 ?max_size@?$basic_string@DU?$char_traits@D@std@@V?$allocator@D@2@@std@@QBEIXZ ; std::basic_string<char,std::char_traits<char>,std::allocator<char> >::max_size
  00032	50		 push	 eax
  00033	8b 45 f8	 mov	 eax, DWORD PTR _this$[ebp]
  00036	8b 48 18	 mov	 ecx, DWORD PTR [eax+24]
  00039	51		 push	 ecx
  0003a	8b 55 08	 mov	 edx, DWORD PTR __Requested$[ebp]
  0003d	52		 push	 edx
  0003e	e8 00 00 00 00	 call	 ?_Calculate_growth@?$basic_string@DU?$char_traits@D@std@@V?$allocator@D@2@@std@@CAIIII@Z ; std::basic_string<char,std::char_traits<char>,std::allocator<char> >::_Calculate_growth
  00043	83 c4 0c	 add	 esp, 12			; 0000000cH

; 4502 :     }

  00046	5f		 pop	 edi
  00047	5e		 pop	 esi
  00048	5b		 pop	 ebx
  00049	81 c4 cc 00 00
	00		 add	 esp, 204		; 000000ccH
  0004f	3b ec		 cmp	 ebp, esp
  00051	e8 00 00 00 00	 call	 __RTC_CheckEsp
  00056	8b e5		 mov	 esp, ebp
  00058	5d		 pop	 ebp
  00059	c2 04 00	 ret	 4
?_Calculate_growth@?$basic_string@DU?$char_traits@D@std@@V?$allocator@D@2@@std@@ABEII@Z ENDP ; std::basic_string<char,std::char_traits<char>,std::allocator<char> >::_Calculate_growth
_TEXT	ENDS
; Function compile flags: /Odtp /RTCsu /ZI
; File C:\Program Files (x86)\Microsoft Visual Studio\2019\Community\VC\Tools\MSVC\14.29.30133\include\xstring
;	COMDAT ?_Calculate_growth@?$basic_string@DU?$char_traits@D@std@@V?$allocator@D@2@@std@@CAIIII@Z
_TEXT	SEGMENT
$T1 = -216						; size = 4
__Masked$ = -12						; size = 4
__$ArrayPad$ = -4					; size = 4
__Requested$ = 8					; size = 4
__Old$ = 12						; size = 4
__Max$ = 16						; size = 4
?_Calculate_growth@?$basic_string@DU?$char_traits@D@std@@V?$allocator@D@2@@std@@CAIIII@Z PROC ; std::basic_string<char,std::char_traits<char>,std::allocator<char> >::_Calculate_growth, COMDAT

; 4487 :         const size_type _Requested, const size_type _Old, const size_type _Max) noexcept {

  00000	55		 push	 ebp
  00001	8b ec		 mov	 ebp, esp
  00003	81 ec dc 00 00
	00		 sub	 esp, 220		; 000000dcH
  00009	53		 push	 ebx
  0000a	56		 push	 esi
  0000b	57		 push	 edi
  0000c	8d 7d e4	 lea	 edi, DWORD PTR [ebp-28]
  0000f	b9 07 00 00 00	 mov	 ecx, 7
  00014	b8 cc cc cc cc	 mov	 eax, -858993460		; ccccccccH
  00019	f3 ab		 rep stosd
  0001b	a1 00 00 00 00	 mov	 eax, DWORD PTR ___security_cookie
  00020	33 c5		 xor	 eax, ebp
  00022	89 45 fc	 mov	 DWORD PTR __$ArrayPad$[ebp], eax
  00025	b9 00 00 00 00	 mov	 ecx, OFFSET __0D019051_xstring
  0002a	e8 00 00 00 00	 call	 @__CheckForDebuggerJustMyCode@4

; 4488 :         const size_type _Masked = _Requested | _ALLOC_MASK;

  0002f	8b 45 08	 mov	 eax, DWORD PTR __Requested$[ebp]
  00032	83 c8 0f	 or	 eax, 15			; 0000000fH
  00035	89 45 f4	 mov	 DWORD PTR __Masked$[ebp], eax

; 4489 :         if (_Masked > _Max) { // the mask overflows, settle for max_size()

  00038	8b 45 f4	 mov	 eax, DWORD PTR __Masked$[ebp]
  0003b	3b 45 10	 cmp	 eax, DWORD PTR __Max$[ebp]
  0003e	76 05		 jbe	 SHORT $LN2@Calculate_

; 4490 :             return _Max;

  00040	8b 45 10	 mov	 eax, DWORD PTR __Max$[ebp]
  00043	eb 37		 jmp	 SHORT $LN4@Calculate_
$LN2@Calculate_:

; 4491 :         }
; 4492 : 
; 4493 :         if (_Old > _Max - _Old / 2) { // similarly, geometric overflows

  00045	8b 45 0c	 mov	 eax, DWORD PTR __Old$[ebp]
  00048	d1 e8		 shr	 eax, 1
  0004a	8b 4d 10	 mov	 ecx, DWORD PTR __Max$[ebp]
  0004d	2b c8		 sub	 ecx, eax
  0004f	39 4d 0c	 cmp	 DWORD PTR __Old$[ebp], ecx
  00052	76 05		 jbe	 SHORT $LN3@Calculate_

; 4494 :             return _Max;

  00054	8b 45 10	 mov	 eax, DWORD PTR __Max$[ebp]
  00057	eb 23		 jmp	 SHORT $LN4@Calculate_
$LN3@Calculate_:

; 4495 :         }
; 4496 : 
; 4497 :         return (_STD max)(_Masked, _Old + _Old / 2);

  00059	8b 45 0c	 mov	 eax, DWORD PTR __Old$[ebp]
  0005c	d1 e8		 shr	 eax, 1
  0005e	03 45 0c	 add	 eax, DWORD PTR __Old$[ebp]
  00061	89 85 28 ff ff
	ff		 mov	 DWORD PTR $T1[ebp], eax
  00067	8d 8d 28 ff ff
	ff		 lea	 ecx, DWORD PTR $T1[ebp]
  0006d	51		 push	 ecx
  0006e	8d 55 f4	 lea	 edx, DWORD PTR __Masked$[ebp]
  00071	52		 push	 edx
  00072	e8 00 00 00 00	 call	 ??$max@I@std@@YAABIABI0@Z ; std::max<unsigned int>
  00077	83 c4 08	 add	 esp, 8
  0007a	8b 00		 mov	 eax, DWORD PTR [eax]
$LN4@Calculate_:

; 4498 :     }

  0007c	52		 push	 edx
  0007d	8b cd		 mov	 ecx, ebp
  0007f	50		 push	 eax
  00080	8d 15 00 00 00
	00		 lea	 edx, DWORD PTR $LN7@Calculate_
  00086	e8 00 00 00 00	 call	 @_RTC_CheckStackVars@8
  0008b	58		 pop	 eax
  0008c	5a		 pop	 edx
  0008d	5f		 pop	 edi
  0008e	5e		 pop	 esi
  0008f	5b		 pop	 ebx
  00090	8b 4d fc	 mov	 ecx, DWORD PTR __$ArrayPad$[ebp]
  00093	33 cd		 xor	 ecx, ebp
  00095	e8 00 00 00 00	 call	 @__security_check_cookie@4
  0009a	81 c4 dc 00 00
	00		 add	 esp, 220		; 000000dcH
  000a0	3b ec		 cmp	 ebp, esp
  000a2	e8 00 00 00 00	 call	 __RTC_CheckEsp
  000a7	8b e5		 mov	 esp, ebp
  000a9	5d		 pop	 ebp
  000aa	c3		 ret	 0
  000ab	90		 npad	 1
$LN7@Calculate_:
  000ac	01 00 00 00	 DD	 1
  000b0	00 00 00 00	 DD	 $LN6@Calculate_
$LN6@Calculate_:
  000b4	f4 ff ff ff	 DD	 -12			; fffffff4H
  000b8	04 00 00 00	 DD	 4
  000bc	00 00 00 00	 DD	 $LN5@Calculate_
$LN5@Calculate_:
  000c0	5f		 DB	 95			; 0000005fH
  000c1	4d		 DB	 77			; 0000004dH
  000c2	61		 DB	 97			; 00000061H
  000c3	73		 DB	 115			; 00000073H
  000c4	6b		 DB	 107			; 0000006bH
  000c5	65		 DB	 101			; 00000065H
  000c6	64		 DB	 100			; 00000064H
  000c7	00		 DB	 0
?_Calculate_growth@?$basic_string@DU?$char_traits@D@std@@V?$allocator@D@2@@std@@CAIIII@Z ENDP ; std::basic_string<char,std::char_traits<char>,std::allocator<char> >::_Calculate_growth
_TEXT	ENDS
; Function compile flags: /Odtp /RTCsu /ZI
; File C:\Program Files (x86)\Microsoft Visual Studio\2019\Community\VC\Tools\MSVC\14.29.30133\include\xstring
;	COMDAT ?max_size@?$basic_string@DU?$char_traits@D@std@@V?$allocator@D@2@@std@@QBEIXZ
_TEXT	SEGMENT
$T1 = -264						; size = 4
$T2 = -252						; size = 4
$T3 = -240						; size = 4
__Storage_max$ = -36					; size = 4
__Alloc_max$ = -24					; size = 4
_this$ = -12						; size = 4
__$ArrayPad$ = -4					; size = 4
?max_size@?$basic_string@DU?$char_traits@D@std@@V?$allocator@D@2@@std@@QBEIXZ PROC ; std::basic_string<char,std::char_traits<char>,std::allocator<char> >::max_size, COMDAT
; _this$ = ecx

; 3943 :     _NODISCARD _CONSTEXPR20_CONTAINER size_type max_size() const noexcept {

  00000	55		 push	 ebp
  00001	8b ec		 mov	 ebp, esp
  00003	81 ec 0c 01 00
	00		 sub	 esp, 268		; 0000010cH
  00009	53		 push	 ebx
  0000a	56		 push	 esi
  0000b	57		 push	 edi
  0000c	51		 push	 ecx
  0000d	8d 7d b4	 lea	 edi, DWORD PTR [ebp-76]
  00010	b9 13 00 00 00	 mov	 ecx, 19			; 00000013H
  00015	b8 cc cc cc cc	 mov	 eax, -858993460		; ccccccccH
  0001a	f3 ab		 rep stosd
  0001c	59		 pop	 ecx
  0001d	a1 00 00 00 00	 mov	 eax, DWORD PTR ___security_cookie
  00022	33 c5		 xor	 eax, ebp
  00024	89 45 fc	 mov	 DWORD PTR __$ArrayPad$[ebp], eax
  00027	89 4d f4	 mov	 DWORD PTR _this$[ebp], ecx
  0002a	b9 00 00 00 00	 mov	 ecx, OFFSET __0D019051_xstring
  0002f	e8 00 00 00 00	 call	 @__CheckForDebuggerJustMyCode@4

; 3944 :         const size_type _Alloc_max   = _Alty_traits::max_size(_Getal());

  00034	8b 4d f4	 mov	 ecx, DWORD PTR _this$[ebp]
  00037	e8 00 00 00 00	 call	 ?_Getal@?$basic_string@DU?$char_traits@D@std@@V?$allocator@D@2@@std@@ABEABV?$allocator@D@2@XZ ; std::basic_string<char,std::char_traits<char>,std::allocator<char> >::_Getal
  0003c	50		 push	 eax
  0003d	e8 00 00 00 00	 call	 ?max_size@?$_Default_allocator_traits@V?$allocator@D@std@@@std@@SAIABV?$allocator@D@2@@Z ; std::_Default_allocator_traits<std::allocator<char> >::max_size
  00042	83 c4 04	 add	 esp, 4
  00045	89 45 e8	 mov	 DWORD PTR __Alloc_max$[ebp], eax

; 3945 :         const size_type _Storage_max = // can always store small string

  00048	c7 85 10 ff ff
	ff 10 00 00 00	 mov	 DWORD PTR $T3[ebp], 16	; 00000010H
  00052	8d 85 10 ff ff
	ff		 lea	 eax, DWORD PTR $T3[ebp]
  00058	50		 push	 eax
  00059	8d 4d e8	 lea	 ecx, DWORD PTR __Alloc_max$[ebp]
  0005c	51		 push	 ecx
  0005d	e8 00 00 00 00	 call	 ??$max@I@std@@YAABIABI0@Z ; std::max<unsigned int>
  00062	83 c4 08	 add	 esp, 8
  00065	8b 10		 mov	 edx, DWORD PTR [eax]
  00067	89 55 dc	 mov	 DWORD PTR __Storage_max$[ebp], edx

; 3946 :             (_STD max)(_Alloc_max, static_cast<size_type>(_BUF_SIZE));
; 3947 :         return (_STD min)(static_cast<size_type>((numeric_limits<difference_type>::max)()),

  0006a	8b 45 dc	 mov	 eax, DWORD PTR __Storage_max$[ebp]
  0006d	83 e8 01	 sub	 eax, 1
  00070	89 85 04 ff ff
	ff		 mov	 DWORD PTR $T2[ebp], eax
  00076	e8 00 00 00 00	 call	 ?max@?$numeric_limits@H@std@@SAHXZ ; std::numeric_limits<int>::max
  0007b	89 85 f8 fe ff
	ff		 mov	 DWORD PTR $T1[ebp], eax
  00081	8d 8d 04 ff ff
	ff		 lea	 ecx, DWORD PTR $T2[ebp]
  00087	51		 push	 ecx
  00088	8d 95 f8 fe ff
	ff		 lea	 edx, DWORD PTR $T1[ebp]
  0008e	52		 push	 edx
  0008f	e8 00 00 00 00	 call	 ??$min@I@std@@YAABIABI0@Z ; std::min<unsigned int>
  00094	83 c4 08	 add	 esp, 8
  00097	8b 00		 mov	 eax, DWORD PTR [eax]

; 3948 :             _Storage_max - 1 // -1 is for null terminator and/or npos
; 3949 :         );
; 3950 :     }

  00099	52		 push	 edx
  0009a	8b cd		 mov	 ecx, ebp
  0009c	50		 push	 eax
  0009d	8d 15 00 00 00
	00		 lea	 edx, DWORD PTR $LN5@max_size
  000a3	e8 00 00 00 00	 call	 @_RTC_CheckStackVars@8
  000a8	58		 pop	 eax
  000a9	5a		 pop	 edx
  000aa	5f		 pop	 edi
  000ab	5e		 pop	 esi
  000ac	5b		 pop	 ebx
  000ad	8b 4d fc	 mov	 ecx, DWORD PTR __$ArrayPad$[ebp]
  000b0	33 cd		 xor	 ecx, ebp
  000b2	e8 00 00 00 00	 call	 @__security_check_cookie@4
  000b7	81 c4 0c 01 00
	00		 add	 esp, 268		; 0000010cH
  000bd	3b ec		 cmp	 ebp, esp
  000bf	e8 00 00 00 00	 call	 __RTC_CheckEsp
  000c4	8b e5		 mov	 esp, ebp
  000c6	5d		 pop	 ebp
  000c7	c3		 ret	 0
$LN5@max_size:
  000c8	01 00 00 00	 DD	 1
  000cc	00 00 00 00	 DD	 $LN4@max_size
$LN4@max_size:
  000d0	e8 ff ff ff	 DD	 -24			; ffffffe8H
  000d4	04 00 00 00	 DD	 4
  000d8	00 00 00 00	 DD	 $LN3@max_size
$LN3@max_size:
  000dc	5f		 DB	 95			; 0000005fH
  000dd	41		 DB	 65			; 00000041H
  000de	6c		 DB	 108			; 0000006cH
  000df	6c		 DB	 108			; 0000006cH
  000e0	6f		 DB	 111			; 0000006fH
  000e1	63		 DB	 99			; 00000063H
  000e2	5f		 DB	 95			; 0000005fH
  000e3	6d		 DB	 109			; 0000006dH
  000e4	61		 DB	 97			; 00000061H
  000e5	78		 DB	 120			; 00000078H
  000e6	00		 DB	 0
?max_size@?$basic_string@DU?$char_traits@D@std@@V?$allocator@D@2@@std@@QBEIXZ ENDP ; std::basic_string<char,std::char_traits<char>,std::allocator<char> >::max_size
_TEXT	ENDS
; Function compile flags: /Odtp /RTCsu /ZI
; File C:\Program Files (x86)\Microsoft Visual Studio\2019\Community\VC\Tools\MSVC\14.29.30133\include\xstring
;	COMDAT ?c_str@?$basic_string@DU?$char_traits@D@std@@V?$allocator@D@2@@std@@QBEPBDXZ
_TEXT	SEGMENT
_this$ = -8						; size = 4
?c_str@?$basic_string@DU?$char_traits@D@std@@V?$allocator@D@2@@std@@QBEPBDXZ PROC ; std::basic_string<char,std::char_traits<char>,std::allocator<char> >::c_str, COMDAT
; _this$ = ecx

; 3921 :     _NODISCARD _CONSTEXPR20_CONTAINER _Ret_z_ const _Elem* c_str() const noexcept {

  00000	55		 push	 ebp
  00001	8b ec		 mov	 ebp, esp
  00003	81 ec cc 00 00
	00		 sub	 esp, 204		; 000000ccH
  00009	53		 push	 ebx
  0000a	56		 push	 esi
  0000b	57		 push	 edi
  0000c	51		 push	 ecx
  0000d	8d 7d f4	 lea	 edi, DWORD PTR [ebp-12]
  00010	b9 03 00 00 00	 mov	 ecx, 3
  00015	b8 cc cc cc cc	 mov	 eax, -858993460		; ccccccccH
  0001a	f3 ab		 rep stosd
  0001c	59		 pop	 ecx
  0001d	89 4d f8	 mov	 DWORD PTR _this$[ebp], ecx
  00020	b9 00 00 00 00	 mov	 ecx, OFFSET __0D019051_xstring
  00025	e8 00 00 00 00	 call	 @__CheckForDebuggerJustMyCode@4

; 3922 :         return _Mypair._Myval2._Myptr();

  0002a	8b 4d f8	 mov	 ecx, DWORD PTR _this$[ebp]
  0002d	e8 00 00 00 00	 call	 ?_Myptr@?$_String_val@U?$_Simple_types@D@std@@@std@@QBEPBDXZ ; std::_String_val<std::_Simple_types<char> >::_Myptr

; 3923 :     }

  00032	5f		 pop	 edi
  00033	5e		 pop	 esi
  00034	5b		 pop	 ebx
  00035	81 c4 cc 00 00
	00		 add	 esp, 204		; 000000ccH
  0003b	3b ec		 cmp	 ebp, esp
  0003d	e8 00 00 00 00	 call	 __RTC_CheckEsp
  00042	8b e5		 mov	 esp, ebp
  00044	5d		 pop	 ebp
  00045	c3		 ret	 0
?c_str@?$basic_string@DU?$char_traits@D@std@@V?$allocator@D@2@@std@@QBEPBDXZ ENDP ; std::basic_string<char,std::char_traits<char>,std::allocator<char> >::c_str
_TEXT	ENDS
; Function compile flags: /Odtp /RTCsu /ZI
; File C:\Program Files (x86)\Microsoft Visual Studio\2019\Community\VC\Tools\MSVC\14.29.30133\include\xstring
;	COMDAT ?assign@?$basic_string@DU?$char_traits@D@std@@V?$allocator@D@2@@std@@QAEAAV12@QBD@Z
_TEXT	SEGMENT
_this$ = -8						; size = 4
__Ptr$ = 8						; size = 4
?assign@?$basic_string@DU?$char_traits@D@std@@V?$allocator@D@2@@std@@QAEAAV12@QBD@Z PROC ; std::basic_string<char,std::char_traits<char>,std::allocator<char> >::assign, COMDAT
; _this$ = ecx

; 3263 :     _CONSTEXPR20_CONTAINER basic_string& assign(_In_z_ const _Elem* const _Ptr) {

  00000	55		 push	 ebp
  00001	8b ec		 mov	 ebp, esp
  00003	81 ec cc 00 00
	00		 sub	 esp, 204		; 000000ccH
  00009	53		 push	 ebx
  0000a	56		 push	 esi
  0000b	57		 push	 edi
  0000c	51		 push	 ecx
  0000d	8d 7d f4	 lea	 edi, DWORD PTR [ebp-12]
  00010	b9 03 00 00 00	 mov	 ecx, 3
  00015	b8 cc cc cc cc	 mov	 eax, -858993460		; ccccccccH
  0001a	f3 ab		 rep stosd
  0001c	59		 pop	 ecx
  0001d	89 4d f8	 mov	 DWORD PTR _this$[ebp], ecx
  00020	b9 00 00 00 00	 mov	 ecx, OFFSET __0D019051_xstring
  00025	e8 00 00 00 00	 call	 @__CheckForDebuggerJustMyCode@4

; 3264 :         return assign(_Ptr, _Convert_size<size_type>(_Traits::length(_Ptr)));

  0002a	8b 45 08	 mov	 eax, DWORD PTR __Ptr$[ebp]
  0002d	50		 push	 eax
  0002e	e8 00 00 00 00	 call	 ?length@?$_Narrow_char_traits@DH@std@@SAIQBD@Z ; std::_Narrow_char_traits<char,int>::length
  00033	83 c4 04	 add	 esp, 4
  00036	50		 push	 eax
  00037	e8 00 00 00 00	 call	 ??$_Convert_size@I@std@@YAII@Z ; std::_Convert_size<unsigned int>
  0003c	83 c4 04	 add	 esp, 4
  0003f	50		 push	 eax
  00040	8b 4d 08	 mov	 ecx, DWORD PTR __Ptr$[ebp]
  00043	51		 push	 ecx
  00044	8b 4d f8	 mov	 ecx, DWORD PTR _this$[ebp]
  00047	e8 00 00 00 00	 call	 ?assign@?$basic_string@DU?$char_traits@D@std@@V?$allocator@D@2@@std@@QAEAAV12@QBDI@Z ; std::basic_string<char,std::char_traits<char>,std::allocator<char> >::assign

; 3265 :     }

  0004c	5f		 pop	 edi
  0004d	5e		 pop	 esi
  0004e	5b		 pop	 ebx
  0004f	81 c4 cc 00 00
	00		 add	 esp, 204		; 000000ccH
  00055	3b ec		 cmp	 ebp, esp
  00057	e8 00 00 00 00	 call	 __RTC_CheckEsp
  0005c	8b e5		 mov	 esp, ebp
  0005e	5d		 pop	 ebp
  0005f	c2 04 00	 ret	 4
?assign@?$basic_string@DU?$char_traits@D@std@@V?$allocator@D@2@@std@@QAEAAV12@QBD@Z ENDP ; std::basic_string<char,std::char_traits<char>,std::allocator<char> >::assign
_TEXT	ENDS
; Function compile flags: /Odtp /RTCsu /ZI
; File C:\Program Files (x86)\Microsoft Visual Studio\2019\Community\VC\Tools\MSVC\14.29.30133\include\xstring
;	COMDAT ?assign@?$basic_string@DU?$char_traits@D@std@@V?$allocator@D@2@@std@@QAEAAV12@QBDI@Z
_TEXT	SEGMENT
$T1 = -233						; size = 1
$T2 = -221						; size = 1
__Old_ptr$3 = -20					; size = 4
_this$ = -8						; size = 4
__Ptr$ = 8						; size = 4
__Count$ = 12						; size = 4
?assign@?$basic_string@DU?$char_traits@D@std@@V?$allocator@D@2@@std@@QAEAAV12@QBDI@Z PROC ; std::basic_string<char,std::char_traits<char>,std::allocator<char> >::assign, COMDAT
; _this$ = ecx

; 3244 :         _In_reads_(_Count) const _Elem* const _Ptr, _CRT_GUARDOVERFLOW const size_type _Count) {

  00000	55		 push	 ebp
  00001	8b ec		 mov	 ebp, esp
  00003	81 ec f0 00 00
	00		 sub	 esp, 240		; 000000f0H
  00009	53		 push	 ebx
  0000a	56		 push	 esi
  0000b	57		 push	 edi
  0000c	51		 push	 ecx
  0000d	8d 7d d0	 lea	 edi, DWORD PTR [ebp-48]
  00010	b9 0c 00 00 00	 mov	 ecx, 12			; 0000000cH
  00015	b8 cc cc cc cc	 mov	 eax, -858993460		; ccccccccH
  0001a	f3 ab		 rep stosd
  0001c	59		 pop	 ecx
  0001d	89 4d f8	 mov	 DWORD PTR _this$[ebp], ecx
  00020	b9 00 00 00 00	 mov	 ecx, OFFSET __0D019051_xstring
  00025	e8 00 00 00 00	 call	 @__CheckForDebuggerJustMyCode@4

; 3245 :         // assign [_Ptr, _Ptr + _Count)
; 3246 :         if (_Count <= _Mypair._Myval2._Myres) {

  0002a	8b 45 f8	 mov	 eax, DWORD PTR _this$[ebp]
  0002d	8b 4d 0c	 mov	 ecx, DWORD PTR __Count$[ebp]
  00030	3b 48 18	 cmp	 ecx, DWORD PTR [eax+24]
  00033	77 4a		 ja	 SHORT $LN2@assign

; 3247 :             _Elem* const _Old_ptr   = _Mypair._Myval2._Myptr();

  00035	8b 4d f8	 mov	 ecx, DWORD PTR _this$[ebp]
  00038	e8 00 00 00 00	 call	 ?_Myptr@?$_String_val@U?$_Simple_types@D@std@@@std@@QAEPADXZ ; std::_String_val<std::_Simple_types<char> >::_Myptr
  0003d	89 45 ec	 mov	 DWORD PTR __Old_ptr$3[ebp], eax

; 3248 :             _Mypair._Myval2._Mysize = _Count;

  00040	8b 45 f8	 mov	 eax, DWORD PTR _this$[ebp]
  00043	8b 4d 0c	 mov	 ecx, DWORD PTR __Count$[ebp]
  00046	89 48 14	 mov	 DWORD PTR [eax+20], ecx

; 3249 :             _Traits::move(_Old_ptr, _Ptr, _Count);

  00049	8b 45 0c	 mov	 eax, DWORD PTR __Count$[ebp]
  0004c	50		 push	 eax
  0004d	8b 4d 08	 mov	 ecx, DWORD PTR __Ptr$[ebp]
  00050	51		 push	 ecx
  00051	8b 55 ec	 mov	 edx, DWORD PTR __Old_ptr$3[ebp]
  00054	52		 push	 edx
  00055	e8 00 00 00 00	 call	 ?move@?$_Char_traits@DH@std@@SAPADQADQBDI@Z ; std::_Char_traits<char,int>::move
  0005a	83 c4 0c	 add	 esp, 12			; 0000000cH

; 3250 :             _Traits::assign(_Old_ptr[_Count], _Elem());

  0005d	c6 85 23 ff ff
	ff 00		 mov	 BYTE PTR $T2[ebp], 0
  00064	8d 85 23 ff ff
	ff		 lea	 eax, DWORD PTR $T2[ebp]
  0006a	50		 push	 eax
  0006b	8b 4d ec	 mov	 ecx, DWORD PTR __Old_ptr$3[ebp]
  0006e	03 4d 0c	 add	 ecx, DWORD PTR __Count$[ebp]
  00071	51		 push	 ecx
  00072	e8 00 00 00 00	 call	 ?assign@?$_Narrow_char_traits@DH@std@@SAXAADABD@Z ; std::_Narrow_char_traits<char,int>::assign
  00077	83 c4 08	 add	 esp, 8

; 3251 :             return *this;

  0007a	8b 45 f8	 mov	 eax, DWORD PTR _this$[ebp]
  0007d	eb 20		 jmp	 SHORT $LN1@assign
$LN2@assign:

; 3252 :         }
; 3253 : 
; 3254 :         return _Reallocate_for(

  0007f	33 c0		 xor	 eax, eax
  00081	88 85 17 ff ff
	ff		 mov	 BYTE PTR $T1[ebp], al
  00087	8b 4d 08	 mov	 ecx, DWORD PTR __Ptr$[ebp]
  0008a	51		 push	 ecx
  0008b	0f b6 95 17 ff
	ff ff		 movzx	 edx, BYTE PTR $T1[ebp]
  00092	52		 push	 edx
  00093	8b 45 0c	 mov	 eax, DWORD PTR __Count$[ebp]
  00096	50		 push	 eax
  00097	8b 4d f8	 mov	 ecx, DWORD PTR _this$[ebp]
  0009a	e8 00 00 00 00	 call	 ??$_Reallocate_for@V<lambda_9366063389c5f42a00a5088cf24e69de>@@PBD@?$basic_string@DU?$char_traits@D@std@@V?$allocator@D@2@@std@@AAEAAV01@IV<lambda_9366063389c5f42a00a5088cf24e69de>@@PBD@Z ; std::basic_string<char,std::char_traits<char>,std::allocator<char> >::_Reallocate_for<<lambda_9366063389c5f42a00a5088cf24e69de>,char const *>
$LN1@assign:

; 3255 :             _Count,
; 3256 :             [](_Elem* const _New_ptr, const size_type _Count, const _Elem* const _Ptr) {
; 3257 :                 _Traits::copy(_New_ptr, _Ptr, _Count);
; 3258 :                 _Traits::assign(_New_ptr[_Count], _Elem());
; 3259 :             },
; 3260 :             _Ptr);
; 3261 :     }

  0009f	5f		 pop	 edi
  000a0	5e		 pop	 esi
  000a1	5b		 pop	 ebx
  000a2	81 c4 f0 00 00
	00		 add	 esp, 240		; 000000f0H
  000a8	3b ec		 cmp	 ebp, esp
  000aa	e8 00 00 00 00	 call	 __RTC_CheckEsp
  000af	8b e5		 mov	 esp, ebp
  000b1	5d		 pop	 ebp
  000b2	c2 08 00	 ret	 8
?assign@?$basic_string@DU?$char_traits@D@std@@V?$allocator@D@2@@std@@QAEAAV12@QBDI@Z ENDP ; std::basic_string<char,std::char_traits<char>,std::allocator<char> >::assign
_TEXT	ENDS
; Function compile flags: /Odtp /RTCsu /ZI
; File C:\Program Files (x86)\Microsoft Visual Studio\2019\Community\VC\Tools\MSVC\14.29.30133\include\xstring
;	COMDAT ??1?$basic_string@DU?$char_traits@D@std@@V?$allocator@D@2@@std@@QAE@XZ
_TEXT	SEGMENT
__To_delete$ = -48					; size = 4
_$S8$ = -33						; size = 1
__Alproxy$ = -24					; size = 4
_this$ = -12						; size = 4
__$ArrayPad$ = -4					; size = 4
??1?$basic_string@DU?$char_traits@D@std@@V?$allocator@D@2@@std@@QAE@XZ PROC ; std::basic_string<char,std::char_traits<char>,std::allocator<char> >::~basic_string<char,std::char_traits<char>,std::allocator<char> >, COMDAT
; _this$ = ecx

; 3002 :     _CONSTEXPR20_CONTAINER ~basic_string() noexcept {

  00000	55		 push	 ebp
  00001	8b ec		 mov	 ebp, esp
  00003	81 ec f4 00 00
	00		 sub	 esp, 244		; 000000f4H
  00009	53		 push	 ebx
  0000a	56		 push	 esi
  0000b	57		 push	 edi
  0000c	51		 push	 ecx
  0000d	8d 7d cc	 lea	 edi, DWORD PTR [ebp-52]
  00010	b9 0d 00 00 00	 mov	 ecx, 13			; 0000000dH
  00015	b8 cc cc cc cc	 mov	 eax, -858993460		; ccccccccH
  0001a	f3 ab		 rep stosd
  0001c	59		 pop	 ecx
  0001d	a1 00 00 00 00	 mov	 eax, DWORD PTR ___security_cookie
  00022	33 c5		 xor	 eax, ebp
  00024	89 45 fc	 mov	 DWORD PTR __$ArrayPad$[ebp], eax
  00027	89 4d f4	 mov	 DWORD PTR _this$[ebp], ecx
  0002a	b9 00 00 00 00	 mov	 ecx, OFFSET __0D019051_xstring
  0002f	e8 00 00 00 00	 call	 @__CheckForDebuggerJustMyCode@4

; 3003 :         _Tidy_deallocate();

  00034	8b 4d f4	 mov	 ecx, DWORD PTR _this$[ebp]
  00037	e8 00 00 00 00	 call	 ?_Tidy_deallocate@?$basic_string@DU?$char_traits@D@std@@V?$allocator@D@2@@std@@AAEXXZ ; std::basic_string<char,std::char_traits<char>,std::allocator<char> >::_Tidy_deallocate

; 3004 : #if _ITERATOR_DEBUG_LEVEL != 0
; 3005 :         auto&& _Alproxy          = _GET_PROXY_ALLOCATOR(_Alty, _Getal());

  0003c	8b 4d f4	 mov	 ecx, DWORD PTR _this$[ebp]
  0003f	e8 00 00 00 00	 call	 ?_Getal@?$basic_string@DU?$char_traits@D@std@@V?$allocator@D@2@@std@@AAEAAV?$allocator@D@2@XZ ; std::basic_string<char,std::char_traits<char>,std::allocator<char> >::_Getal
  00044	50		 push	 eax
  00045	8d 4d df	 lea	 ecx, DWORD PTR _$S8$[ebp]
  00048	e8 00 00 00 00	 call	 ??$?0D@?$allocator@U_Container_proxy@std@@@std@@QAE@ABV?$allocator@D@1@@Z ; std::allocator<std::_Container_proxy>::allocator<std::_Container_proxy><char>
  0004d	8d 45 df	 lea	 eax, DWORD PTR _$S8$[ebp]
  00050	89 45 e8	 mov	 DWORD PTR __Alproxy$[ebp], eax

; 3006 :         const auto _To_delete    = _Mypair._Myval2._Myproxy;

  00053	8b 45 f4	 mov	 eax, DWORD PTR _this$[ebp]
  00056	8b 08		 mov	 ecx, DWORD PTR [eax]
  00058	89 4d d0	 mov	 DWORD PTR __To_delete$[ebp], ecx

; 3007 :         _Mypair._Myval2._Myproxy = nullptr;

  0005b	8b 45 f4	 mov	 eax, DWORD PTR _this$[ebp]
  0005e	c7 00 00 00 00
	00		 mov	 DWORD PTR [eax], 0

; 3008 :         _Delete_plain_internal(_Alproxy, _To_delete);

  00064	8b 45 d0	 mov	 eax, DWORD PTR __To_delete$[ebp]
  00067	50		 push	 eax
  00068	8b 4d e8	 mov	 ecx, DWORD PTR __Alproxy$[ebp]
  0006b	51		 push	 ecx
  0006c	e8 00 00 00 00	 call	 ??$_Delete_plain_internal@V?$allocator@U_Container_proxy@std@@@std@@@std@@YAXAAV?$allocator@U_Container_proxy@std@@@0@QAU_Container_proxy@0@@Z ; std::_Delete_plain_internal<std::allocator<std::_Container_proxy> >
  00071	83 c4 08	 add	 esp, 8

; 3009 : #endif // _ITERATOR_DEBUG_LEVEL != 0
; 3010 :     }

  00074	8b 4d f4	 mov	 ecx, DWORD PTR _this$[ebp]
  00077	e8 00 00 00 00	 call	 ??1?$_Compressed_pair@V?$allocator@D@std@@V?$_String_val@U?$_Simple_types@D@std@@@2@$00@std@@QAE@XZ
  0007c	52		 push	 edx
  0007d	8b cd		 mov	 ecx, ebp
  0007f	50		 push	 eax
  00080	8d 15 00 00 00
	00		 lea	 edx, DWORD PTR $LN5@basic_stri
  00086	e8 00 00 00 00	 call	 @_RTC_CheckStackVars@8
  0008b	58		 pop	 eax
  0008c	5a		 pop	 edx
  0008d	5f		 pop	 edi
  0008e	5e		 pop	 esi
  0008f	5b		 pop	 ebx
  00090	8b 4d fc	 mov	 ecx, DWORD PTR __$ArrayPad$[ebp]
  00093	33 cd		 xor	 ecx, ebp
  00095	e8 00 00 00 00	 call	 @__security_check_cookie@4
  0009a	81 c4 f4 00 00
	00		 add	 esp, 244		; 000000f4H
  000a0	3b ec		 cmp	 ebp, esp
  000a2	e8 00 00 00 00	 call	 __RTC_CheckEsp
  000a7	8b e5		 mov	 esp, ebp
  000a9	5d		 pop	 ebp
  000aa	c3		 ret	 0
  000ab	90		 npad	 1
$LN5@basic_stri:
  000ac	01 00 00 00	 DD	 1
  000b0	00 00 00 00	 DD	 $LN4@basic_stri
$LN4@basic_stri:
  000b4	df ff ff ff	 DD	 -33			; ffffffdfH
  000b8	01 00 00 00	 DD	 1
  000bc	00 00 00 00	 DD	 $LN3@basic_stri
$LN3@basic_stri:
  000c0	24		 DB	 36			; 00000024H
  000c1	53		 DB	 83			; 00000053H
  000c2	38		 DB	 56			; 00000038H
  000c3	00		 DB	 0
??1?$basic_string@DU?$char_traits@D@std@@V?$allocator@D@2@@std@@QAE@XZ ENDP ; std::basic_string<char,std::char_traits<char>,std::allocator<char> >::~basic_string<char,std::char_traits<char>,std::allocator<char> >
_TEXT	ENDS
; Function compile flags: /Odtp /RTCsu /ZI
; File C:\Program Files (x86)\Microsoft Visual Studio\2019\Community\VC\Tools\MSVC\14.29.30133\include\xstring
;	COMDAT ??0?$basic_string@DU?$char_traits@D@std@@V?$allocator@D@2@@std@@QAE@QBD@Z
_TEXT	SEGMENT
$T2 = -265						; size = 1
__Proxy$ = -64						; size = 8
_$S10$ = -45						; size = 1
__Alproxy$ = -36					; size = 4
_this$ = -24						; size = 4
__$ArrayPad$ = -16					; size = 4
__$EHRec$ = -12						; size = 12
__Ptr$ = 8						; size = 4
??0?$basic_string@DU?$char_traits@D@std@@V?$allocator@D@2@@std@@QAE@QBD@Z PROC ; std::basic_string<char,std::char_traits<char>,std::allocator<char> >::basic_string<char,std::char_traits<char>,std::allocator<char> >, COMDAT
; _this$ = ecx

; 2517 :     _CONSTEXPR20_CONTAINER basic_string(_In_z_ const _Elem* const _Ptr) : _Mypair(_Zero_then_variadic_args_t{}) {

  00000	55		 push	 ebp
  00001	8b ec		 mov	 ebp, esp
  00003	6a ff		 push	 -1
  00005	68 00 00 00 00	 push	 __ehhandler$??0?$basic_string@DU?$char_traits@D@std@@V?$allocator@D@2@@std@@QAE@QBD@Z
  0000a	64 a1 00 00 00
	00		 mov	 eax, DWORD PTR fs:0
  00010	50		 push	 eax
  00011	81 ec 04 01 00
	00		 sub	 esp, 260		; 00000104H
  00017	53		 push	 ebx
  00018	56		 push	 esi
  00019	57		 push	 edi
  0001a	51		 push	 ecx
  0001b	8d 7d b0	 lea	 edi, DWORD PTR [ebp-80]
  0001e	b9 11 00 00 00	 mov	 ecx, 17			; 00000011H
  00023	b8 cc cc cc cc	 mov	 eax, -858993460		; ccccccccH
  00028	f3 ab		 rep stosd
  0002a	59		 pop	 ecx
  0002b	a1 00 00 00 00	 mov	 eax, DWORD PTR ___security_cookie
  00030	33 c5		 xor	 eax, ebp
  00032	89 45 f0	 mov	 DWORD PTR __$ArrayPad$[ebp], eax
  00035	50		 push	 eax
  00036	8d 45 f4	 lea	 eax, DWORD PTR __$EHRec$[ebp]
  00039	64 a3 00 00 00
	00		 mov	 DWORD PTR fs:0, eax
  0003f	89 4d e8	 mov	 DWORD PTR _this$[ebp], ecx
  00042	b9 00 00 00 00	 mov	 ecx, OFFSET __0D019051_xstring
  00047	e8 00 00 00 00	 call	 @__CheckForDebuggerJustMyCode@4
  0004c	0f b6 85 f7 fe
	ff ff		 movzx	 eax, BYTE PTR $T2[ebp]
  00053	50		 push	 eax
  00054	8b 4d e8	 mov	 ecx, DWORD PTR _this$[ebp]
  00057	e8 00 00 00 00	 call	 ??$?0$$V@?$_Compressed_pair@V?$allocator@D@std@@V?$_String_val@U?$_Simple_types@D@std@@@2@$00@std@@QAE@U_Zero_then_variadic_args_t@1@@Z ; std::_Compressed_pair<std::allocator<char>,std::_String_val<std::_Simple_types<char> >,1>::_Compressed_pair<std::allocator<char>,std::_String_val<std::_Simple_types<char> >,1><>
  0005c	c7 45 fc 00 00
	00 00		 mov	 DWORD PTR __$EHRec$[ebp+8], 0

; 2518 :         auto&& _Alproxy = _GET_PROXY_ALLOCATOR(_Alty, _Getal());

  00063	8b 4d e8	 mov	 ecx, DWORD PTR _this$[ebp]
  00066	e8 00 00 00 00	 call	 ?_Getal@?$basic_string@DU?$char_traits@D@std@@V?$allocator@D@2@@std@@AAEAAV?$allocator@D@2@XZ ; std::basic_string<char,std::char_traits<char>,std::allocator<char> >::_Getal
  0006b	50		 push	 eax
  0006c	8d 4d d3	 lea	 ecx, DWORD PTR _$S10$[ebp]
  0006f	e8 00 00 00 00	 call	 ??$?0D@?$allocator@U_Container_proxy@std@@@std@@QAE@ABV?$allocator@D@1@@Z ; std::allocator<std::_Container_proxy>::allocator<std::_Container_proxy><char>
  00074	8d 45 d3	 lea	 eax, DWORD PTR _$S10$[ebp]
  00077	89 45 dc	 mov	 DWORD PTR __Alproxy$[ebp], eax

; 2519 :         _Container_proxy_ptr<_Alty> _Proxy(_Alproxy, _Mypair._Myval2);

  0007a	8b 45 e8	 mov	 eax, DWORD PTR _this$[ebp]
  0007d	50		 push	 eax
  0007e	8b 4d dc	 mov	 ecx, DWORD PTR __Alproxy$[ebp]
  00081	51		 push	 ecx
  00082	8d 4d c0	 lea	 ecx, DWORD PTR __Proxy$[ebp]
  00085	e8 00 00 00 00	 call	 ??0?$_Container_proxy_ptr12@V?$allocator@U_Container_proxy@std@@@std@@@std@@QAE@AAV?$allocator@U_Container_proxy@std@@@1@AAU_Container_base12@1@@Z ; std::_Container_proxy_ptr12<std::allocator<std::_Container_proxy> >::_Container_proxy_ptr12<std::allocator<std::_Container_proxy> >
  0008a	c6 45 fc 01	 mov	 BYTE PTR __$EHRec$[ebp+8], 1

; 2520 :         _Tidy_init();

  0008e	8b 4d e8	 mov	 ecx, DWORD PTR _this$[ebp]
  00091	e8 00 00 00 00	 call	 ?_Tidy_init@?$basic_string@DU?$char_traits@D@std@@V?$allocator@D@2@@std@@AAEXXZ ; std::basic_string<char,std::char_traits<char>,std::allocator<char> >::_Tidy_init

; 2521 :         assign(_Ptr);

  00096	8b 45 08	 mov	 eax, DWORD PTR __Ptr$[ebp]
  00099	50		 push	 eax
  0009a	8b 4d e8	 mov	 ecx, DWORD PTR _this$[ebp]
  0009d	e8 00 00 00 00	 call	 ?assign@?$basic_string@DU?$char_traits@D@std@@V?$allocator@D@2@@std@@QAEAAV12@QBD@Z ; std::basic_string<char,std::char_traits<char>,std::allocator<char> >::assign

; 2522 :         _Proxy._Release();

  000a2	8d 4d c0	 lea	 ecx, DWORD PTR __Proxy$[ebp]
  000a5	e8 00 00 00 00	 call	 ?_Release@_Basic_container_proxy_ptr12@std@@QAEXXZ ; std::_Basic_container_proxy_ptr12::_Release

; 2523 :     }

  000aa	c6 45 fc 00	 mov	 BYTE PTR __$EHRec$[ebp+8], 0
  000ae	8d 4d c0	 lea	 ecx, DWORD PTR __Proxy$[ebp]
  000b1	e8 00 00 00 00	 call	 ??1?$_Container_proxy_ptr12@V?$allocator@U_Container_proxy@std@@@std@@@std@@QAE@XZ ; std::_Container_proxy_ptr12<std::allocator<std::_Container_proxy> >::~_Container_proxy_ptr12<std::allocator<std::_Container_proxy> >
  000b6	c7 45 fc ff ff
	ff ff		 mov	 DWORD PTR __$EHRec$[ebp+8], -1
  000bd	8b 45 e8	 mov	 eax, DWORD PTR _this$[ebp]
  000c0	52		 push	 edx
  000c1	8b cd		 mov	 ecx, ebp
  000c3	50		 push	 eax
  000c4	8d 15 00 00 00
	00		 lea	 edx, DWORD PTR $LN9@basic_stri
  000ca	e8 00 00 00 00	 call	 @_RTC_CheckStackVars@8
  000cf	58		 pop	 eax
  000d0	5a		 pop	 edx
  000d1	8b 4d f4	 mov	 ecx, DWORD PTR __$EHRec$[ebp]
  000d4	64 89 0d 00 00
	00 00		 mov	 DWORD PTR fs:0, ecx
  000db	59		 pop	 ecx
  000dc	5f		 pop	 edi
  000dd	5e		 pop	 esi
  000de	5b		 pop	 ebx
  000df	8b 4d f0	 mov	 ecx, DWORD PTR __$ArrayPad$[ebp]
  000e2	33 cd		 xor	 ecx, ebp
  000e4	e8 00 00 00 00	 call	 @__security_check_cookie@4
  000e9	81 c4 10 01 00
	00		 add	 esp, 272		; 00000110H
  000ef	3b ec		 cmp	 ebp, esp
  000f1	e8 00 00 00 00	 call	 __RTC_CheckEsp
  000f6	8b e5		 mov	 esp, ebp
  000f8	5d		 pop	 ebp
  000f9	c2 04 00	 ret	 4
$LN9@basic_stri:
  000fc	02 00 00 00	 DD	 2
  00100	00 00 00 00	 DD	 $LN8@basic_stri
$LN8@basic_stri:
  00104	d3 ff ff ff	 DD	 -45			; ffffffd3H
  00108	01 00 00 00	 DD	 1
  0010c	00 00 00 00	 DD	 $LN5@basic_stri
  00110	c0 ff ff ff	 DD	 -64			; ffffffc0H
  00114	08 00 00 00	 DD	 8
  00118	00 00 00 00	 DD	 $LN6@basic_stri
$LN6@basic_stri:
  0011c	5f		 DB	 95			; 0000005fH
  0011d	50		 DB	 80			; 00000050H
  0011e	72		 DB	 114			; 00000072H
  0011f	6f		 DB	 111			; 0000006fH
  00120	78		 DB	 120			; 00000078H
  00121	79		 DB	 121			; 00000079H
  00122	00		 DB	 0
$LN5@basic_stri:
  00123	24		 DB	 36			; 00000024H
  00124	53		 DB	 83			; 00000053H
  00125	31		 DB	 49			; 00000031H
  00126	30		 DB	 48			; 00000030H
  00127	00		 DB	 0
_TEXT	ENDS
;	COMDAT text$x
text$x	SEGMENT
__unwindfunclet$??0?$basic_string@DU?$char_traits@D@std@@V?$allocator@D@2@@std@@QAE@QBD@Z$0:
  00000	8b 4d e8	 mov	 ecx, DWORD PTR _this$[ebp]
  00003	e9 00 00 00 00	 jmp	 ??1?$_Compressed_pair@V?$allocator@D@std@@V?$_String_val@U?$_Simple_types@D@std@@@2@$00@std@@QAE@XZ
__unwindfunclet$??0?$basic_string@DU?$char_traits@D@std@@V?$allocator@D@2@@std@@QAE@QBD@Z$1:
  00008	8d 4d c0	 lea	 ecx, DWORD PTR __Proxy$[ebp]
  0000b	e9 00 00 00 00	 jmp	 ??1?$_Container_proxy_ptr12@V?$allocator@U_Container_proxy@std@@@std@@@std@@QAE@XZ ; std::_Container_proxy_ptr12<std::allocator<std::_Container_proxy> >::~_Container_proxy_ptr12<std::allocator<std::_Container_proxy> >
  00010	cc		 int	 3
  00011	cc		 int	 3
  00012	cc		 int	 3
  00013	cc		 int	 3
  00014	cc		 int	 3
__ehhandler$??0?$basic_string@DU?$char_traits@D@std@@V?$allocator@D@2@@std@@QAE@QBD@Z:
  00015	90		 npad	 1
  00016	90		 npad	 1
  00017	8b 54 24 08	 mov	 edx, DWORD PTR [esp+8]
  0001b	8d 42 0c	 lea	 eax, DWORD PTR [edx+12]
  0001e	8b 8a ec fe ff
	ff		 mov	 ecx, DWORD PTR [edx-276]
  00024	33 c8		 xor	 ecx, eax
  00026	e8 00 00 00 00	 call	 @__security_check_cookie@4
  0002b	8b 4a fc	 mov	 ecx, DWORD PTR [edx-4]
  0002e	33 c8		 xor	 ecx, eax
  00030	e8 00 00 00 00	 call	 @__security_check_cookie@4
  00035	b8 00 00 00 00	 mov	 eax, OFFSET __ehfuncinfo$??0?$basic_string@DU?$char_traits@D@std@@V?$allocator@D@2@@std@@QAE@QBD@Z
  0003a	e9 00 00 00 00	 jmp	 ___CxxFrameHandler3
text$x	ENDS
??0?$basic_string@DU?$char_traits@D@std@@V?$allocator@D@2@@std@@QAE@QBD@Z ENDP ; std::basic_string<char,std::char_traits<char>,std::allocator<char> >::basic_string<char,std::char_traits<char>,std::allocator<char> >
; Function compile flags: /Odtp /RTCsu /ZI
;	COMDAT ??1?$_String_val@U?$_Simple_types@D@std@@@std@@QAE@XZ
_TEXT	SEGMENT
_this$ = -8						; size = 4
??1?$_String_val@U?$_Simple_types@D@std@@@std@@QAE@XZ PROC ; std::_String_val<std::_Simple_types<char> >::~_String_val<std::_Simple_types<char> >, COMDAT
; _this$ = ecx
  00000	55		 push	 ebp
  00001	8b ec		 mov	 ebp, esp
  00003	81 ec cc 00 00
	00		 sub	 esp, 204		; 000000ccH
  00009	53		 push	 ebx
  0000a	56		 push	 esi
  0000b	57		 push	 edi
  0000c	51		 push	 ecx
  0000d	8d 7d f4	 lea	 edi, DWORD PTR [ebp-12]
  00010	b9 03 00 00 00	 mov	 ecx, 3
  00015	b8 cc cc cc cc	 mov	 eax, -858993460		; ccccccccH
  0001a	f3 ab		 rep stosd
  0001c	59		 pop	 ecx
  0001d	89 4d f8	 mov	 DWORD PTR _this$[ebp], ecx
  00020	8b 4d f8	 mov	 ecx, DWORD PTR _this$[ebp]
  00023	83 c1 04	 add	 ecx, 4
  00026	e8 00 00 00 00	 call	 ??1_Bxty@?$_String_val@U?$_Simple_types@D@std@@@std@@QAE@XZ ; std::_String_val<std::_Simple_types<char> >::_Bxty::~_Bxty
  0002b	5f		 pop	 edi
  0002c	5e		 pop	 esi
  0002d	5b		 pop	 ebx
  0002e	81 c4 cc 00 00
	00		 add	 esp, 204		; 000000ccH
  00034	3b ec		 cmp	 ebp, esp
  00036	e8 00 00 00 00	 call	 __RTC_CheckEsp
  0003b	8b e5		 mov	 esp, ebp
  0003d	5d		 pop	 ebp
  0003e	c3		 ret	 0
??1?$_String_val@U?$_Simple_types@D@std@@@std@@QAE@XZ ENDP ; std::_String_val<std::_Simple_types<char> >::~_String_val<std::_Simple_types<char> >
_TEXT	ENDS
; Function compile flags: /Odtp /RTCsu /ZI
; File C:\Program Files (x86)\Microsoft Visual Studio\2019\Community\VC\Tools\MSVC\14.29.30133\include\xstring
;	COMDAT ??1_Bxty@?$_String_val@U?$_Simple_types@D@std@@@std@@QAE@XZ
_TEXT	SEGMENT
_this$ = -8						; size = 4
??1_Bxty@?$_String_val@U?$_Simple_types@D@std@@@std@@QAE@XZ PROC ; std::_String_val<std::_Simple_types<char> >::_Bxty::~_Bxty, COMDAT
; _this$ = ecx

; 2348 :         _CONSTEXPR20_CONTAINER ~_Bxty() noexcept {} // user-provided, for fancy pointers

  00000	55		 push	 ebp
  00001	8b ec		 mov	 ebp, esp
  00003	81 ec cc 00 00
	00		 sub	 esp, 204		; 000000ccH
  00009	53		 push	 ebx
  0000a	56		 push	 esi
  0000b	57		 push	 edi
  0000c	51		 push	 ecx
  0000d	8d 7d f4	 lea	 edi, DWORD PTR [ebp-12]
  00010	b9 03 00 00 00	 mov	 ecx, 3
  00015	b8 cc cc cc cc	 mov	 eax, -858993460		; ccccccccH
  0001a	f3 ab		 rep stosd
  0001c	59		 pop	 ecx
  0001d	89 4d f8	 mov	 DWORD PTR _this$[ebp], ecx
  00020	b9 00 00 00 00	 mov	 ecx, OFFSET __0D019051_xstring
  00025	e8 00 00 00 00	 call	 @__CheckForDebuggerJustMyCode@4
  0002a	5f		 pop	 edi
  0002b	5e		 pop	 esi
  0002c	5b		 pop	 ebx
  0002d	81 c4 cc 00 00
	00		 add	 esp, 204		; 000000ccH
  00033	3b ec		 cmp	 ebp, esp
  00035	e8 00 00 00 00	 call	 __RTC_CheckEsp
  0003a	8b e5		 mov	 esp, ebp
  0003c	5d		 pop	 ebp
  0003d	c3		 ret	 0
??1_Bxty@?$_String_val@U?$_Simple_types@D@std@@@std@@QAE@XZ ENDP ; std::_String_val<std::_Simple_types<char> >::_Bxty::~_Bxty
_TEXT	ENDS
; Function compile flags: /Odtp /RTCsu /ZI
; File C:\Program Files (x86)\Microsoft Visual Studio\2019\Community\VC\Tools\MSVC\14.29.30133\include\xstring
;	COMDAT ??0_Bxty@?$_String_val@U?$_Simple_types@D@std@@@std@@QAE@XZ
_TEXT	SEGMENT
_this$ = -8						; size = 4
??0_Bxty@?$_String_val@U?$_Simple_types@D@std@@@std@@QAE@XZ PROC ; std::_String_val<std::_Simple_types<char> >::_Bxty::_Bxty, COMDAT
; _this$ = ecx

; 2346 :         _CONSTEXPR20_CONTAINER _Bxty() noexcept : _Ptr() {} // user-provided, for fancy pointers

  00000	55		 push	 ebp
  00001	8b ec		 mov	 ebp, esp
  00003	81 ec cc 00 00
	00		 sub	 esp, 204		; 000000ccH
  00009	53		 push	 ebx
  0000a	56		 push	 esi
  0000b	57		 push	 edi
  0000c	51		 push	 ecx
  0000d	8d 7d f4	 lea	 edi, DWORD PTR [ebp-12]
  00010	b9 03 00 00 00	 mov	 ecx, 3
  00015	b8 cc cc cc cc	 mov	 eax, -858993460		; ccccccccH
  0001a	f3 ab		 rep stosd
  0001c	59		 pop	 ecx
  0001d	89 4d f8	 mov	 DWORD PTR _this$[ebp], ecx
  00020	b9 00 00 00 00	 mov	 ecx, OFFSET __0D019051_xstring
  00025	e8 00 00 00 00	 call	 @__CheckForDebuggerJustMyCode@4
  0002a	8b 45 f8	 mov	 eax, DWORD PTR _this$[ebp]
  0002d	c7 00 00 00 00
	00		 mov	 DWORD PTR [eax], 0
  00033	8b 45 f8	 mov	 eax, DWORD PTR _this$[ebp]
  00036	5f		 pop	 edi
  00037	5e		 pop	 esi
  00038	5b		 pop	 ebx
  00039	81 c4 cc 00 00
	00		 add	 esp, 204		; 000000ccH
  0003f	3b ec		 cmp	 ebp, esp
  00041	e8 00 00 00 00	 call	 __RTC_CheckEsp
  00046	8b e5		 mov	 esp, ebp
  00048	5d		 pop	 ebp
  00049	c3		 ret	 0
??0_Bxty@?$_String_val@U?$_Simple_types@D@std@@@std@@QAE@XZ ENDP ; std::_String_val<std::_Simple_types<char> >::_Bxty::_Bxty
_TEXT	ENDS
; Function compile flags: /Odtp /RTCsu /ZI
; File C:\Program Files (x86)\Microsoft Visual Studio\2019\Community\VC\Tools\MSVC\14.29.30133\include\xstring
;	COMDAT ?_Large_string_engaged@?$_String_val@U?$_Simple_types@D@std@@@std@@QBE_NXZ
_TEXT	SEGMENT
tv66 = -208						; size = 4
_this$ = -8						; size = 4
?_Large_string_engaged@?$_String_val@U?$_Simple_types@D@std@@@std@@QBE_NXZ PROC ; std::_String_val<std::_Simple_types<char> >::_Large_string_engaged, COMDAT
; _this$ = ecx

; 2313 :     _CONSTEXPR20_CONTAINER bool _Large_string_engaged() const noexcept {

  00000	55		 push	 ebp
  00001	8b ec		 mov	 ebp, esp
  00003	81 ec d0 00 00
	00		 sub	 esp, 208		; 000000d0H
  00009	53		 push	 ebx
  0000a	56		 push	 esi
  0000b	57		 push	 edi
  0000c	51		 push	 ecx
  0000d	8d 7d f0	 lea	 edi, DWORD PTR [ebp-16]
  00010	b9 04 00 00 00	 mov	 ecx, 4
  00015	b8 cc cc cc cc	 mov	 eax, -858993460		; ccccccccH
  0001a	f3 ab		 rep stosd
  0001c	59		 pop	 ecx
  0001d	89 4d f8	 mov	 DWORD PTR _this$[ebp], ecx
  00020	b9 00 00 00 00	 mov	 ecx, OFFSET __0D019051_xstring
  00025	e8 00 00 00 00	 call	 @__CheckForDebuggerJustMyCode@4

; 2314 : #ifdef __cpp_lib_constexpr_string
; 2315 :         if (_STD is_constant_evaluated()) {
; 2316 :             return true;
; 2317 :         }
; 2318 : #endif // __cpp_lib_constexpr_string
; 2319 :         return _BUF_SIZE <= _Myres;

  0002a	8b 45 f8	 mov	 eax, DWORD PTR _this$[ebp]
  0002d	83 78 18 10	 cmp	 DWORD PTR [eax+24], 16	; 00000010H
  00031	72 0c		 jb	 SHORT $LN3@Large_stri
  00033	c7 85 30 ff ff
	ff 01 00 00 00	 mov	 DWORD PTR tv66[ebp], 1
  0003d	eb 0a		 jmp	 SHORT $LN4@Large_stri
$LN3@Large_stri:
  0003f	c7 85 30 ff ff
	ff 00 00 00 00	 mov	 DWORD PTR tv66[ebp], 0
$LN4@Large_stri:
  00049	8a 85 30 ff ff
	ff		 mov	 al, BYTE PTR tv66[ebp]

; 2320 :     }

  0004f	5f		 pop	 edi
  00050	5e		 pop	 esi
  00051	5b		 pop	 ebx
  00052	81 c4 d0 00 00
	00		 add	 esp, 208		; 000000d0H
  00058	3b ec		 cmp	 ebp, esp
  0005a	e8 00 00 00 00	 call	 __RTC_CheckEsp
  0005f	8b e5		 mov	 esp, ebp
  00061	5d		 pop	 ebp
  00062	c3		 ret	 0
?_Large_string_engaged@?$_String_val@U?$_Simple_types@D@std@@@std@@QBE_NXZ ENDP ; std::_String_val<std::_Simple_types<char> >::_Large_string_engaged
_TEXT	ENDS
; Function compile flags: /Odtp /RTCsu /ZI
; File C:\Program Files (x86)\Microsoft Visual Studio\2019\Community\VC\Tools\MSVC\14.29.30133\include\xstring
;	COMDAT ?_Myptr@?$_String_val@U?$_Simple_types@D@std@@@std@@QBEPBDXZ
_TEXT	SEGMENT
__Result$ = -20						; size = 4
_this$ = -8						; size = 4
?_Myptr@?$_String_val@U?$_Simple_types@D@std@@@std@@QBEPBDXZ PROC ; std::_String_val<std::_Simple_types<char> >::_Myptr, COMDAT
; _this$ = ecx

; 2304 :     _CONSTEXPR20_CONTAINER const value_type* _Myptr() const noexcept {

  00000	55		 push	 ebp
  00001	8b ec		 mov	 ebp, esp
  00003	81 ec d8 00 00
	00		 sub	 esp, 216		; 000000d8H
  00009	53		 push	 ebx
  0000a	56		 push	 esi
  0000b	57		 push	 edi
  0000c	51		 push	 ecx
  0000d	8d 7d e8	 lea	 edi, DWORD PTR [ebp-24]
  00010	b9 06 00 00 00	 mov	 ecx, 6
  00015	b8 cc cc cc cc	 mov	 eax, -858993460		; ccccccccH
  0001a	f3 ab		 rep stosd
  0001c	59		 pop	 ecx
  0001d	89 4d f8	 mov	 DWORD PTR _this$[ebp], ecx
  00020	b9 00 00 00 00	 mov	 ecx, OFFSET __0D019051_xstring
  00025	e8 00 00 00 00	 call	 @__CheckForDebuggerJustMyCode@4

; 2305 :         const value_type* _Result = _Bx._Buf;

  0002a	8b 45 f8	 mov	 eax, DWORD PTR _this$[ebp]
  0002d	83 c0 04	 add	 eax, 4
  00030	89 45 ec	 mov	 DWORD PTR __Result$[ebp], eax

; 2306 :         if (_Large_string_engaged()) {

  00033	8b 4d f8	 mov	 ecx, DWORD PTR _this$[ebp]
  00036	e8 00 00 00 00	 call	 ?_Large_string_engaged@?$_String_val@U?$_Simple_types@D@std@@@std@@QBE_NXZ ; std::_String_val<std::_Simple_types<char> >::_Large_string_engaged
  0003b	0f b6 c0	 movzx	 eax, al
  0003e	85 c0		 test	 eax, eax
  00040	74 12		 je	 SHORT $LN2@Myptr

; 2307 :             _Result = _Unfancy(_Bx._Ptr);

  00042	8b 45 f8	 mov	 eax, DWORD PTR _this$[ebp]
  00045	8b 48 04	 mov	 ecx, DWORD PTR [eax+4]
  00048	51		 push	 ecx
  00049	e8 00 00 00 00	 call	 ??$_Unfancy@D@std@@YAPADPAD@Z ; std::_Unfancy<char>
  0004e	83 c4 04	 add	 esp, 4
  00051	89 45 ec	 mov	 DWORD PTR __Result$[ebp], eax
$LN2@Myptr:

; 2308 :         }
; 2309 : 
; 2310 :         return _Result;

  00054	8b 45 ec	 mov	 eax, DWORD PTR __Result$[ebp]

; 2311 :     }

  00057	5f		 pop	 edi
  00058	5e		 pop	 esi
  00059	5b		 pop	 ebx
  0005a	81 c4 d8 00 00
	00		 add	 esp, 216		; 000000d8H
  00060	3b ec		 cmp	 ebp, esp
  00062	e8 00 00 00 00	 call	 __RTC_CheckEsp
  00067	8b e5		 mov	 esp, ebp
  00069	5d		 pop	 ebp
  0006a	c3		 ret	 0
?_Myptr@?$_String_val@U?$_Simple_types@D@std@@@std@@QBEPBDXZ ENDP ; std::_String_val<std::_Simple_types<char> >::_Myptr
_TEXT	ENDS
; Function compile flags: /Odtp /RTCsu /ZI
; File C:\Program Files (x86)\Microsoft Visual Studio\2019\Community\VC\Tools\MSVC\14.29.30133\include\xstring
;	COMDAT ?_Myptr@?$_String_val@U?$_Simple_types@D@std@@@std@@QAEPADXZ
_TEXT	SEGMENT
__Result$ = -20						; size = 4
_this$ = -8						; size = 4
?_Myptr@?$_String_val@U?$_Simple_types@D@std@@@std@@QAEPADXZ PROC ; std::_String_val<std::_Simple_types<char> >::_Myptr, COMDAT
; _this$ = ecx

; 2295 :     _CONSTEXPR20_CONTAINER value_type* _Myptr() noexcept {

  00000	55		 push	 ebp
  00001	8b ec		 mov	 ebp, esp
  00003	81 ec d8 00 00
	00		 sub	 esp, 216		; 000000d8H
  00009	53		 push	 ebx
  0000a	56		 push	 esi
  0000b	57		 push	 edi
  0000c	51		 push	 ecx
  0000d	8d 7d e8	 lea	 edi, DWORD PTR [ebp-24]
  00010	b9 06 00 00 00	 mov	 ecx, 6
  00015	b8 cc cc cc cc	 mov	 eax, -858993460		; ccccccccH
  0001a	f3 ab		 rep stosd
  0001c	59		 pop	 ecx
  0001d	89 4d f8	 mov	 DWORD PTR _this$[ebp], ecx
  00020	b9 00 00 00 00	 mov	 ecx, OFFSET __0D019051_xstring
  00025	e8 00 00 00 00	 call	 @__CheckForDebuggerJustMyCode@4

; 2296 :         value_type* _Result = _Bx._Buf;

  0002a	8b 45 f8	 mov	 eax, DWORD PTR _this$[ebp]
  0002d	83 c0 04	 add	 eax, 4
  00030	89 45 ec	 mov	 DWORD PTR __Result$[ebp], eax

; 2297 :         if (_Large_string_engaged()) {

  00033	8b 4d f8	 mov	 ecx, DWORD PTR _this$[ebp]
  00036	e8 00 00 00 00	 call	 ?_Large_string_engaged@?$_String_val@U?$_Simple_types@D@std@@@std@@QBE_NXZ ; std::_String_val<std::_Simple_types<char> >::_Large_string_engaged
  0003b	0f b6 c0	 movzx	 eax, al
  0003e	85 c0		 test	 eax, eax
  00040	74 12		 je	 SHORT $LN2@Myptr

; 2298 :             _Result = _Unfancy(_Bx._Ptr);

  00042	8b 45 f8	 mov	 eax, DWORD PTR _this$[ebp]
  00045	8b 48 04	 mov	 ecx, DWORD PTR [eax+4]
  00048	51		 push	 ecx
  00049	e8 00 00 00 00	 call	 ??$_Unfancy@D@std@@YAPADPAD@Z ; std::_Unfancy<char>
  0004e	83 c4 04	 add	 esp, 4
  00051	89 45 ec	 mov	 DWORD PTR __Result$[ebp], eax
$LN2@Myptr:

; 2299 :         }
; 2300 : 
; 2301 :         return _Result;

  00054	8b 45 ec	 mov	 eax, DWORD PTR __Result$[ebp]

; 2302 :     }

  00057	5f		 pop	 edi
  00058	5e		 pop	 esi
  00059	5b		 pop	 ebx
  0005a	81 c4 d8 00 00
	00		 add	 esp, 216		; 000000d8H
  00060	3b ec		 cmp	 ebp, esp
  00062	e8 00 00 00 00	 call	 __RTC_CheckEsp
  00067	8b e5		 mov	 esp, ebp
  00069	5d		 pop	 ebp
  0006a	c3		 ret	 0
?_Myptr@?$_String_val@U?$_Simple_types@D@std@@@std@@QAEPADXZ ENDP ; std::_String_val<std::_Simple_types<char> >::_Myptr
_TEXT	ENDS
; Function compile flags: /Odtp /RTCsu /ZI
; File C:\Program Files (x86)\Microsoft Visual Studio\2019\Community\VC\Tools\MSVC\14.29.30133\include\xstring
;	COMDAT ??0?$_String_val@U?$_Simple_types@D@std@@@std@@QAE@XZ
_TEXT	SEGMENT
_this$ = -8						; size = 4
??0?$_String_val@U?$_Simple_types@D@std@@@std@@QAE@XZ PROC ; std::_String_val<std::_Simple_types<char> >::_String_val<std::_Simple_types<char> >, COMDAT
; _this$ = ecx

; 2284 :     _CONSTEXPR20_CONTAINER _String_val() noexcept : _Bx() {}

  00000	55		 push	 ebp
  00001	8b ec		 mov	 ebp, esp
  00003	81 ec cc 00 00
	00		 sub	 esp, 204		; 000000ccH
  00009	53		 push	 ebx
  0000a	56		 push	 esi
  0000b	57		 push	 edi
  0000c	51		 push	 ecx
  0000d	8d 7d f4	 lea	 edi, DWORD PTR [ebp-12]
  00010	b9 03 00 00 00	 mov	 ecx, 3
  00015	b8 cc cc cc cc	 mov	 eax, -858993460		; ccccccccH
  0001a	f3 ab		 rep stosd
  0001c	59		 pop	 ecx
  0001d	89 4d f8	 mov	 DWORD PTR _this$[ebp], ecx
  00020	b9 00 00 00 00	 mov	 ecx, OFFSET __0D019051_xstring
  00025	e8 00 00 00 00	 call	 @__CheckForDebuggerJustMyCode@4
  0002a	8b 4d f8	 mov	 ecx, DWORD PTR _this$[ebp]
  0002d	e8 00 00 00 00	 call	 ??0_Container_base12@std@@QAE@XZ ; std::_Container_base12::_Container_base12
  00032	8b 4d f8	 mov	 ecx, DWORD PTR _this$[ebp]
  00035	83 c1 04	 add	 ecx, 4
  00038	e8 00 00 00 00	 call	 ??0_Bxty@?$_String_val@U?$_Simple_types@D@std@@@std@@QAE@XZ ; std::_String_val<std::_Simple_types<char> >::_Bxty::_Bxty

; 2285 : 
; 2286 :     // length of internal buffer, [1, 16]:
; 2287 :     static constexpr size_type _BUF_SIZE = 16 / sizeof(value_type) < 1 ? 1 : 16 / sizeof(value_type);
; 2288 :     // roundup mask for allocated buffers, [0, 15]:
; 2289 :     static constexpr size_type _ALLOC_MASK = sizeof(value_type) <= 1 ? 15
; 2290 :                                            : sizeof(value_type) <= 2 ? 7
; 2291 :                                            : sizeof(value_type) <= 4 ? 3
; 2292 :                                            : sizeof(value_type) <= 8 ? 1
; 2293 :                                                                      : 0;
; 2294 : 
; 2295 :     _CONSTEXPR20_CONTAINER value_type* _Myptr() noexcept {
; 2296 :         value_type* _Result = _Bx._Buf;
; 2297 :         if (_Large_string_engaged()) {
; 2298 :             _Result = _Unfancy(_Bx._Ptr);
; 2299 :         }
; 2300 : 
; 2301 :         return _Result;
; 2302 :     }
; 2303 : 
; 2304 :     _CONSTEXPR20_CONTAINER const value_type* _Myptr() const noexcept {
; 2305 :         const value_type* _Result = _Bx._Buf;
; 2306 :         if (_Large_string_engaged()) {
; 2307 :             _Result = _Unfancy(_Bx._Ptr);
; 2308 :         }
; 2309 : 
; 2310 :         return _Result;
; 2311 :     }
; 2312 : 
; 2313 :     _CONSTEXPR20_CONTAINER bool _Large_string_engaged() const noexcept {
; 2314 : #ifdef __cpp_lib_constexpr_string
; 2315 :         if (_STD is_constant_evaluated()) {
; 2316 :             return true;
; 2317 :         }
; 2318 : #endif // __cpp_lib_constexpr_string
; 2319 :         return _BUF_SIZE <= _Myres;
; 2320 :     }
; 2321 : 
; 2322 :     _CONSTEXPR20_CONTAINER void _Check_offset(const size_type _Off) const {
; 2323 :         // checks whether _Off is in the bounds of [0, size()]
; 2324 :         if (_Mysize < _Off) {
; 2325 :             _Xran();
; 2326 :         }
; 2327 :     }
; 2328 : 
; 2329 :     _CONSTEXPR20_CONTAINER void _Check_offset_exclusive(const size_type _Off) const {
; 2330 :         // checks whether _Off is in the bounds of [0, size())
; 2331 :         if (_Mysize <= _Off) {
; 2332 :             _Xran();
; 2333 :         }
; 2334 :     }
; 2335 : 
; 2336 :     [[noreturn]] static void _Xran() {
; 2337 :         _Xout_of_range("invalid string position");
; 2338 :     }
; 2339 : 
; 2340 :     _CONSTEXPR20_CONTAINER size_type _Clamp_suffix_size(const size_type _Off, const size_type _Size) const noexcept {
; 2341 :         // trims _Size to the longest it can be assuming a string at/after _Off
; 2342 :         return (_STD min)(_Size, _Mysize - _Off);
; 2343 :     }
; 2344 : 
; 2345 :     union _Bxty { // storage for small buffer or pointer to larger one
; 2346 :         _CONSTEXPR20_CONTAINER _Bxty() noexcept : _Ptr() {} // user-provided, for fancy pointers
; 2347 : 
; 2348 :         _CONSTEXPR20_CONTAINER ~_Bxty() noexcept {} // user-provided, for fancy pointers
; 2349 : 
; 2350 :         value_type _Buf[_BUF_SIZE];
; 2351 :         pointer _Ptr;
; 2352 :         char _Alias[_BUF_SIZE]; // TRANSITION, ABI: _Alias is preserved for binary compatibility (especially /clr)
; 2353 :     } _Bx;
; 2354 : 
; 2355 :     size_type _Mysize = 0; // current length of string

  0003d	8b 45 f8	 mov	 eax, DWORD PTR _this$[ebp]
  00040	c7 40 14 00 00
	00 00		 mov	 DWORD PTR [eax+20], 0

; 2356 :     size_type _Myres  = 0; // current storage reserved for string

  00047	8b 45 f8	 mov	 eax, DWORD PTR _this$[ebp]
  0004a	c7 40 18 00 00
	00 00		 mov	 DWORD PTR [eax+24], 0

; 2284 :     _CONSTEXPR20_CONTAINER _String_val() noexcept : _Bx() {}

  00051	8b 45 f8	 mov	 eax, DWORD PTR _this$[ebp]
  00054	5f		 pop	 edi
  00055	5e		 pop	 esi
  00056	5b		 pop	 ebx
  00057	81 c4 cc 00 00
	00		 add	 esp, 204		; 000000ccH
  0005d	3b ec		 cmp	 ebp, esp
  0005f	e8 00 00 00 00	 call	 __RTC_CheckEsp
  00064	8b e5		 mov	 esp, ebp
  00066	5d		 pop	 ebp
  00067	c3		 ret	 0
??0?$_String_val@U?$_Simple_types@D@std@@@std@@QAE@XZ ENDP ; std::_String_val<std::_Simple_types<char> >::_String_val<std::_Simple_types<char> >
_TEXT	ENDS
; Function compile flags: /Odtp /RTCsu /ZI
; File C:\Program Files (x86)\Microsoft Visual Studio\2019\Community\VC\Tools\MSVC\14.29.30133\include\xmemory
;	COMDAT ?max_size@?$_Default_allocator_traits@V?$allocator@D@std@@@std@@SAIABV?$allocator@D@2@@Z
_TEXT	SEGMENT
___formal$ = 8						; size = 4
?max_size@?$_Default_allocator_traits@V?$allocator@D@std@@@std@@SAIABV?$allocator@D@2@@Z PROC ; std::_Default_allocator_traits<std::allocator<char> >::max_size, COMDAT

; 727  :     _NODISCARD static _CONSTEXPR20_DYNALLOC size_type max_size(const _Alloc&) noexcept {

  00000	55		 push	 ebp
  00001	8b ec		 mov	 ebp, esp
  00003	81 ec c0 00 00
	00		 sub	 esp, 192		; 000000c0H
  00009	53		 push	 ebx
  0000a	56		 push	 esi
  0000b	57		 push	 edi
  0000c	8b fd		 mov	 edi, ebp
  0000e	33 c9		 xor	 ecx, ecx
  00010	b8 cc cc cc cc	 mov	 eax, -858993460		; ccccccccH
  00015	f3 ab		 rep stosd
  00017	b9 00 00 00 00	 mov	 ecx, OFFSET __79D216CD_xmemory
  0001c	e8 00 00 00 00	 call	 @__CheckForDebuggerJustMyCode@4

; 728  :         return static_cast<size_t>(-1) / sizeof(value_type);

  00021	83 c8 ff	 or	 eax, -1

; 729  :     }

  00024	5f		 pop	 edi
  00025	5e		 pop	 esi
  00026	5b		 pop	 ebx
  00027	81 c4 c0 00 00
	00		 add	 esp, 192		; 000000c0H
  0002d	3b ec		 cmp	 ebp, esp
  0002f	e8 00 00 00 00	 call	 __RTC_CheckEsp
  00034	8b e5		 mov	 esp, ebp
  00036	5d		 pop	 ebp
  00037	c3		 ret	 0
?max_size@?$_Default_allocator_traits@V?$allocator@D@std@@@std@@SAIABV?$allocator@D@2@@Z ENDP ; std::_Default_allocator_traits<std::allocator<char> >::max_size
_TEXT	ENDS
; Function compile flags: /Odtp /RTCsu /ZI
; File C:\Program Files (x86)\Microsoft Visual Studio\2019\Community\VC\Tools\MSVC\14.29.30133\include\xmemory
;	COMDAT ?allocate@?$allocator@D@std@@QAEPADI@Z
_TEXT	SEGMENT
_this$ = -8						; size = 4
__Count$ = 8						; size = 4
?allocate@?$allocator@D@std@@QAEPADI@Z PROC		; std::allocator<char>::allocate, COMDAT
; _this$ = ecx

; 838  :     _NODISCARD _CONSTEXPR20_DYNALLOC __declspec(allocator) _Ty* allocate(_CRT_GUARDOVERFLOW const size_t _Count) {

  00000	55		 push	 ebp
  00001	8b ec		 mov	 ebp, esp
  00003	81 ec cc 00 00
	00		 sub	 esp, 204		; 000000ccH
  00009	53		 push	 ebx
  0000a	56		 push	 esi
  0000b	57		 push	 edi
  0000c	51		 push	 ecx
  0000d	8d 7d f4	 lea	 edi, DWORD PTR [ebp-12]
  00010	b9 03 00 00 00	 mov	 ecx, 3
  00015	b8 cc cc cc cc	 mov	 eax, -858993460		; ccccccccH
  0001a	f3 ab		 rep stosd
  0001c	59		 pop	 ecx
  0001d	89 4d f8	 mov	 DWORD PTR _this$[ebp], ecx
  00020	b9 00 00 00 00	 mov	 ecx, OFFSET __79D216CD_xmemory
  00025	e8 00 00 00 00	 call	 @__CheckForDebuggerJustMyCode@4

; 839  :         return static_cast<_Ty*>(_Allocate<_New_alignof<_Ty>>(_Get_size_of_n<sizeof(_Ty)>(_Count)));

  0002a	8b 45 08	 mov	 eax, DWORD PTR __Count$[ebp]
  0002d	50		 push	 eax
  0002e	e8 00 00 00 00	 call	 ??$_Get_size_of_n@$00@std@@YAII@Z ; std::_Get_size_of_n<1>
  00033	83 c4 04	 add	 esp, 4
  00036	50		 push	 eax
  00037	e8 00 00 00 00	 call	 ??$_Allocate@$07U_Default_allocate_traits@std@@$0A@@std@@YAPAXI@Z ; std::_Allocate<8,std::_Default_allocate_traits,0>
  0003c	83 c4 04	 add	 esp, 4

; 840  :     }

  0003f	5f		 pop	 edi
  00040	5e		 pop	 esi
  00041	5b		 pop	 ebx
  00042	81 c4 cc 00 00
	00		 add	 esp, 204		; 000000ccH
  00048	3b ec		 cmp	 ebp, esp
  0004a	e8 00 00 00 00	 call	 __RTC_CheckEsp
  0004f	8b e5		 mov	 esp, ebp
  00051	5d		 pop	 ebp
  00052	c2 04 00	 ret	 4
?allocate@?$allocator@D@std@@QAEPADI@Z ENDP		; std::allocator<char>::allocate
_TEXT	ENDS
; Function compile flags: /Odtp /RTCsu /ZI
; File C:\Program Files (x86)\Microsoft Visual Studio\2019\Community\VC\Tools\MSVC\14.29.30133\include\xmemory
;	COMDAT ?deallocate@?$allocator@D@std@@QAEXQADI@Z
_TEXT	SEGMENT
_this$ = -8						; size = 4
__Ptr$ = 8						; size = 4
__Count$ = 12						; size = 4
?deallocate@?$allocator@D@std@@QAEXQADI@Z PROC		; std::allocator<char>::deallocate, COMDAT
; _this$ = ecx

; 833  :     _CONSTEXPR20_DYNALLOC void deallocate(_Ty* const _Ptr, const size_t _Count) {

  00000	55		 push	 ebp
  00001	8b ec		 mov	 ebp, esp
  00003	81 ec cc 00 00
	00		 sub	 esp, 204		; 000000ccH
  00009	53		 push	 ebx
  0000a	56		 push	 esi
  0000b	57		 push	 edi
  0000c	51		 push	 ecx
  0000d	8d 7d f4	 lea	 edi, DWORD PTR [ebp-12]
  00010	b9 03 00 00 00	 mov	 ecx, 3
  00015	b8 cc cc cc cc	 mov	 eax, -858993460		; ccccccccH
  0001a	f3 ab		 rep stosd
  0001c	59		 pop	 ecx
  0001d	89 4d f8	 mov	 DWORD PTR _this$[ebp], ecx
  00020	b9 00 00 00 00	 mov	 ecx, OFFSET __79D216CD_xmemory
  00025	e8 00 00 00 00	 call	 @__CheckForDebuggerJustMyCode@4

; 834  :         // no overflow check on the following multiply; we assume _Allocate did that check
; 835  :         _Deallocate<_New_alignof<_Ty>>(_Ptr, sizeof(_Ty) * _Count);

  0002a	8b 45 0c	 mov	 eax, DWORD PTR __Count$[ebp]
  0002d	50		 push	 eax
  0002e	8b 4d 08	 mov	 ecx, DWORD PTR __Ptr$[ebp]
  00031	51		 push	 ecx
  00032	e8 00 00 00 00	 call	 ??$_Deallocate@$07$0A@@std@@YAXPAXI@Z ; std::_Deallocate<8,0>
  00037	83 c4 08	 add	 esp, 8

; 836  :     }

  0003a	5f		 pop	 edi
  0003b	5e		 pop	 esi
  0003c	5b		 pop	 ebx
  0003d	81 c4 cc 00 00
	00		 add	 esp, 204		; 000000ccH
  00043	3b ec		 cmp	 ebp, esp
  00045	e8 00 00 00 00	 call	 __RTC_CheckEsp
  0004a	8b e5		 mov	 esp, ebp
  0004c	5d		 pop	 ebp
  0004d	c2 08 00	 ret	 8
?deallocate@?$allocator@D@std@@QAEXQADI@Z ENDP		; std::allocator<char>::deallocate
_TEXT	ENDS
; Function compile flags: /Odtp /RTCsu /ZI
; File C:\Program Files (x86)\Microsoft Visual Studio\2019\Community\VC\Tools\MSVC\14.29.30133\include\xmemory
;	COMDAT ??0?$allocator@D@std@@QAE@XZ
_TEXT	SEGMENT
_this$ = -8						; size = 4
??0?$allocator@D@std@@QAE@XZ PROC			; std::allocator<char>::allocator<char>, COMDAT
; _this$ = ecx

; 825  :     constexpr allocator() noexcept {}

  00000	55		 push	 ebp
  00001	8b ec		 mov	 ebp, esp
  00003	81 ec cc 00 00
	00		 sub	 esp, 204		; 000000ccH
  00009	53		 push	 ebx
  0000a	56		 push	 esi
  0000b	57		 push	 edi
  0000c	51		 push	 ecx
  0000d	8d 7d f4	 lea	 edi, DWORD PTR [ebp-12]
  00010	b9 03 00 00 00	 mov	 ecx, 3
  00015	b8 cc cc cc cc	 mov	 eax, -858993460		; ccccccccH
  0001a	f3 ab		 rep stosd
  0001c	59		 pop	 ecx
  0001d	89 4d f8	 mov	 DWORD PTR _this$[ebp], ecx
  00020	b9 00 00 00 00	 mov	 ecx, OFFSET __79D216CD_xmemory
  00025	e8 00 00 00 00	 call	 @__CheckForDebuggerJustMyCode@4
  0002a	8b 45 f8	 mov	 eax, DWORD PTR _this$[ebp]
  0002d	5f		 pop	 edi
  0002e	5e		 pop	 esi
  0002f	5b		 pop	 ebx
  00030	81 c4 cc 00 00
	00		 add	 esp, 204		; 000000ccH
  00036	3b ec		 cmp	 ebp, esp
  00038	e8 00 00 00 00	 call	 __RTC_CheckEsp
  0003d	8b e5		 mov	 esp, ebp
  0003f	5d		 pop	 ebp
  00040	c3		 ret	 0
??0?$allocator@D@std@@QAE@XZ ENDP			; std::allocator<char>::allocator<char>
_TEXT	ENDS
; Function compile flags: /Odtp /RTCsu /ZI
; File C:\Program Files (x86)\Microsoft Visual Studio\2019\Community\VC\Tools\MSVC\14.29.30133\include\xstring
;	COMDAT ?_Xlen_string@std@@YAXXZ
_TEXT	SEGMENT
?_Xlen_string@std@@YAXXZ PROC				; std::_Xlen_string, COMDAT

; 2373 : [[noreturn]] inline void _Xlen_string() {

  00000	55		 push	 ebp
  00001	8b ec		 mov	 ebp, esp
  00003	81 ec c0 00 00
	00		 sub	 esp, 192		; 000000c0H
  00009	53		 push	 ebx
  0000a	56		 push	 esi
  0000b	57		 push	 edi
  0000c	8b fd		 mov	 edi, ebp
  0000e	33 c9		 xor	 ecx, ecx
  00010	b8 cc cc cc cc	 mov	 eax, -858993460		; ccccccccH
  00015	f3 ab		 rep stosd
  00017	b9 00 00 00 00	 mov	 ecx, OFFSET __0D019051_xstring
  0001c	e8 00 00 00 00	 call	 @__CheckForDebuggerJustMyCode@4

; 2374 :     _Xlength_error("string too long");

  00021	68 00 00 00 00	 push	 OFFSET ??_C@_0BA@JFNIOLAK@string?5too?5long@
  00026	e8 00 00 00 00	 call	 ?_Xlength_error@std@@YAXPBD@Z ; std::_Xlength_error
$LN2@Xlen_strin:

; 2375 : }

  0002b	5f		 pop	 edi
  0002c	5e		 pop	 esi
  0002d	5b		 pop	 ebx
  0002e	81 c4 c0 00 00
	00		 add	 esp, 192		; 000000c0H
  00034	3b ec		 cmp	 ebp, esp
  00036	e8 00 00 00 00	 call	 __RTC_CheckEsp
  0003b	8b e5		 mov	 esp, ebp
  0003d	5d		 pop	 ebp
  0003e	c3		 ret	 0
?_Xlen_string@std@@YAXXZ ENDP				; std::_Xlen_string
_TEXT	ENDS
; Function compile flags: /Odtp /RTCsu /ZI
; File C:\Program Files (x86)\Microsoft Visual Studio\2019\Community\VC\Tools\MSVC\14.29.30133\include\xstring
;	COMDAT ?eof@?$_Narrow_char_traits@DH@std@@SAHXZ
_TEXT	SEGMENT
?eof@?$_Narrow_char_traits@DH@std@@SAHXZ PROC		; std::_Narrow_char_traits<char,int>::eof, COMDAT

; 477  :     _NODISCARD static constexpr int_type eof() noexcept {

  00000	55		 push	 ebp
  00001	8b ec		 mov	 ebp, esp
  00003	81 ec c0 00 00
	00		 sub	 esp, 192		; 000000c0H
  00009	53		 push	 ebx
  0000a	56		 push	 esi
  0000b	57		 push	 edi
  0000c	8b fd		 mov	 edi, ebp
  0000e	33 c9		 xor	 ecx, ecx
  00010	b8 cc cc cc cc	 mov	 eax, -858993460		; ccccccccH
  00015	f3 ab		 rep stosd
  00017	b9 00 00 00 00	 mov	 ecx, OFFSET __0D019051_xstring
  0001c	e8 00 00 00 00	 call	 @__CheckForDebuggerJustMyCode@4

; 478  :         return static_cast<int_type>(EOF);

  00021	83 c8 ff	 or	 eax, -1

; 479  :     }

  00024	5f		 pop	 edi
  00025	5e		 pop	 esi
  00026	5b		 pop	 ebx
  00027	81 c4 c0 00 00
	00		 add	 esp, 192		; 000000c0H
  0002d	3b ec		 cmp	 ebp, esp
  0002f	e8 00 00 00 00	 call	 __RTC_CheckEsp
  00034	8b e5		 mov	 esp, ebp
  00036	5d		 pop	 ebp
  00037	c3		 ret	 0
?eof@?$_Narrow_char_traits@DH@std@@SAHXZ ENDP		; std::_Narrow_char_traits<char,int>::eof
_TEXT	ENDS
; Function compile flags: /Odtp /RTCsu /ZI
; File C:\Program Files (x86)\Microsoft Visual Studio\2019\Community\VC\Tools\MSVC\14.29.30133\include\xstring
;	COMDAT ?eq_int_type@?$_Narrow_char_traits@DH@std@@SA_NABH0@Z
_TEXT	SEGMENT
tv65 = -196						; size = 4
__Left$ = 8						; size = 4
__Right$ = 12						; size = 4
?eq_int_type@?$_Narrow_char_traits@DH@std@@SA_NABH0@Z PROC ; std::_Narrow_char_traits<char,int>::eq_int_type, COMDAT

; 469  :     _NODISCARD static constexpr bool eq_int_type(const int_type& _Left, const int_type& _Right) noexcept {

  00000	55		 push	 ebp
  00001	8b ec		 mov	 ebp, esp
  00003	81 ec c4 00 00
	00		 sub	 esp, 196		; 000000c4H
  00009	53		 push	 ebx
  0000a	56		 push	 esi
  0000b	57		 push	 edi
  0000c	8d 7d fc	 lea	 edi, DWORD PTR [ebp-4]
  0000f	b9 01 00 00 00	 mov	 ecx, 1
  00014	b8 cc cc cc cc	 mov	 eax, -858993460		; ccccccccH
  00019	f3 ab		 rep stosd
  0001b	b9 00 00 00 00	 mov	 ecx, OFFSET __0D019051_xstring
  00020	e8 00 00 00 00	 call	 @__CheckForDebuggerJustMyCode@4

; 470  :         return _Left == _Right;

  00025	8b 45 08	 mov	 eax, DWORD PTR __Left$[ebp]
  00028	8b 4d 0c	 mov	 ecx, DWORD PTR __Right$[ebp]
  0002b	8b 10		 mov	 edx, DWORD PTR [eax]
  0002d	3b 11		 cmp	 edx, DWORD PTR [ecx]
  0002f	75 0c		 jne	 SHORT $LN3@eq_int_typ
  00031	c7 85 3c ff ff
	ff 01 00 00 00	 mov	 DWORD PTR tv65[ebp], 1
  0003b	eb 0a		 jmp	 SHORT $LN4@eq_int_typ
$LN3@eq_int_typ:
  0003d	c7 85 3c ff ff
	ff 00 00 00 00	 mov	 DWORD PTR tv65[ebp], 0
$LN4@eq_int_typ:
  00047	8a 85 3c ff ff
	ff		 mov	 al, BYTE PTR tv65[ebp]

; 471  :     }

  0004d	5f		 pop	 edi
  0004e	5e		 pop	 esi
  0004f	5b		 pop	 ebx
  00050	81 c4 c4 00 00
	00		 add	 esp, 196		; 000000c4H
  00056	3b ec		 cmp	 ebp, esp
  00058	e8 00 00 00 00	 call	 __RTC_CheckEsp
  0005d	8b e5		 mov	 esp, ebp
  0005f	5d		 pop	 ebp
  00060	c3		 ret	 0
?eq_int_type@?$_Narrow_char_traits@DH@std@@SA_NABH0@Z ENDP ; std::_Narrow_char_traits<char,int>::eq_int_type
_TEXT	ENDS
; Function compile flags: /Odtp /RTCsu /ZI
; File C:\Program Files (x86)\Microsoft Visual Studio\2019\Community\VC\Tools\MSVC\14.29.30133\include\xstring
;	COMDAT ?to_char_type@?$_Narrow_char_traits@DH@std@@SADABH@Z
_TEXT	SEGMENT
__Meta$ = 8						; size = 4
?to_char_type@?$_Narrow_char_traits@DH@std@@SADABH@Z PROC ; std::_Narrow_char_traits<char,int>::to_char_type, COMDAT

; 461  :     _NODISCARD static constexpr _Elem to_char_type(const int_type& _Meta) noexcept {

  00000	55		 push	 ebp
  00001	8b ec		 mov	 ebp, esp
  00003	81 ec c0 00 00
	00		 sub	 esp, 192		; 000000c0H
  00009	53		 push	 ebx
  0000a	56		 push	 esi
  0000b	57		 push	 edi
  0000c	8b fd		 mov	 edi, ebp
  0000e	33 c9		 xor	 ecx, ecx
  00010	b8 cc cc cc cc	 mov	 eax, -858993460		; ccccccccH
  00015	f3 ab		 rep stosd
  00017	b9 00 00 00 00	 mov	 ecx, OFFSET __0D019051_xstring
  0001c	e8 00 00 00 00	 call	 @__CheckForDebuggerJustMyCode@4

; 462  :         return static_cast<_Elem>(_Meta);

  00021	8b 45 08	 mov	 eax, DWORD PTR __Meta$[ebp]
  00024	8a 00		 mov	 al, BYTE PTR [eax]

; 463  :     }

  00026	5f		 pop	 edi
  00027	5e		 pop	 esi
  00028	5b		 pop	 ebx
  00029	81 c4 c0 00 00
	00		 add	 esp, 192		; 000000c0H
  0002f	3b ec		 cmp	 ebp, esp
  00031	e8 00 00 00 00	 call	 __RTC_CheckEsp
  00036	8b e5		 mov	 esp, ebp
  00038	5d		 pop	 ebp
  00039	c3		 ret	 0
?to_char_type@?$_Narrow_char_traits@DH@std@@SADABH@Z ENDP ; std::_Narrow_char_traits<char,int>::to_char_type
_TEXT	ENDS
; Function compile flags: /Odtp /RTCsu /ZI
; File C:\Program Files (x86)\Microsoft Visual Studio\2019\Community\VC\Tools\MSVC\14.29.30133\include\xstring
;	COMDAT ?assign@?$_Narrow_char_traits@DH@std@@SAXAADABD@Z
_TEXT	SEGMENT
__Left$ = 8						; size = 4
__Right$ = 12						; size = 4
?assign@?$_Narrow_char_traits@DH@std@@SAXAADABD@Z PROC	; std::_Narrow_char_traits<char,int>::assign, COMDAT

; 449  :     static _CONSTEXPR17 void assign(_Elem& _Left, const _Elem& _Right) noexcept {

  00000	55		 push	 ebp
  00001	8b ec		 mov	 ebp, esp
  00003	81 ec c0 00 00
	00		 sub	 esp, 192		; 000000c0H
  00009	53		 push	 ebx
  0000a	56		 push	 esi
  0000b	57		 push	 edi
  0000c	8b fd		 mov	 edi, ebp
  0000e	33 c9		 xor	 ecx, ecx
  00010	b8 cc cc cc cc	 mov	 eax, -858993460		; ccccccccH
  00015	f3 ab		 rep stosd
  00017	b9 00 00 00 00	 mov	 ecx, OFFSET __0D019051_xstring
  0001c	e8 00 00 00 00	 call	 @__CheckForDebuggerJustMyCode@4

; 450  :         _Left = _Right;

  00021	8b 45 08	 mov	 eax, DWORD PTR __Left$[ebp]
  00024	8b 4d 0c	 mov	 ecx, DWORD PTR __Right$[ebp]
  00027	8a 11		 mov	 dl, BYTE PTR [ecx]
  00029	88 10		 mov	 BYTE PTR [eax], dl

; 451  :     }

  0002b	5f		 pop	 edi
  0002c	5e		 pop	 esi
  0002d	5b		 pop	 ebx
  0002e	81 c4 c0 00 00
	00		 add	 esp, 192		; 000000c0H
  00034	3b ec		 cmp	 ebp, esp
  00036	e8 00 00 00 00	 call	 __RTC_CheckEsp
  0003b	8b e5		 mov	 esp, ebp
  0003d	5d		 pop	 ebp
  0003e	c3		 ret	 0
?assign@?$_Narrow_char_traits@DH@std@@SAXAADABD@Z ENDP	; std::_Narrow_char_traits<char,int>::assign
_TEXT	ENDS
; Function compile flags: /Odtp /RTCsu /ZI
; File C:\Program Files (x86)\Microsoft Visual Studio\2019\Community\VC\Tools\MSVC\14.29.30133\include\xstring
;	COMDAT ?length@?$_Narrow_char_traits@DH@std@@SAIQBD@Z
_TEXT	SEGMENT
__First$ = 8						; size = 4
?length@?$_Narrow_char_traits@DH@std@@SAIQBD@Z PROC	; std::_Narrow_char_traits<char,int>::length, COMDAT

; 396  :     _NODISCARD static _CONSTEXPR17 size_t length(_In_z_ const _Elem* const _First) noexcept /* strengthened */ {

  00000	55		 push	 ebp
  00001	8b ec		 mov	 ebp, esp
  00003	81 ec c0 00 00
	00		 sub	 esp, 192		; 000000c0H
  00009	53		 push	 ebx
  0000a	56		 push	 esi
  0000b	57		 push	 edi
  0000c	8b fd		 mov	 edi, ebp
  0000e	33 c9		 xor	 ecx, ecx
  00010	b8 cc cc cc cc	 mov	 eax, -858993460		; ccccccccH
  00015	f3 ab		 rep stosd
  00017	b9 00 00 00 00	 mov	 ecx, OFFSET __0D019051_xstring
  0001c	e8 00 00 00 00	 call	 @__CheckForDebuggerJustMyCode@4

; 397  :         // find length of null-terminated string
; 398  : #if _HAS_CXX17
; 399  : #ifdef __cpp_char8_t
; 400  :         if constexpr (is_same_v<_Elem, char8_t>) {
; 401  : #if _HAS_U8_INTRINSICS
; 402  :             return __builtin_u8strlen(_First);
; 403  : #else // ^^^ use u8 intrinsics / no u8 intrinsics vvv
; 404  :             return _Primary_char_traits::length(_First);
; 405  : #endif // _HAS_U8_INTRINSICS
; 406  :         } else
; 407  : #endif // __cpp_char8_t
; 408  :         {
; 409  :             return __builtin_strlen(_First);
; 410  :         }
; 411  : #else // _HAS_CXX17
; 412  :         return _CSTD strlen(reinterpret_cast<const char*>(_First));

  00021	8b 45 08	 mov	 eax, DWORD PTR __First$[ebp]
  00024	50		 push	 eax
  00025	e8 00 00 00 00	 call	 _strlen
  0002a	83 c4 04	 add	 esp, 4

; 413  : #endif // _HAS_CXX17
; 414  :     }

  0002d	5f		 pop	 edi
  0002e	5e		 pop	 esi
  0002f	5b		 pop	 ebx
  00030	81 c4 c0 00 00
	00		 add	 esp, 192		; 000000c0H
  00036	3b ec		 cmp	 ebp, esp
  00038	e8 00 00 00 00	 call	 __RTC_CheckEsp
  0003d	8b e5		 mov	 esp, ebp
  0003f	5d		 pop	 ebp
  00040	c3		 ret	 0
?length@?$_Narrow_char_traits@DH@std@@SAIQBD@Z ENDP	; std::_Narrow_char_traits<char,int>::length
_TEXT	ENDS
; Function compile flags: /Odtp /RTCsu /ZI
; File C:\Program Files (x86)\Microsoft Visual Studio\2019\Community\VC\Tools\MSVC\14.29.30133\include\xstring
;	COMDAT ?move@?$_Char_traits@DH@std@@SAPADQADQBDI@Z
_TEXT	SEGMENT
__First1$ = 8						; size = 4
__First2$ = 12						; size = 4
__Count$ = 16						; size = 4
?move@?$_Char_traits@DH@std@@SAPADQADQBDI@Z PROC	; std::_Char_traits<char,int>::move, COMDAT

; 80   :         _In_reads_(_Count) const _Elem* const _First2, const size_t _Count) noexcept /* strengthened */ {

  00000	55		 push	 ebp
  00001	8b ec		 mov	 ebp, esp
  00003	81 ec c0 00 00
	00		 sub	 esp, 192		; 000000c0H
  00009	53		 push	 ebx
  0000a	56		 push	 esi
  0000b	57		 push	 edi
  0000c	8b fd		 mov	 edi, ebp
  0000e	33 c9		 xor	 ecx, ecx
  00010	b8 cc cc cc cc	 mov	 eax, -858993460		; ccccccccH
  00015	f3 ab		 rep stosd
  00017	b9 00 00 00 00	 mov	 ecx, OFFSET __0D019051_xstring
  0001c	e8 00 00 00 00	 call	 @__CheckForDebuggerJustMyCode@4

; 81   :         // copy [_First2, _First2 + _Count) to [_First1, ...), allowing overlap
; 82   : #if _HAS_MEMCPY_MEMMOVE_INTRINSICS
; 83   :         __builtin_memmove(_First1, _First2, _Count * sizeof(_Elem));
; 84   : #else // ^^^ _HAS_MEMCPY_MEMMOVE_INTRINSICS ^^^ / vvv !_HAS_MEMCPY_MEMMOVE_INTRINSICS vvv
; 85   : #ifdef __cpp_lib_is_constant_evaluated
; 86   :         if (_STD is_constant_evaluated()) {
; 87   :             // dest: [_First1, _First1 + _Count)
; 88   :             // src: [_First2, _First2 + _Count)
; 89   :             // We need to handle overlapping ranges.
; 90   :             // If _First1 is in the src range, we need a backward loop.
; 91   :             // Otherwise, the forward loop works (even if the back of dest overlaps the front of src).
; 92   : 
; 93   :             if (_First1 == _First2) {
; 94   :                 return _First1; // Self-assignment; either loop would work, but returning immediately is faster.
; 95   :             }
; 96   : 
; 97   :             // Usually, we would compare pointers with less-than, even though they could belong to different arrays.
; 98   :             // However, we're not allowed to do that during constant evaluation, so we need a linear scan for equality.
; 99   :             bool _Loop_forward = true;
; 100  : 
; 101  :             for (const _Elem* _Src = _First2; _Src != _First2 + _Count; ++_Src) {
; 102  :                 if (_First1 == _Src) {
; 103  :                     _Loop_forward = false;
; 104  :                     break;
; 105  :                 }
; 106  :             }
; 107  : 
; 108  :             if (_Loop_forward) {
; 109  :                 for (size_t _Idx = 0; _Idx < _Count; ++_Idx) {
; 110  :                     _First1[_Idx] = _First2[_Idx];
; 111  :                 }
; 112  :             } else {
; 113  :                 for (size_t _Idx = 0; _Idx < _Count; ++_Idx) {
; 114  :                     _First1[_Count - 1 - _Idx] = _First2[_Count - 1 - _Idx];
; 115  :                 }
; 116  :             }
; 117  : 
; 118  :             return _First1;
; 119  :         }
; 120  : #endif // __cpp_lib_is_constant_evaluated
; 121  : 
; 122  :         _CSTD memmove(_First1, _First2, _Count * sizeof(_Elem));

  00021	8b 45 10	 mov	 eax, DWORD PTR __Count$[ebp]
  00024	50		 push	 eax
  00025	8b 4d 0c	 mov	 ecx, DWORD PTR __First2$[ebp]
  00028	51		 push	 ecx
  00029	8b 55 08	 mov	 edx, DWORD PTR __First1$[ebp]
  0002c	52		 push	 edx
  0002d	e8 00 00 00 00	 call	 _memmove
  00032	83 c4 0c	 add	 esp, 12			; 0000000cH

; 123  : #endif // ^^^ !_HAS_MEMCPY_MEMMOVE_INTRINSICS ^^^
; 124  : 
; 125  :         return _First1;

  00035	8b 45 08	 mov	 eax, DWORD PTR __First1$[ebp]

; 126  :     }

  00038	5f		 pop	 edi
  00039	5e		 pop	 esi
  0003a	5b		 pop	 ebx
  0003b	81 c4 c0 00 00
	00		 add	 esp, 192		; 000000c0H
  00041	3b ec		 cmp	 ebp, esp
  00043	e8 00 00 00 00	 call	 __RTC_CheckEsp
  00048	8b e5		 mov	 esp, ebp
  0004a	5d		 pop	 ebp
  0004b	c3		 ret	 0
?move@?$_Char_traits@DH@std@@SAPADQADQBDI@Z ENDP	; std::_Char_traits<char,int>::move
_TEXT	ENDS
; Function compile flags: /Odtp /RTCsu /ZI
; File C:\Program Files (x86)\Microsoft Visual Studio\2019\Community\VC\Tools\MSVC\14.29.30133\include\xstring
;	COMDAT ?copy@?$_Char_traits@DH@std@@SAPADQADQBDI@Z
_TEXT	SEGMENT
__First1$ = 8						; size = 4
__First2$ = 12						; size = 4
__Count$ = 16						; size = 4
?copy@?$_Char_traits@DH@std@@SAPADQADQBDI@Z PROC	; std::_Char_traits<char,int>::copy, COMDAT

; 49   :         _In_reads_(_Count) const _Elem* const _First2, const size_t _Count) noexcept /* strengthened */ {

  00000	55		 push	 ebp
  00001	8b ec		 mov	 ebp, esp
  00003	81 ec c0 00 00
	00		 sub	 esp, 192		; 000000c0H
  00009	53		 push	 ebx
  0000a	56		 push	 esi
  0000b	57		 push	 edi
  0000c	8b fd		 mov	 edi, ebp
  0000e	33 c9		 xor	 ecx, ecx
  00010	b8 cc cc cc cc	 mov	 eax, -858993460		; ccccccccH
  00015	f3 ab		 rep stosd
  00017	b9 00 00 00 00	 mov	 ecx, OFFSET __0D019051_xstring
  0001c	e8 00 00 00 00	 call	 @__CheckForDebuggerJustMyCode@4

; 50   :         // copy [_First2, _First2 + _Count) to [_First1, ...)
; 51   : #if _HAS_MEMCPY_MEMMOVE_INTRINSICS
; 52   :         __builtin_memcpy(_First1, _First2, _Count * sizeof(_Elem));
; 53   : #else // ^^^ _HAS_MEMCPY_MEMMOVE_INTRINSICS ^^^ / vvv !_HAS_MEMCPY_MEMMOVE_INTRINSICS vvv
; 54   : #ifdef __cpp_lib_is_constant_evaluated
; 55   :         if (_STD is_constant_evaluated()) {
; 56   :             // pre: [_First1, _First1 + _Count) and [_First2, _First2 + _Count) do not overlap; see LWG-3085
; 57   :             for (size_t _Idx = 0; _Idx < _Count; ++_Idx) {
; 58   :                 _First1[_Idx] = _First2[_Idx];
; 59   :             }
; 60   : 
; 61   :             return _First1;
; 62   :         }
; 63   : #endif // __cpp_lib_is_constant_evaluated
; 64   : 
; 65   :         _CSTD memcpy(_First1, _First2, _Count * sizeof(_Elem));

  00021	8b 45 10	 mov	 eax, DWORD PTR __Count$[ebp]
  00024	50		 push	 eax
  00025	8b 4d 0c	 mov	 ecx, DWORD PTR __First2$[ebp]
  00028	51		 push	 ecx
  00029	8b 55 08	 mov	 edx, DWORD PTR __First1$[ebp]
  0002c	52		 push	 edx
  0002d	e8 00 00 00 00	 call	 _memcpy
  00032	83 c4 0c	 add	 esp, 12			; 0000000cH

; 66   : #endif // ^^^ !_HAS_MEMCPY_MEMMOVE_INTRINSICS ^^^
; 67   : 
; 68   :         return _First1;

  00035	8b 45 08	 mov	 eax, DWORD PTR __First1$[ebp]

; 69   :     }

  00038	5f		 pop	 edi
  00039	5e		 pop	 esi
  0003a	5b		 pop	 ebx
  0003b	81 c4 c0 00 00
	00		 add	 esp, 192		; 000000c0H
  00041	3b ec		 cmp	 ebp, esp
  00043	e8 00 00 00 00	 call	 __RTC_CheckEsp
  00048	8b e5		 mov	 esp, ebp
  0004a	5d		 pop	 ebp
  0004b	c3		 ret	 0
?copy@?$_Char_traits@DH@std@@SAPADQADQBDI@Z ENDP	; std::_Char_traits<char,int>::copy
_TEXT	ENDS
; Function compile flags: /Odtp /RTCsu /ZI
; File C:\Program Files (x86)\Microsoft Visual Studio\2019\Community\VC\Tools\MSVC\14.29.30133\include\xutility
;	COMDAT ??$_Construct_in_place@U_Container_proxy@std@@PAU_Container_base12@2@@std@@YAXAAU_Container_proxy@0@$$QAPAU_Container_base12@0@@Z
_TEXT	SEGMENT
$T1 = -200						; size = 4
__Obj$ = 8						; size = 4
_<_Args_0>$ = 12					; size = 4
??$_Construct_in_place@U_Container_proxy@std@@PAU_Container_base12@2@@std@@YAXAAU_Container_proxy@0@$$QAPAU_Container_base12@0@@Z PROC ; std::_Construct_in_place<std::_Container_proxy,std::_Container_base12 *>, COMDAT

; 151  :     is_nothrow_constructible_v<_Ty, _Types...>) {

  00000	55		 push	 ebp
  00001	8b ec		 mov	 ebp, esp
  00003	81 ec cc 00 00
	00		 sub	 esp, 204		; 000000ccH
  00009	53		 push	 ebx
  0000a	56		 push	 esi
  0000b	57		 push	 edi
  0000c	8d 7d f4	 lea	 edi, DWORD PTR [ebp-12]
  0000f	b9 03 00 00 00	 mov	 ecx, 3
  00014	b8 cc cc cc cc	 mov	 eax, -858993460		; ccccccccH
  00019	f3 ab		 rep stosd
  0001b	b9 00 00 00 00	 mov	 ecx, OFFSET __12269DE6_xutility
  00020	e8 00 00 00 00	 call	 @__CheckForDebuggerJustMyCode@4
  00025	8b 45 08	 mov	 eax, DWORD PTR __Obj$[ebp]
  00028	50		 push	 eax
  00029	e8 00 00 00 00	 call	 ??$addressof@U_Container_proxy@std@@@std@@YAPAU_Container_proxy@0@AAU10@@Z ; std::addressof<std::_Container_proxy>
  0002e	83 c4 04	 add	 esp, 4
  00031	50		 push	 eax
  00032	e8 00 00 00 00	 call	 ??$_Voidify_iter@PAU_Container_proxy@std@@@std@@YAPAXPAU_Container_proxy@0@@Z ; std::_Voidify_iter<std::_Container_proxy *>
  00037	83 c4 04	 add	 esp, 4
  0003a	50		 push	 eax
  0003b	6a 08		 push	 8
  0003d	e8 00 00 00 00	 call	 ??2@YAPAXIPAX@Z		; operator new
  00042	83 c4 08	 add	 esp, 8
  00045	89 85 38 ff ff
	ff		 mov	 DWORD PTR $T1[ebp], eax
  0004b	8b 4d 0c	 mov	 ecx, DWORD PTR _<_Args_0>$[ebp]
  0004e	51		 push	 ecx
  0004f	e8 00 00 00 00	 call	 ??$forward@PAU_Container_base12@std@@@std@@YA$$QAPAU_Container_base12@0@AAPAU10@@Z ; std::forward<std::_Container_base12 *>
  00054	83 c4 04	 add	 esp, 4
  00057	8b 10		 mov	 edx, DWORD PTR [eax]
  00059	52		 push	 edx
  0005a	8b 8d 38 ff ff
	ff		 mov	 ecx, DWORD PTR $T1[ebp]
  00060	e8 00 00 00 00	 call	 ??0_Container_proxy@std@@QAE@PAU_Container_base12@1@@Z ; std::_Container_proxy::_Container_proxy

; 152  : #ifdef __cpp_lib_constexpr_dynamic_alloc
; 153  :     if (_STD is_constant_evaluated()) {
; 154  :         _STD construct_at(_STD addressof(_Obj), _STD forward<_Types>(_Args)...);
; 155  :     } else
; 156  : #endif // __cpp_lib_constexpr_dynamic_alloc
; 157  :     {
; 158  :         ::new (_Voidify_iter(_STD addressof(_Obj))) _Ty(_STD forward<_Types>(_Args)...);
; 159  :     }
; 160  : }

  00065	5f		 pop	 edi
  00066	5e		 pop	 esi
  00067	5b		 pop	 ebx
  00068	81 c4 cc 00 00
	00		 add	 esp, 204		; 000000ccH
  0006e	3b ec		 cmp	 ebp, esp
  00070	e8 00 00 00 00	 call	 __RTC_CheckEsp
  00075	8b e5		 mov	 esp, ebp
  00077	5d		 pop	 ebp
  00078	c3		 ret	 0
??$_Construct_in_place@U_Container_proxy@std@@PAU_Container_base12@2@@std@@YAXAAU_Container_proxy@0@$$QAPAU_Container_base12@0@@Z ENDP ; std::_Construct_in_place<std::_Container_proxy,std::_Container_base12 *>
_TEXT	ENDS
; Function compile flags: /Odtp /RTCsu /ZI
; File C:\Program Files (x86)\Microsoft Visual Studio\2019\Community\VC\Tools\MSVC\14.29.30133\include\xstddef
;	COMDAT ??$addressof@U_Container_base12@std@@@std@@YAPAU_Container_base12@0@AAU10@@Z
_TEXT	SEGMENT
__Val$ = 8						; size = 4
??$addressof@U_Container_base12@std@@@std@@YAPAU_Container_base12@0@AAU10@@Z PROC ; std::addressof<std::_Container_base12>, COMDAT

; 274  : _NODISCARD constexpr _Ty* addressof(_Ty& _Val) noexcept {

  00000	55		 push	 ebp
  00001	8b ec		 mov	 ebp, esp
  00003	81 ec c0 00 00
	00		 sub	 esp, 192		; 000000c0H
  00009	53		 push	 ebx
  0000a	56		 push	 esi
  0000b	57		 push	 edi
  0000c	8b fd		 mov	 edi, ebp
  0000e	33 c9		 xor	 ecx, ecx
  00010	b8 cc cc cc cc	 mov	 eax, -858993460		; ccccccccH
  00015	f3 ab		 rep stosd
  00017	b9 00 00 00 00	 mov	 ecx, OFFSET __E458E21C_xstddef
  0001c	e8 00 00 00 00	 call	 @__CheckForDebuggerJustMyCode@4

; 275  :     return __builtin_addressof(_Val);

  00021	8b 45 08	 mov	 eax, DWORD PTR __Val$[ebp]

; 276  : }

  00024	5f		 pop	 edi
  00025	5e		 pop	 esi
  00026	5b		 pop	 ebx
  00027	81 c4 c0 00 00
	00		 add	 esp, 192		; 000000c0H
  0002d	3b ec		 cmp	 ebp, esp
  0002f	e8 00 00 00 00	 call	 __RTC_CheckEsp
  00034	8b e5		 mov	 esp, ebp
  00036	5d		 pop	 ebp
  00037	c3		 ret	 0
??$addressof@U_Container_base12@std@@@std@@YAPAU_Container_base12@0@AAU10@@Z ENDP ; std::addressof<std::_Container_base12>
_TEXT	ENDS
; Function compile flags: /Odtp /RTCsu /ZI
; File C:\Program Files (x86)\Microsoft Visual Studio\2019\Community\VC\Tools\MSVC\14.29.30133\include\xmemory
;	COMDAT ??0_Basic_container_proxy_ptr12@std@@IAE@XZ
_TEXT	SEGMENT
_this$ = -8						; size = 4
??0_Basic_container_proxy_ptr12@std@@IAE@XZ PROC	; std::_Basic_container_proxy_ptr12::_Basic_container_proxy_ptr12, COMDAT
; _this$ = ecx

; 1303 :     _CONSTEXPR20_CONTAINER _Basic_container_proxy_ptr12()             = default;

  00000	55		 push	 ebp
  00001	8b ec		 mov	 ebp, esp
  00003	81 ec cc 00 00
	00		 sub	 esp, 204		; 000000ccH
  00009	53		 push	 ebx
  0000a	56		 push	 esi
  0000b	57		 push	 edi
  0000c	51		 push	 ecx
  0000d	8d 7d f4	 lea	 edi, DWORD PTR [ebp-12]
  00010	b9 03 00 00 00	 mov	 ecx, 3
  00015	b8 cc cc cc cc	 mov	 eax, -858993460		; ccccccccH
  0001a	f3 ab		 rep stosd
  0001c	59		 pop	 ecx
  0001d	89 4d f8	 mov	 DWORD PTR _this$[ebp], ecx
  00020	b9 00 00 00 00	 mov	 ecx, OFFSET __79D216CD_xmemory
  00025	e8 00 00 00 00	 call	 @__CheckForDebuggerJustMyCode@4

; 1296 :     _Container_proxy* _Ptr = nullptr;

  0002a	8b 45 f8	 mov	 eax, DWORD PTR _this$[ebp]
  0002d	c7 00 00 00 00
	00		 mov	 DWORD PTR [eax], 0

; 1303 :     _CONSTEXPR20_CONTAINER _Basic_container_proxy_ptr12()             = default;

  00033	8b 45 f8	 mov	 eax, DWORD PTR _this$[ebp]
  00036	5f		 pop	 edi
  00037	5e		 pop	 esi
  00038	5b		 pop	 ebx
  00039	81 c4 cc 00 00
	00		 add	 esp, 204		; 000000ccH
  0003f	3b ec		 cmp	 ebp, esp
  00041	e8 00 00 00 00	 call	 __RTC_CheckEsp
  00046	8b e5		 mov	 esp, ebp
  00048	5d		 pop	 ebp
  00049	c3		 ret	 0
??0_Basic_container_proxy_ptr12@std@@IAE@XZ ENDP	; std::_Basic_container_proxy_ptr12::_Basic_container_proxy_ptr12
_TEXT	ENDS
; Function compile flags: /Odtp /RTCsu /ZI
; File C:\Program Files (x86)\Microsoft Visual Studio\2019\Community\VC\Tools\MSVC\14.29.30133\include\xmemory
;	COMDAT ?_Release@_Basic_container_proxy_ptr12@std@@QAEXXZ
_TEXT	SEGMENT
_this$ = -8						; size = 4
?_Release@_Basic_container_proxy_ptr12@std@@QAEXXZ PROC	; std::_Basic_container_proxy_ptr12::_Release, COMDAT
; _this$ = ecx

; 1298 :     constexpr void _Release() noexcept { // disengage this _Basic_container_proxy_ptr12

  00000	55		 push	 ebp
  00001	8b ec		 mov	 ebp, esp
  00003	81 ec cc 00 00
	00		 sub	 esp, 204		; 000000ccH
  00009	53		 push	 ebx
  0000a	56		 push	 esi
  0000b	57		 push	 edi
  0000c	51		 push	 ecx
  0000d	8d 7d f4	 lea	 edi, DWORD PTR [ebp-12]
  00010	b9 03 00 00 00	 mov	 ecx, 3
  00015	b8 cc cc cc cc	 mov	 eax, -858993460		; ccccccccH
  0001a	f3 ab		 rep stosd
  0001c	59		 pop	 ecx
  0001d	89 4d f8	 mov	 DWORD PTR _this$[ebp], ecx
  00020	b9 00 00 00 00	 mov	 ecx, OFFSET __79D216CD_xmemory
  00025	e8 00 00 00 00	 call	 @__CheckForDebuggerJustMyCode@4

; 1299 :         _Ptr = nullptr;

  0002a	8b 45 f8	 mov	 eax, DWORD PTR _this$[ebp]
  0002d	c7 00 00 00 00
	00		 mov	 DWORD PTR [eax], 0

; 1300 :     }

  00033	5f		 pop	 edi
  00034	5e		 pop	 esi
  00035	5b		 pop	 ebx
  00036	81 c4 cc 00 00
	00		 add	 esp, 204		; 000000ccH
  0003c	3b ec		 cmp	 ebp, esp
  0003e	e8 00 00 00 00	 call	 __RTC_CheckEsp
  00043	8b e5		 mov	 esp, ebp
  00045	5d		 pop	 ebp
  00046	c3		 ret	 0
?_Release@_Basic_container_proxy_ptr12@std@@QAEXXZ ENDP	; std::_Basic_container_proxy_ptr12::_Release
_TEXT	ENDS
; Function compile flags: /Odtp /RTCsu /ZI
; File C:\Program Files (x86)\Microsoft Visual Studio\2019\Community\VC\Tools\MSVC\14.29.30133\include\xmemory
;	COMDAT ?_Orphan_all_locked@_Container_base12@std@@AAEXXZ
_TEXT	SEGMENT
__Lock$ = -24						; size = 4
_this$ = -12						; size = 4
__$ArrayPad$ = -4					; size = 4
?_Orphan_all_locked@_Container_base12@std@@AAEXXZ PROC	; std::_Container_base12::_Orphan_all_locked, COMDAT
; _this$ = ecx

; 1095 :     void _Orphan_all_locked() noexcept {

  00000	55		 push	 ebp
  00001	8b ec		 mov	 ebp, esp
  00003	81 ec dc 00 00
	00		 sub	 esp, 220		; 000000dcH
  00009	53		 push	 ebx
  0000a	56		 push	 esi
  0000b	57		 push	 edi
  0000c	51		 push	 ecx
  0000d	8d 7d e4	 lea	 edi, DWORD PTR [ebp-28]
  00010	b9 07 00 00 00	 mov	 ecx, 7
  00015	b8 cc cc cc cc	 mov	 eax, -858993460		; ccccccccH
  0001a	f3 ab		 rep stosd
  0001c	59		 pop	 ecx
  0001d	a1 00 00 00 00	 mov	 eax, DWORD PTR ___security_cookie
  00022	33 c5		 xor	 eax, ebp
  00024	89 45 fc	 mov	 DWORD PTR __$ArrayPad$[ebp], eax
  00027	89 4d f4	 mov	 DWORD PTR _this$[ebp], ecx
  0002a	b9 00 00 00 00	 mov	 ecx, OFFSET __79D216CD_xmemory
  0002f	e8 00 00 00 00	 call	 @__CheckForDebuggerJustMyCode@4

; 1096 :         _Lockit _Lock(_LOCK_DEBUG);

  00034	8b f4		 mov	 esi, esp
  00036	6a 03		 push	 3
  00038	8d 4d e8	 lea	 ecx, DWORD PTR __Lock$[ebp]
  0003b	ff 15 00 00 00
	00		 call	 DWORD PTR __imp_??0_Lockit@std@@QAE@H@Z
  00041	3b f4		 cmp	 esi, esp
  00043	e8 00 00 00 00	 call	 __RTC_CheckEsp

; 1097 :         _Orphan_all_unlocked();

  00048	8b 4d f4	 mov	 ecx, DWORD PTR _this$[ebp]
  0004b	e8 00 00 00 00	 call	 ?_Orphan_all_unlocked@_Container_base12@std@@AAEXXZ ; std::_Container_base12::_Orphan_all_unlocked

; 1098 :     }

  00050	8b f4		 mov	 esi, esp
  00052	8d 4d e8	 lea	 ecx, DWORD PTR __Lock$[ebp]
  00055	ff 15 00 00 00
	00		 call	 DWORD PTR __imp_??1_Lockit@std@@QAE@XZ
  0005b	3b f4		 cmp	 esi, esp
  0005d	e8 00 00 00 00	 call	 __RTC_CheckEsp
  00062	52		 push	 edx
  00063	8b cd		 mov	 ecx, ebp
  00065	50		 push	 eax
  00066	8d 15 00 00 00
	00		 lea	 edx, DWORD PTR $LN5@Orphan_all
  0006c	e8 00 00 00 00	 call	 @_RTC_CheckStackVars@8
  00071	58		 pop	 eax
  00072	5a		 pop	 edx
  00073	5f		 pop	 edi
  00074	5e		 pop	 esi
  00075	5b		 pop	 ebx
  00076	8b 4d fc	 mov	 ecx, DWORD PTR __$ArrayPad$[ebp]
  00079	33 cd		 xor	 ecx, ebp
  0007b	e8 00 00 00 00	 call	 @__security_check_cookie@4
  00080	81 c4 dc 00 00
	00		 add	 esp, 220		; 000000dcH
  00086	3b ec		 cmp	 ebp, esp
  00088	e8 00 00 00 00	 call	 __RTC_CheckEsp
  0008d	8b e5		 mov	 esp, ebp
  0008f	5d		 pop	 ebp
  00090	c3		 ret	 0
  00091	0f 1f 00	 npad	 3
$LN5@Orphan_all:
  00094	01 00 00 00	 DD	 1
  00098	00 00 00 00	 DD	 $LN4@Orphan_all
$LN4@Orphan_all:
  0009c	e8 ff ff ff	 DD	 -24			; ffffffe8H
  000a0	04 00 00 00	 DD	 4
  000a4	00 00 00 00	 DD	 $LN3@Orphan_all
$LN3@Orphan_all:
  000a8	5f		 DB	 95			; 0000005fH
  000a9	4c		 DB	 76			; 0000004cH
  000aa	6f		 DB	 111			; 0000006fH
  000ab	63		 DB	 99			; 00000063H
  000ac	6b		 DB	 107			; 0000006bH
  000ad	00		 DB	 0
?_Orphan_all_locked@_Container_base12@std@@AAEXXZ ENDP	; std::_Container_base12::_Orphan_all_locked
_TEXT	ENDS
; Function compile flags: /Odtp /RTCsu /ZI
; File C:\Program Files (x86)\Microsoft Visual Studio\2019\Community\VC\Tools\MSVC\14.29.30133\include\xmemory
;	COMDAT ?_Orphan_all_unlocked@_Container_base12@std@@AAEXXZ
_TEXT	SEGMENT
__Pnext$1 = -20						; size = 4
_this$ = -8						; size = 4
?_Orphan_all_unlocked@_Container_base12@std@@AAEXXZ PROC ; std::_Container_base12::_Orphan_all_unlocked, COMDAT
; _this$ = ecx

; 1220 : _CONSTEXPR20_CONTAINER void _Container_base12::_Orphan_all_unlocked() noexcept {

  00000	55		 push	 ebp
  00001	8b ec		 mov	 ebp, esp
  00003	81 ec d8 00 00
	00		 sub	 esp, 216		; 000000d8H
  00009	53		 push	 ebx
  0000a	56		 push	 esi
  0000b	57		 push	 edi
  0000c	51		 push	 ecx
  0000d	8d 7d e8	 lea	 edi, DWORD PTR [ebp-24]
  00010	b9 06 00 00 00	 mov	 ecx, 6
  00015	b8 cc cc cc cc	 mov	 eax, -858993460		; ccccccccH
  0001a	f3 ab		 rep stosd
  0001c	59		 pop	 ecx
  0001d	89 4d f8	 mov	 DWORD PTR _this$[ebp], ecx
  00020	b9 00 00 00 00	 mov	 ecx, OFFSET __79D216CD_xmemory
  00025	e8 00 00 00 00	 call	 @__CheckForDebuggerJustMyCode@4

; 1221 :     for (auto& _Pnext = _Myproxy->_Myfirstiter; _Pnext; _Pnext = _Pnext->_Mynextiter) { // TRANSITION, VSO-1269037

  0002a	8b 45 f8	 mov	 eax, DWORD PTR _this$[ebp]
  0002d	8b 08		 mov	 ecx, DWORD PTR [eax]
  0002f	83 c1 04	 add	 ecx, 4
  00032	89 4d ec	 mov	 DWORD PTR __Pnext$1[ebp], ecx
  00035	eb 0d		 jmp	 SHORT $LN4@Orphan_all
$LN2@Orphan_all:
  00037	8b 45 ec	 mov	 eax, DWORD PTR __Pnext$1[ebp]
  0003a	8b 08		 mov	 ecx, DWORD PTR [eax]
  0003c	8b 55 ec	 mov	 edx, DWORD PTR __Pnext$1[ebp]
  0003f	8b 41 04	 mov	 eax, DWORD PTR [ecx+4]
  00042	89 02		 mov	 DWORD PTR [edx], eax
$LN4@Orphan_all:
  00044	8b 45 ec	 mov	 eax, DWORD PTR __Pnext$1[ebp]
  00047	83 38 00	 cmp	 DWORD PTR [eax], 0
  0004a	74 0d		 je	 SHORT $LN3@Orphan_all

; 1222 :         _Pnext->_Myproxy = nullptr;

  0004c	8b 45 ec	 mov	 eax, DWORD PTR __Pnext$1[ebp]
  0004f	8b 08		 mov	 ecx, DWORD PTR [eax]
  00051	c7 01 00 00 00
	00		 mov	 DWORD PTR [ecx], 0

; 1223 :     }

  00057	eb de		 jmp	 SHORT $LN2@Orphan_all
$LN3@Orphan_all:

; 1224 :     _Myproxy->_Myfirstiter = nullptr;

  00059	8b 45 f8	 mov	 eax, DWORD PTR _this$[ebp]
  0005c	8b 08		 mov	 ecx, DWORD PTR [eax]
  0005e	c7 41 04 00 00
	00 00		 mov	 DWORD PTR [ecx+4], 0

; 1225 : }

  00065	5f		 pop	 edi
  00066	5e		 pop	 esi
  00067	5b		 pop	 ebx
  00068	81 c4 d8 00 00
	00		 add	 esp, 216		; 000000d8H
  0006e	3b ec		 cmp	 ebp, esp
  00070	e8 00 00 00 00	 call	 __RTC_CheckEsp
  00075	8b e5		 mov	 esp, ebp
  00077	5d		 pop	 ebp
  00078	c3		 ret	 0
?_Orphan_all_unlocked@_Container_base12@std@@AAEXXZ ENDP ; std::_Container_base12::_Orphan_all_unlocked
_TEXT	ENDS
; Function compile flags: /Odtp /RTCsu /ZI
; File C:\Program Files (x86)\Microsoft Visual Studio\2019\Community\VC\Tools\MSVC\14.29.30133\include\xmemory
;	COMDAT ?_Orphan_all@_Container_base12@std@@QAEXXZ
_TEXT	SEGMENT
_this$ = -8						; size = 4
?_Orphan_all@_Container_base12@std@@QAEXXZ PROC		; std::_Container_base12::_Orphan_all, COMDAT
; _this$ = ecx

; 1227 : _CONSTEXPR20_CONTAINER void _Container_base12::_Orphan_all() noexcept {

  00000	55		 push	 ebp
  00001	8b ec		 mov	 ebp, esp
  00003	81 ec cc 00 00
	00		 sub	 esp, 204		; 000000ccH
  00009	53		 push	 ebx
  0000a	56		 push	 esi
  0000b	57		 push	 edi
  0000c	51		 push	 ecx
  0000d	8d 7d f4	 lea	 edi, DWORD PTR [ebp-12]
  00010	b9 03 00 00 00	 mov	 ecx, 3
  00015	b8 cc cc cc cc	 mov	 eax, -858993460		; ccccccccH
  0001a	f3 ab		 rep stosd
  0001c	59		 pop	 ecx
  0001d	89 4d f8	 mov	 DWORD PTR _this$[ebp], ecx
  00020	b9 00 00 00 00	 mov	 ecx, OFFSET __79D216CD_xmemory
  00025	e8 00 00 00 00	 call	 @__CheckForDebuggerJustMyCode@4

; 1228 : #if _ITERATOR_DEBUG_LEVEL == 2
; 1229 :     if (_Myproxy) { // proxy allocated, drain it

  0002a	8b 45 f8	 mov	 eax, DWORD PTR _this$[ebp]
  0002d	83 38 00	 cmp	 DWORD PTR [eax], 0
  00030	74 08		 je	 SHORT $LN3@Orphan_all

; 1230 : #ifdef __cpp_lib_constexpr_dynamic_alloc
; 1231 :         if (_STD is_constant_evaluated()) {
; 1232 :             _Orphan_all_unlocked();
; 1233 :         } else
; 1234 : #endif // __cpp_lib_constexpr_dynamic_alloc
; 1235 :         {
; 1236 :             _Orphan_all_locked();

  00032	8b 4d f8	 mov	 ecx, DWORD PTR _this$[ebp]
  00035	e8 00 00 00 00	 call	 ?_Orphan_all_locked@_Container_base12@std@@AAEXXZ ; std::_Container_base12::_Orphan_all_locked
$LN3@Orphan_all:

; 1237 :         }
; 1238 :     }
; 1239 : #endif // _ITERATOR_DEBUG_LEVEL == 2
; 1240 : }

  0003a	5f		 pop	 edi
  0003b	5e		 pop	 esi
  0003c	5b		 pop	 ebx
  0003d	81 c4 cc 00 00
	00		 add	 esp, 204		; 000000ccH
  00043	3b ec		 cmp	 ebp, esp
  00045	e8 00 00 00 00	 call	 __RTC_CheckEsp
  0004a	8b e5		 mov	 esp, ebp
  0004c	5d		 pop	 ebp
  0004d	c3		 ret	 0
?_Orphan_all@_Container_base12@std@@QAEXXZ ENDP		; std::_Container_base12::_Orphan_all
_TEXT	ENDS
; Function compile flags: /Odtp /RTCsu /ZI
; File C:\Program Files (x86)\Microsoft Visual Studio\2019\Community\VC\Tools\MSVC\14.29.30133\include\xmemory
;	COMDAT ??0_Container_base12@std@@QAE@XZ
_TEXT	SEGMENT
_this$ = -8						; size = 4
??0_Container_base12@std@@QAE@XZ PROC			; std::_Container_base12::_Container_base12, COMDAT
; _this$ = ecx

; 1064 :     _CONSTEXPR20_CONTAINER _Container_base12() noexcept = default;

  00000	55		 push	 ebp
  00001	8b ec		 mov	 ebp, esp
  00003	81 ec cc 00 00
	00		 sub	 esp, 204		; 000000ccH
  00009	53		 push	 ebx
  0000a	56		 push	 esi
  0000b	57		 push	 edi
  0000c	51		 push	 ecx
  0000d	8d 7d f4	 lea	 edi, DWORD PTR [ebp-12]
  00010	b9 03 00 00 00	 mov	 ecx, 3
  00015	b8 cc cc cc cc	 mov	 eax, -858993460		; ccccccccH
  0001a	f3 ab		 rep stosd
  0001c	59		 pop	 ecx
  0001d	89 4d f8	 mov	 DWORD PTR _this$[ebp], ecx
  00020	b9 00 00 00 00	 mov	 ecx, OFFSET __79D216CD_xmemory
  00025	e8 00 00 00 00	 call	 @__CheckForDebuggerJustMyCode@4

; 1065 : 
; 1066 :     _Container_base12(const _Container_base12&) = delete;
; 1067 :     _Container_base12& operator=(const _Container_base12&) = delete;
; 1068 : 
; 1069 :     _CONSTEXPR20_CONTAINER void _Orphan_all() noexcept;
; 1070 :     _CONSTEXPR20_CONTAINER void _Swap_proxy_and_iterators(_Container_base12&) noexcept;
; 1071 : 
; 1072 :     template <class _Alloc>
; 1073 :     _CONSTEXPR20_CONTAINER void _Alloc_proxy(_Alloc&& _Al) {
; 1074 :         _Container_proxy* const _New_proxy = _Unfancy(_Al.allocate(1));
; 1075 :         _Construct_in_place(*_New_proxy, this);
; 1076 :         _Myproxy            = _New_proxy;
; 1077 :         _New_proxy->_Mycont = this;
; 1078 :     }
; 1079 : 
; 1080 :     template <class _Alloc>
; 1081 :     _CONSTEXPR20_CONTAINER void _Reload_proxy(_Alloc&& _Old_alloc, _Alloc&& _New_alloc) {
; 1082 :         // pre: no iterators refer to the existing proxy
; 1083 :         _Container_proxy* const _New_proxy = _Unfancy(_New_alloc.allocate(1));
; 1084 :         _Construct_in_place(*_New_proxy, this);
; 1085 :         _New_proxy->_Mycont = this;
; 1086 :         _Delete_plain_internal(_Old_alloc, _STD exchange(_Myproxy, _New_proxy));
; 1087 :     }
; 1088 : 
; 1089 :     _Container_proxy* _Myproxy = nullptr;

  0002a	8b 45 f8	 mov	 eax, DWORD PTR _this$[ebp]
  0002d	c7 00 00 00 00
	00		 mov	 DWORD PTR [eax], 0

; 1064 :     _CONSTEXPR20_CONTAINER _Container_base12() noexcept = default;

  00033	8b 45 f8	 mov	 eax, DWORD PTR _this$[ebp]
  00036	5f		 pop	 edi
  00037	5e		 pop	 esi
  00038	5b		 pop	 ebx
  00039	81 c4 cc 00 00
	00		 add	 esp, 204		; 000000ccH
  0003f	3b ec		 cmp	 ebp, esp
  00041	e8 00 00 00 00	 call	 __RTC_CheckEsp
  00046	8b e5		 mov	 esp, ebp
  00048	5d		 pop	 ebp
  00049	c3		 ret	 0
??0_Container_base12@std@@QAE@XZ ENDP			; std::_Container_base12::_Container_base12
_TEXT	ENDS
; Function compile flags: /Odtp /RTCsu /ZI
; File C:\Program Files (x86)\Microsoft Visual Studio\2019\Community\VC\Tools\MSVC\14.29.30133\include\xmemory
;	COMDAT ??0_Container_proxy@std@@QAE@PAU_Container_base12@1@@Z
_TEXT	SEGMENT
_this$ = -8						; size = 4
__Mycont_$ = 8						; size = 4
??0_Container_proxy@std@@QAE@PAU_Container_base12@1@@Z PROC ; std::_Container_proxy::_Container_proxy, COMDAT
; _this$ = ecx

; 1056 :     _CONSTEXPR20_CONTAINER _Container_proxy(_Container_base12* _Mycont_) noexcept : _Mycont(_Mycont_) {}

  00000	55		 push	 ebp
  00001	8b ec		 mov	 ebp, esp
  00003	81 ec cc 00 00
	00		 sub	 esp, 204		; 000000ccH
  00009	53		 push	 ebx
  0000a	56		 push	 esi
  0000b	57		 push	 edi
  0000c	51		 push	 ecx
  0000d	8d 7d f4	 lea	 edi, DWORD PTR [ebp-12]
  00010	b9 03 00 00 00	 mov	 ecx, 3
  00015	b8 cc cc cc cc	 mov	 eax, -858993460		; ccccccccH
  0001a	f3 ab		 rep stosd
  0001c	59		 pop	 ecx
  0001d	89 4d f8	 mov	 DWORD PTR _this$[ebp], ecx
  00020	b9 00 00 00 00	 mov	 ecx, OFFSET __79D216CD_xmemory
  00025	e8 00 00 00 00	 call	 @__CheckForDebuggerJustMyCode@4
  0002a	8b 45 f8	 mov	 eax, DWORD PTR _this$[ebp]
  0002d	8b 4d 08	 mov	 ecx, DWORD PTR __Mycont_$[ebp]
  00030	89 08		 mov	 DWORD PTR [eax], ecx

; 1057 : 
; 1058 :     const _Container_base12* _Mycont       = nullptr;
; 1059 :     mutable _Iterator_base12* _Myfirstiter = nullptr;

  00032	8b 45 f8	 mov	 eax, DWORD PTR _this$[ebp]
  00035	c7 40 04 00 00
	00 00		 mov	 DWORD PTR [eax+4], 0

; 1056 :     _CONSTEXPR20_CONTAINER _Container_proxy(_Container_base12* _Mycont_) noexcept : _Mycont(_Mycont_) {}

  0003c	8b 45 f8	 mov	 eax, DWORD PTR _this$[ebp]
  0003f	5f		 pop	 edi
  00040	5e		 pop	 esi
  00041	5b		 pop	 ebx
  00042	81 c4 cc 00 00
	00		 add	 esp, 204		; 000000ccH
  00048	3b ec		 cmp	 ebp, esp
  0004a	e8 00 00 00 00	 call	 __RTC_CheckEsp
  0004f	8b e5		 mov	 esp, ebp
  00051	5d		 pop	 ebp
  00052	c2 04 00	 ret	 4
??0_Container_proxy@std@@QAE@PAU_Container_base12@1@@Z ENDP ; std::_Container_proxy::_Container_proxy
_TEXT	ENDS
; Function compile flags: /Odtp /RTCsu /ZI
; File C:\Program Files (x86)\Microsoft Visual Studio\2019\Community\VC\Tools\MSVC\14.29.30133\include\xmemory
;	COMDAT ??$_Convert_size@I@std@@YAII@Z
_TEXT	SEGMENT
__Len$ = 8						; size = 4
??$_Convert_size@I@std@@YAII@Z PROC			; std::_Convert_size<unsigned int>, COMDAT

; 978  : _NODISCARD constexpr size_t _Convert_size<size_t>(const size_t _Len) noexcept {

  00000	55		 push	 ebp
  00001	8b ec		 mov	 ebp, esp
  00003	81 ec c0 00 00
	00		 sub	 esp, 192		; 000000c0H
  00009	53		 push	 ebx
  0000a	56		 push	 esi
  0000b	57		 push	 edi
  0000c	8b fd		 mov	 edi, ebp
  0000e	33 c9		 xor	 ecx, ecx
  00010	b8 cc cc cc cc	 mov	 eax, -858993460		; ccccccccH
  00015	f3 ab		 rep stosd
  00017	b9 00 00 00 00	 mov	 ecx, OFFSET __79D216CD_xmemory
  0001c	e8 00 00 00 00	 call	 @__CheckForDebuggerJustMyCode@4

; 979  :     // convert size_t to size_t, unchanged
; 980  :     return _Len;

  00021	8b 45 08	 mov	 eax, DWORD PTR __Len$[ebp]

; 981  : }

  00024	5f		 pop	 edi
  00025	5e		 pop	 esi
  00026	5b		 pop	 ebx
  00027	81 c4 c0 00 00
	00		 add	 esp, 192		; 000000c0H
  0002d	3b ec		 cmp	 ebp, esp
  0002f	e8 00 00 00 00	 call	 __RTC_CheckEsp
  00034	8b e5		 mov	 esp, ebp
  00036	5d		 pop	 ebp
  00037	c3		 ret	 0
??$_Convert_size@I@std@@YAII@Z ENDP			; std::_Convert_size<unsigned int>
_TEXT	ENDS
; Function compile flags: /Odtp /RTCsu /ZI
; File C:\Program Files (x86)\Microsoft Visual Studio\2019\Community\VC\Tools\MSVC\14.29.30133\include\xmemory
;	COMDAT ?_Adjust_manually_vector_aligned@std@@YAXAAPAXAAI@Z
_TEXT	SEGMENT
__Back_shift$ = -44					; size = 4
__Min_back_shift$ = -32					; size = 4
__Ptr_container$ = -20					; size = 4
__Ptr_user$ = -8					; size = 4
__Ptr$ = 8						; size = 4
__Bytes$ = 12						; size = 4
?_Adjust_manually_vector_aligned@std@@YAXAAPAXAAI@Z PROC ; std::_Adjust_manually_vector_aligned, COMDAT

; 153  : inline void _Adjust_manually_vector_aligned(void*& _Ptr, size_t& _Bytes) {

  00000	55		 push	 ebp
  00001	8b ec		 mov	 ebp, esp
  00003	81 ec f0 00 00
	00		 sub	 esp, 240		; 000000f0H
  00009	53		 push	 ebx
  0000a	56		 push	 esi
  0000b	57		 push	 edi
  0000c	8d 7d d0	 lea	 edi, DWORD PTR [ebp-48]
  0000f	b9 0c 00 00 00	 mov	 ecx, 12			; 0000000cH
  00014	b8 cc cc cc cc	 mov	 eax, -858993460		; ccccccccH
  00019	f3 ab		 rep stosd
  0001b	b9 00 00 00 00	 mov	 ecx, OFFSET __79D216CD_xmemory
  00020	e8 00 00 00 00	 call	 @__CheckForDebuggerJustMyCode@4

; 154  :     // adjust parameters from _Allocate_manually_vector_aligned to pass to operator delete
; 155  :     _Bytes += _Non_user_size;

  00025	8b 45 0c	 mov	 eax, DWORD PTR __Bytes$[ebp]
  00028	8b 08		 mov	 ecx, DWORD PTR [eax]
  0002a	83 c1 27	 add	 ecx, 39			; 00000027H
  0002d	8b 55 0c	 mov	 edx, DWORD PTR __Bytes$[ebp]
  00030	89 0a		 mov	 DWORD PTR [edx], ecx

; 156  : 
; 157  :     const uintptr_t* const _Ptr_user = reinterpret_cast<uintptr_t*>(_Ptr);

  00032	8b 45 08	 mov	 eax, DWORD PTR __Ptr$[ebp]
  00035	8b 08		 mov	 ecx, DWORD PTR [eax]
  00037	89 4d f8	 mov	 DWORD PTR __Ptr_user$[ebp], ecx

; 158  :     const uintptr_t _Ptr_container   = _Ptr_user[-1];

  0003a	b8 04 00 00 00	 mov	 eax, 4
  0003f	6b c8 ff	 imul	 ecx, eax, -1
  00042	8b 55 f8	 mov	 edx, DWORD PTR __Ptr_user$[ebp]
  00045	8b 04 0a	 mov	 eax, DWORD PTR [edx+ecx]
  00048	89 45 ec	 mov	 DWORD PTR __Ptr_container$[ebp], eax
$LN4@Adjust_man:

; 159  : 
; 160  :     // If the following asserts, it likely means that we are performing
; 161  :     // an aligned delete on memory coming from an unaligned allocation.
; 162  :     _STL_ASSERT(_Ptr_user[-2] == _Big_allocation_sentinel, "invalid argument");

  0004b	b8 04 00 00 00	 mov	 eax, 4
  00050	6b c8 fe	 imul	 ecx, eax, -2
  00053	8b 55 f8	 mov	 edx, DWORD PTR __Ptr_user$[ebp]
  00056	81 3c 0a fa fa
	fa fa		 cmp	 DWORD PTR [edx+ecx], -84215046 ; fafafafaH
  0005d	75 02		 jne	 SHORT $LN7@Adjust_man
  0005f	eb 64		 jmp	 SHORT $LN2@Adjust_man
$LN7@Adjust_man:
  00061	8b f4		 mov	 esi, esp
  00063	68 00 00 00 00	 push	 OFFSET ??_C@_0BB@FCMFBGOM@invalid?5argument@
  00068	68 00 00 00 00	 push	 OFFSET ??_C@_02DKCKIIND@?$CFs@
  0006d	6a 00		 push	 0
  0006f	a1 00 00 00 00	 mov	 eax, DWORD PTR ?__LINE__Var@?0??_Adjust_manually_vector_aligned@std@@YAXAAPAXAAI@Z@4JA
  00074	83 c0 09	 add	 eax, 9
  00077	50		 push	 eax
  00078	68 00 00 00 00	 push	 OFFSET ??_C@_0GI@MNEMJBML@C?3?2Program?5Files?5?$CIx86?$CJ?2Microsof@
  0007d	6a 02		 push	 2
  0007f	ff 15 00 00 00
	00		 call	 DWORD PTR __imp___CrtDbgReport
  00085	83 c4 18	 add	 esp, 24			; 00000018H
  00088	3b f4		 cmp	 esi, esp
  0008a	e8 00 00 00 00	 call	 __RTC_CheckEsp
  0008f	83 f8 01	 cmp	 eax, 1
  00092	75 01		 jne	 SHORT $LN19@Adjust_man
  00094	cc		 int	 3
$LN19@Adjust_man:
  00095	8b f4		 mov	 esi, esp
  00097	6a 00		 push	 0
  00099	a1 00 00 00 00	 mov	 eax, DWORD PTR ?__LINE__Var@?0??_Adjust_manually_vector_aligned@std@@YAXAAPAXAAI@Z@4JA
  0009e	83 c0 09	 add	 eax, 9
  000a1	50		 push	 eax
  000a2	68 00 00 00 00	 push	 OFFSET ??_C@_1NA@MJBOBEJL@?$AAC?$AA?3?$AA?2?$AAP?$AAr?$AAo?$AAg?$AAr?$AAa?$AAm?$AA?5?$AAF?$AAi?$AAl?$AAe@
  000a7	68 00 00 00 00	 push	 OFFSET ??_C@_1EK@NIFDJFDG@?$AAs?$AAt?$AAd?$AA?3?$AA?3?$AA_?$AAA?$AAd?$AAj?$AAu?$AAs?$AAt?$AA_?$AAm?$AAa@
  000ac	68 00 00 00 00	 push	 OFFSET ??_C@_1CG@JNLFBNGN@?$AA?$CC?$AAi?$AAn?$AAv?$AAa?$AAl?$AAi?$AAd?$AA?5?$AAa?$AAr?$AAg?$AAu?$AAm?$AAe@
  000b1	ff 15 00 00 00
	00		 call	 DWORD PTR __imp___invalid_parameter
  000b7	83 c4 14	 add	 esp, 20			; 00000014H
  000ba	3b f4		 cmp	 esi, esp
  000bc	e8 00 00 00 00	 call	 __RTC_CheckEsp
  000c1	33 c0		 xor	 eax, eax
  000c3	75 9c		 jne	 SHORT $LN7@Adjust_man
$LN2@Adjust_man:
  000c5	33 c0		 xor	 eax, eax
  000c7	75 82		 jne	 SHORT $LN4@Adjust_man

; 163  : 
; 164  :     // Extra paranoia on aligned allocation/deallocation; ensure _Ptr_container is
; 165  :     // in range [_Min_back_shift, _Non_user_size]
; 166  : #ifdef _DEBUG
; 167  :     constexpr uintptr_t _Min_back_shift = 2 * sizeof(void*);

  000c9	c7 45 e0 08 00
	00 00		 mov	 DWORD PTR __Min_back_shift$[ebp], 8

; 168  : #else // ^^^ _DEBUG ^^^ // vvv !_DEBUG vvv
; 169  :     constexpr uintptr_t _Min_back_shift = sizeof(void*);
; 170  : #endif // _DEBUG
; 171  :     const uintptr_t _Back_shift = reinterpret_cast<uintptr_t>(_Ptr) - _Ptr_container;

  000d0	8b 45 08	 mov	 eax, DWORD PTR __Ptr$[ebp]
  000d3	8b 08		 mov	 ecx, DWORD PTR [eax]
  000d5	2b 4d ec	 sub	 ecx, DWORD PTR __Ptr_container$[ebp]
  000d8	89 4d d4	 mov	 DWORD PTR __Back_shift$[ebp], ecx
$LN10@Adjust_man:

; 172  :     _STL_VERIFY(_Back_shift >= _Min_back_shift && _Back_shift <= _Non_user_size, "invalid argument");

  000db	83 7d d4 08	 cmp	 DWORD PTR __Back_shift$[ebp], 8
  000df	72 08		 jb	 SHORT $LN13@Adjust_man
  000e1	83 7d d4 27	 cmp	 DWORD PTR __Back_shift$[ebp], 39 ; 00000027H
  000e5	77 02		 ja	 SHORT $LN13@Adjust_man
  000e7	eb 64		 jmp	 SHORT $LN8@Adjust_man
$LN13@Adjust_man:
  000e9	8b f4		 mov	 esi, esp
  000eb	68 00 00 00 00	 push	 OFFSET ??_C@_0BB@FCMFBGOM@invalid?5argument@
  000f0	68 00 00 00 00	 push	 OFFSET ??_C@_02DKCKIIND@?$CFs@
  000f5	6a 00		 push	 0
  000f7	a1 00 00 00 00	 mov	 eax, DWORD PTR ?__LINE__Var@?0??_Adjust_manually_vector_aligned@std@@YAXAAPAXAAI@Z@4JA
  000fc	83 c0 13	 add	 eax, 19			; 00000013H
  000ff	50		 push	 eax
  00100	68 00 00 00 00	 push	 OFFSET ??_C@_0GI@MNEMJBML@C?3?2Program?5Files?5?$CIx86?$CJ?2Microsof@
  00105	6a 02		 push	 2
  00107	ff 15 00 00 00
	00		 call	 DWORD PTR __imp___CrtDbgReport
  0010d	83 c4 18	 add	 esp, 24			; 00000018H
  00110	3b f4		 cmp	 esi, esp
  00112	e8 00 00 00 00	 call	 __RTC_CheckEsp
  00117	83 f8 01	 cmp	 eax, 1
  0011a	75 01		 jne	 SHORT $LN20@Adjust_man
  0011c	cc		 int	 3
$LN20@Adjust_man:
  0011d	8b f4		 mov	 esi, esp
  0011f	6a 00		 push	 0
  00121	a1 00 00 00 00	 mov	 eax, DWORD PTR ?__LINE__Var@?0??_Adjust_manually_vector_aligned@std@@YAXAAPAXAAI@Z@4JA
  00126	83 c0 13	 add	 eax, 19			; 00000013H
  00129	50		 push	 eax
  0012a	68 00 00 00 00	 push	 OFFSET ??_C@_1NA@MJBOBEJL@?$AAC?$AA?3?$AA?2?$AAP?$AAr?$AAo?$AAg?$AAr?$AAa?$AAm?$AA?5?$AAF?$AAi?$AAl?$AAe@
  0012f	68 00 00 00 00	 push	 OFFSET ??_C@_1EK@NIFDJFDG@?$AAs?$AAt?$AAd?$AA?3?$AA?3?$AA_?$AAA?$AAd?$AAj?$AAu?$AAs?$AAt?$AA_?$AAm?$AAa@
  00134	68 00 00 00 00	 push	 OFFSET ??_C@_1CG@JNLFBNGN@?$AA?$CC?$AAi?$AAn?$AAv?$AAa?$AAl?$AAi?$AAd?$AA?5?$AAa?$AAr?$AAg?$AAu?$AAm?$AAe@
  00139	ff 15 00 00 00
	00		 call	 DWORD PTR __imp___invalid_parameter
  0013f	83 c4 14	 add	 esp, 20			; 00000014H
  00142	3b f4		 cmp	 esi, esp
  00144	e8 00 00 00 00	 call	 __RTC_CheckEsp
  00149	33 c0		 xor	 eax, eax
  0014b	75 9c		 jne	 SHORT $LN13@Adjust_man
$LN8@Adjust_man:
  0014d	33 c0		 xor	 eax, eax
  0014f	75 8a		 jne	 SHORT $LN10@Adjust_man

; 173  :     _Ptr = reinterpret_cast<void*>(_Ptr_container);

  00151	8b 45 08	 mov	 eax, DWORD PTR __Ptr$[ebp]
  00154	8b 4d ec	 mov	 ecx, DWORD PTR __Ptr_container$[ebp]
  00157	89 08		 mov	 DWORD PTR [eax], ecx

; 174  : }

  00159	5f		 pop	 edi
  0015a	5e		 pop	 esi
  0015b	5b		 pop	 ebx
  0015c	81 c4 f0 00 00
	00		 add	 esp, 240		; 000000f0H
  00162	3b ec		 cmp	 ebp, esp
  00164	e8 00 00 00 00	 call	 __RTC_CheckEsp
  00169	8b e5		 mov	 esp, ebp
  0016b	5d		 pop	 ebp
  0016c	c3		 ret	 0
?_Adjust_manually_vector_aligned@std@@YAXAAPAXAAI@Z ENDP ; std::_Adjust_manually_vector_aligned
_TEXT	ENDS
; Function compile flags: /Odtp /RTCsu /ZI
; File C:\Program Files (x86)\Microsoft Visual Studio\2019\Community\VC\Tools\MSVC\14.29.30133\include\xmemory
;	COMDAT ?_Allocate@_Default_allocate_traits@std@@SAPAXI@Z
_TEXT	SEGMENT
__Bytes$ = 8						; size = 4
?_Allocate@_Default_allocate_traits@std@@SAPAXI@Z PROC	; std::_Default_allocate_traits::_Allocate, COMDAT

; 84   :         void* _Allocate(const size_t _Bytes) {

  00000	55		 push	 ebp
  00001	8b ec		 mov	 ebp, esp
  00003	81 ec c0 00 00
	00		 sub	 esp, 192		; 000000c0H
  00009	53		 push	 ebx
  0000a	56		 push	 esi
  0000b	57		 push	 edi
  0000c	8b fd		 mov	 edi, ebp
  0000e	33 c9		 xor	 ecx, ecx
  00010	b8 cc cc cc cc	 mov	 eax, -858993460		; ccccccccH
  00015	f3 ab		 rep stosd
  00017	b9 00 00 00 00	 mov	 ecx, OFFSET __79D216CD_xmemory
  0001c	e8 00 00 00 00	 call	 @__CheckForDebuggerJustMyCode@4

; 85   :         return ::operator new(_Bytes);

  00021	8b 45 08	 mov	 eax, DWORD PTR __Bytes$[ebp]
  00024	50		 push	 eax
  00025	e8 00 00 00 00	 call	 ??2@YAPAXI@Z		; operator new
  0002a	83 c4 04	 add	 esp, 4

; 86   :     }

  0002d	5f		 pop	 edi
  0002e	5e		 pop	 esi
  0002f	5b		 pop	 ebx
  00030	81 c4 c0 00 00
	00		 add	 esp, 192		; 000000c0H
  00036	3b ec		 cmp	 ebp, esp
  00038	e8 00 00 00 00	 call	 __RTC_CheckEsp
  0003d	8b e5		 mov	 esp, ebp
  0003f	5d		 pop	 ebp
  00040	c3		 ret	 0
?_Allocate@_Default_allocate_traits@std@@SAPAXI@Z ENDP	; std::_Default_allocate_traits::_Allocate
_TEXT	ENDS
; Function compile flags: /Odtp /RTCsu /ZI
; File C:\Program Files (x86)\Microsoft Visual Studio\2019\Community\VC\Tools\MSVC\14.29.30133\include\limits
;	COMDAT ?max@?$numeric_limits@H@std@@SAHXZ
_TEXT	SEGMENT
?max@?$numeric_limits@H@std@@SAHXZ PROC			; std::numeric_limits<int>::max, COMDAT

; 556  :     _NODISCARD static constexpr int(max)() noexcept {

  00000	55		 push	 ebp
  00001	8b ec		 mov	 ebp, esp
  00003	81 ec c0 00 00
	00		 sub	 esp, 192		; 000000c0H
  00009	53		 push	 ebx
  0000a	56		 push	 esi
  0000b	57		 push	 edi
  0000c	8b fd		 mov	 edi, ebp
  0000e	33 c9		 xor	 ecx, ecx
  00010	b8 cc cc cc cc	 mov	 eax, -858993460		; ccccccccH
  00015	f3 ab		 rep stosd
  00017	b9 00 00 00 00	 mov	 ecx, OFFSET __7FE5F402_limits
  0001c	e8 00 00 00 00	 call	 @__CheckForDebuggerJustMyCode@4

; 557  :         return INT_MAX;

  00021	b8 ff ff ff 7f	 mov	 eax, 2147483647		; 7fffffffH

; 558  :     }

  00026	5f		 pop	 edi
  00027	5e		 pop	 esi
  00028	5b		 pop	 ebx
  00029	81 c4 c0 00 00
	00		 add	 esp, 192		; 000000c0H
  0002f	3b ec		 cmp	 ebp, esp
  00031	e8 00 00 00 00	 call	 __RTC_CheckEsp
  00036	8b e5		 mov	 esp, ebp
  00038	5d		 pop	 ebp
  00039	c3		 ret	 0
?max@?$numeric_limits@H@std@@SAHXZ ENDP			; std::numeric_limits<int>::max
_TEXT	ENDS
; Function compile flags: /Odtp /RTCsu /ZI
; File C:\Program Files (x86)\Microsoft Visual Studio\2019\Community\VC\Tools\MSVC\14.29.30133\include\exception
;	COMDAT ?_Throw_bad_array_new_length@std@@YAXXZ
_TEXT	SEGMENT
$T1 = -208						; size = 12
?_Throw_bad_array_new_length@std@@YAXXZ PROC		; std::_Throw_bad_array_new_length, COMDAT

; 320  : [[noreturn]] inline void _Throw_bad_array_new_length() {

  00000	55		 push	 ebp
  00001	8b ec		 mov	 ebp, esp
  00003	81 ec d4 00 00
	00		 sub	 esp, 212		; 000000d4H
  00009	53		 push	 ebx
  0000a	56		 push	 esi
  0000b	57		 push	 edi
  0000c	8d 7d ec	 lea	 edi, DWORD PTR [ebp-20]
  0000f	b9 05 00 00 00	 mov	 ecx, 5
  00014	b8 cc cc cc cc	 mov	 eax, -858993460		; ccccccccH
  00019	f3 ab		 rep stosd
  0001b	b9 00 00 00 00	 mov	 ecx, OFFSET __FF458F76_exception
  00020	e8 00 00 00 00	 call	 @__CheckForDebuggerJustMyCode@4

; 321  :     _THROW(bad_array_new_length{});

  00025	8d 8d 30 ff ff
	ff		 lea	 ecx, DWORD PTR $T1[ebp]
  0002b	e8 00 00 00 00	 call	 ??0bad_array_new_length@std@@QAE@XZ ; std::bad_array_new_length::bad_array_new_length
  00030	68 00 00 00 00	 push	 OFFSET __TI3?AVbad_array_new_length@std@@
  00035	8d 85 30 ff ff
	ff		 lea	 eax, DWORD PTR $T1[ebp]
  0003b	50		 push	 eax
  0003c	e8 00 00 00 00	 call	 __CxxThrowException@8
$LN2@Throw_bad_:

; 322  : }

  00041	5f		 pop	 edi
  00042	5e		 pop	 esi
  00043	5b		 pop	 ebx
  00044	81 c4 d4 00 00
	00		 add	 esp, 212		; 000000d4H
  0004a	3b ec		 cmp	 ebp, esp
  0004c	e8 00 00 00 00	 call	 __RTC_CheckEsp
  00051	8b e5		 mov	 esp, ebp
  00053	5d		 pop	 ebp
  00054	c3		 ret	 0
?_Throw_bad_array_new_length@std@@YAXXZ ENDP		; std::_Throw_bad_array_new_length
_TEXT	ENDS
; Function compile flags: /Odtp /RTCsu /ZI
;	COMDAT ??_Gbad_array_new_length@std@@UAEPAXI@Z
_TEXT	SEGMENT
_this$ = -8						; size = 4
___flags$ = 8						; size = 4
??_Gbad_array_new_length@std@@UAEPAXI@Z PROC		; std::bad_array_new_length::`scalar deleting destructor', COMDAT
; _this$ = ecx
  00000	55		 push	 ebp
  00001	8b ec		 mov	 ebp, esp
  00003	81 ec cc 00 00
	00		 sub	 esp, 204		; 000000ccH
  00009	53		 push	 ebx
  0000a	56		 push	 esi
  0000b	57		 push	 edi
  0000c	51		 push	 ecx
  0000d	8d 7d f4	 lea	 edi, DWORD PTR [ebp-12]
  00010	b9 03 00 00 00	 mov	 ecx, 3
  00015	b8 cc cc cc cc	 mov	 eax, -858993460		; ccccccccH
  0001a	f3 ab		 rep stosd
  0001c	59		 pop	 ecx
  0001d	89 4d f8	 mov	 DWORD PTR _this$[ebp], ecx
  00020	8b 4d f8	 mov	 ecx, DWORD PTR _this$[ebp]
  00023	e8 00 00 00 00	 call	 ??1bad_array_new_length@std@@UAE@XZ
  00028	8b 45 08	 mov	 eax, DWORD PTR ___flags$[ebp]
  0002b	83 e0 01	 and	 eax, 1
  0002e	74 0e		 je	 SHORT $LN2@scalar
  00030	6a 0c		 push	 12			; 0000000cH
  00032	8b 45 f8	 mov	 eax, DWORD PTR _this$[ebp]
  00035	50		 push	 eax
  00036	e8 00 00 00 00	 call	 ??3@YAXPAXI@Z		; operator delete
  0003b	83 c4 08	 add	 esp, 8
$LN2@scalar:
  0003e	8b 45 f8	 mov	 eax, DWORD PTR _this$[ebp]
  00041	5f		 pop	 edi
  00042	5e		 pop	 esi
  00043	5b		 pop	 ebx
  00044	81 c4 cc 00 00
	00		 add	 esp, 204		; 000000ccH
  0004a	3b ec		 cmp	 ebp, esp
  0004c	e8 00 00 00 00	 call	 __RTC_CheckEsp
  00051	8b e5		 mov	 esp, ebp
  00053	5d		 pop	 ebp
  00054	c2 04 00	 ret	 4
??_Gbad_array_new_length@std@@UAEPAXI@Z ENDP		; std::bad_array_new_length::`scalar deleting destructor'
_TEXT	ENDS
; Function compile flags: /Odtp /RTCsu /ZI
;	COMDAT ??0bad_array_new_length@std@@QAE@ABV01@@Z
_TEXT	SEGMENT
_this$ = -8						; size = 4
___that$ = 8						; size = 4
??0bad_array_new_length@std@@QAE@ABV01@@Z PROC		; std::bad_array_new_length::bad_array_new_length, COMDAT
; _this$ = ecx
  00000	55		 push	 ebp
  00001	8b ec		 mov	 ebp, esp
  00003	81 ec cc 00 00
	00		 sub	 esp, 204		; 000000ccH
  00009	53		 push	 ebx
  0000a	56		 push	 esi
  0000b	57		 push	 edi
  0000c	51		 push	 ecx
  0000d	8d 7d f4	 lea	 edi, DWORD PTR [ebp-12]
  00010	b9 03 00 00 00	 mov	 ecx, 3
  00015	b8 cc cc cc cc	 mov	 eax, -858993460		; ccccccccH
  0001a	f3 ab		 rep stosd
  0001c	59		 pop	 ecx
  0001d	89 4d f8	 mov	 DWORD PTR _this$[ebp], ecx
  00020	8b 45 08	 mov	 eax, DWORD PTR ___that$[ebp]
  00023	50		 push	 eax
  00024	8b 4d f8	 mov	 ecx, DWORD PTR _this$[ebp]
  00027	e8 00 00 00 00	 call	 ??0bad_alloc@std@@QAE@ABV01@@Z
  0002c	8b 45 f8	 mov	 eax, DWORD PTR _this$[ebp]
  0002f	c7 00 00 00 00
	00		 mov	 DWORD PTR [eax], OFFSET ??_7bad_array_new_length@std@@6B@
  00035	8b 45 f8	 mov	 eax, DWORD PTR _this$[ebp]
  00038	5f		 pop	 edi
  00039	5e		 pop	 esi
  0003a	5b		 pop	 ebx
  0003b	81 c4 cc 00 00
	00		 add	 esp, 204		; 000000ccH
  00041	3b ec		 cmp	 ebp, esp
  00043	e8 00 00 00 00	 call	 __RTC_CheckEsp
  00048	8b e5		 mov	 esp, ebp
  0004a	5d		 pop	 ebp
  0004b	c2 04 00	 ret	 4
??0bad_array_new_length@std@@QAE@ABV01@@Z ENDP		; std::bad_array_new_length::bad_array_new_length
_TEXT	ENDS
; Function compile flags: /Odtp /RTCsu /ZI
;	COMDAT ??1bad_array_new_length@std@@UAE@XZ
_TEXT	SEGMENT
_this$ = -8						; size = 4
??1bad_array_new_length@std@@UAE@XZ PROC		; std::bad_array_new_length::~bad_array_new_length, COMDAT
; _this$ = ecx
  00000	55		 push	 ebp
  00001	8b ec		 mov	 ebp, esp
  00003	81 ec cc 00 00
	00		 sub	 esp, 204		; 000000ccH
  00009	53		 push	 ebx
  0000a	56		 push	 esi
  0000b	57		 push	 edi
  0000c	51		 push	 ecx
  0000d	8d 7d f4	 lea	 edi, DWORD PTR [ebp-12]
  00010	b9 03 00 00 00	 mov	 ecx, 3
  00015	b8 cc cc cc cc	 mov	 eax, -858993460		; ccccccccH
  0001a	f3 ab		 rep stosd
  0001c	59		 pop	 ecx
  0001d	89 4d f8	 mov	 DWORD PTR _this$[ebp], ecx
  00020	8b 4d f8	 mov	 ecx, DWORD PTR _this$[ebp]
  00023	e8 00 00 00 00	 call	 ??1bad_alloc@std@@UAE@XZ
  00028	5f		 pop	 edi
  00029	5e		 pop	 esi
  0002a	5b		 pop	 ebx
  0002b	81 c4 cc 00 00
	00		 add	 esp, 204		; 000000ccH
  00031	3b ec		 cmp	 ebp, esp
  00033	e8 00 00 00 00	 call	 __RTC_CheckEsp
  00038	8b e5		 mov	 esp, ebp
  0003a	5d		 pop	 ebp
  0003b	c3		 ret	 0
??1bad_array_new_length@std@@UAE@XZ ENDP		; std::bad_array_new_length::~bad_array_new_length
_TEXT	ENDS
; Function compile flags: /Odtp /RTCsu /ZI
; File C:\Program Files (x86)\Microsoft Visual Studio\2019\Community\VC\Tools\MSVC\14.29.30133\include\vcruntime_exception.h
;	COMDAT ??0bad_array_new_length@std@@QAE@XZ
_TEXT	SEGMENT
_this$ = -8						; size = 4
??0bad_array_new_length@std@@QAE@XZ PROC		; std::bad_array_new_length::bad_array_new_length, COMDAT
; _this$ = ecx

; 141  :     {

  00000	55		 push	 ebp
  00001	8b ec		 mov	 ebp, esp
  00003	81 ec cc 00 00
	00		 sub	 esp, 204		; 000000ccH
  00009	53		 push	 ebx
  0000a	56		 push	 esi
  0000b	57		 push	 edi
  0000c	51		 push	 ecx
  0000d	8d 7d f4	 lea	 edi, DWORD PTR [ebp-12]
  00010	b9 03 00 00 00	 mov	 ecx, 3
  00015	b8 cc cc cc cc	 mov	 eax, -858993460		; ccccccccH
  0001a	f3 ab		 rep stosd
  0001c	59		 pop	 ecx
  0001d	89 4d f8	 mov	 DWORD PTR _this$[ebp], ecx
  00020	b9 00 00 00 00	 mov	 ecx, OFFSET __B0A13A33_vcruntime_exception@h
  00025	e8 00 00 00 00	 call	 @__CheckForDebuggerJustMyCode@4

; 140  :         : bad_alloc("bad array new length")

  0002a	68 00 00 00 00	 push	 OFFSET ??_C@_0BF@KINCDENJ@bad?5array?5new?5length@
  0002f	8b 4d f8	 mov	 ecx, DWORD PTR _this$[ebp]
  00032	e8 00 00 00 00	 call	 ??0bad_alloc@std@@AAE@QBD@Z ; std::bad_alloc::bad_alloc

; 141  :     {

  00037	8b 45 f8	 mov	 eax, DWORD PTR _this$[ebp]
  0003a	c7 00 00 00 00
	00		 mov	 DWORD PTR [eax], OFFSET ??_7bad_array_new_length@std@@6B@

; 142  :     }

  00040	8b 45 f8	 mov	 eax, DWORD PTR _this$[ebp]
  00043	5f		 pop	 edi
  00044	5e		 pop	 esi
  00045	5b		 pop	 ebx
  00046	81 c4 cc 00 00
	00		 add	 esp, 204		; 000000ccH
  0004c	3b ec		 cmp	 ebp, esp
  0004e	e8 00 00 00 00	 call	 __RTC_CheckEsp
  00053	8b e5		 mov	 esp, ebp
  00055	5d		 pop	 ebp
  00056	c3		 ret	 0
??0bad_array_new_length@std@@QAE@XZ ENDP		; std::bad_array_new_length::bad_array_new_length
_TEXT	ENDS
; Function compile flags: /Odtp /RTCsu /ZI
;	COMDAT ??_Gbad_alloc@std@@UAEPAXI@Z
_TEXT	SEGMENT
_this$ = -8						; size = 4
___flags$ = 8						; size = 4
??_Gbad_alloc@std@@UAEPAXI@Z PROC			; std::bad_alloc::`scalar deleting destructor', COMDAT
; _this$ = ecx
  00000	55		 push	 ebp
  00001	8b ec		 mov	 ebp, esp
  00003	81 ec cc 00 00
	00		 sub	 esp, 204		; 000000ccH
  00009	53		 push	 ebx
  0000a	56		 push	 esi
  0000b	57		 push	 edi
  0000c	51		 push	 ecx
  0000d	8d 7d f4	 lea	 edi, DWORD PTR [ebp-12]
  00010	b9 03 00 00 00	 mov	 ecx, 3
  00015	b8 cc cc cc cc	 mov	 eax, -858993460		; ccccccccH
  0001a	f3 ab		 rep stosd
  0001c	59		 pop	 ecx
  0001d	89 4d f8	 mov	 DWORD PTR _this$[ebp], ecx
  00020	8b 4d f8	 mov	 ecx, DWORD PTR _this$[ebp]
  00023	e8 00 00 00 00	 call	 ??1bad_alloc@std@@UAE@XZ
  00028	8b 45 08	 mov	 eax, DWORD PTR ___flags$[ebp]
  0002b	83 e0 01	 and	 eax, 1
  0002e	74 0e		 je	 SHORT $LN2@scalar
  00030	6a 0c		 push	 12			; 0000000cH
  00032	8b 45 f8	 mov	 eax, DWORD PTR _this$[ebp]
  00035	50		 push	 eax
  00036	e8 00 00 00 00	 call	 ??3@YAXPAXI@Z		; operator delete
  0003b	83 c4 08	 add	 esp, 8
$LN2@scalar:
  0003e	8b 45 f8	 mov	 eax, DWORD PTR _this$[ebp]
  00041	5f		 pop	 edi
  00042	5e		 pop	 esi
  00043	5b		 pop	 ebx
  00044	81 c4 cc 00 00
	00		 add	 esp, 204		; 000000ccH
  0004a	3b ec		 cmp	 ebp, esp
  0004c	e8 00 00 00 00	 call	 __RTC_CheckEsp
  00051	8b e5		 mov	 esp, ebp
  00053	5d		 pop	 ebp
  00054	c2 04 00	 ret	 4
??_Gbad_alloc@std@@UAEPAXI@Z ENDP			; std::bad_alloc::`scalar deleting destructor'
_TEXT	ENDS
; Function compile flags: /Odtp /RTCsu /ZI
;	COMDAT ??0bad_alloc@std@@QAE@ABV01@@Z
_TEXT	SEGMENT
_this$ = -8						; size = 4
___that$ = 8						; size = 4
??0bad_alloc@std@@QAE@ABV01@@Z PROC			; std::bad_alloc::bad_alloc, COMDAT
; _this$ = ecx
  00000	55		 push	 ebp
  00001	8b ec		 mov	 ebp, esp
  00003	81 ec cc 00 00
	00		 sub	 esp, 204		; 000000ccH
  00009	53		 push	 ebx
  0000a	56		 push	 esi
  0000b	57		 push	 edi
  0000c	51		 push	 ecx
  0000d	8d 7d f4	 lea	 edi, DWORD PTR [ebp-12]
  00010	b9 03 00 00 00	 mov	 ecx, 3
  00015	b8 cc cc cc cc	 mov	 eax, -858993460		; ccccccccH
  0001a	f3 ab		 rep stosd
  0001c	59		 pop	 ecx
  0001d	89 4d f8	 mov	 DWORD PTR _this$[ebp], ecx
  00020	8b 45 08	 mov	 eax, DWORD PTR ___that$[ebp]
  00023	50		 push	 eax
  00024	8b 4d f8	 mov	 ecx, DWORD PTR _this$[ebp]
  00027	e8 00 00 00 00	 call	 ??0exception@std@@QAE@ABV01@@Z ; std::exception::exception
  0002c	8b 45 f8	 mov	 eax, DWORD PTR _this$[ebp]
  0002f	c7 00 00 00 00
	00		 mov	 DWORD PTR [eax], OFFSET ??_7bad_alloc@std@@6B@
  00035	8b 45 f8	 mov	 eax, DWORD PTR _this$[ebp]
  00038	5f		 pop	 edi
  00039	5e		 pop	 esi
  0003a	5b		 pop	 ebx
  0003b	81 c4 cc 00 00
	00		 add	 esp, 204		; 000000ccH
  00041	3b ec		 cmp	 ebp, esp
  00043	e8 00 00 00 00	 call	 __RTC_CheckEsp
  00048	8b e5		 mov	 esp, ebp
  0004a	5d		 pop	 ebp
  0004b	c2 04 00	 ret	 4
??0bad_alloc@std@@QAE@ABV01@@Z ENDP			; std::bad_alloc::bad_alloc
_TEXT	ENDS
; Function compile flags: /Odtp /RTCsu /ZI
;	COMDAT ??1bad_alloc@std@@UAE@XZ
_TEXT	SEGMENT
_this$ = -8						; size = 4
??1bad_alloc@std@@UAE@XZ PROC				; std::bad_alloc::~bad_alloc, COMDAT
; _this$ = ecx
  00000	55		 push	 ebp
  00001	8b ec		 mov	 ebp, esp
  00003	81 ec cc 00 00
	00		 sub	 esp, 204		; 000000ccH
  00009	53		 push	 ebx
  0000a	56		 push	 esi
  0000b	57		 push	 edi
  0000c	51		 push	 ecx
  0000d	8d 7d f4	 lea	 edi, DWORD PTR [ebp-12]
  00010	b9 03 00 00 00	 mov	 ecx, 3
  00015	b8 cc cc cc cc	 mov	 eax, -858993460		; ccccccccH
  0001a	f3 ab		 rep stosd
  0001c	59		 pop	 ecx
  0001d	89 4d f8	 mov	 DWORD PTR _this$[ebp], ecx
  00020	8b 4d f8	 mov	 ecx, DWORD PTR _this$[ebp]
  00023	e8 00 00 00 00	 call	 ??1exception@std@@UAE@XZ ; std::exception::~exception
  00028	5f		 pop	 edi
  00029	5e		 pop	 esi
  0002a	5b		 pop	 ebx
  0002b	81 c4 cc 00 00
	00		 add	 esp, 204		; 000000ccH
  00031	3b ec		 cmp	 ebp, esp
  00033	e8 00 00 00 00	 call	 __RTC_CheckEsp
  00038	8b e5		 mov	 esp, ebp
  0003a	5d		 pop	 ebp
  0003b	c3		 ret	 0
??1bad_alloc@std@@UAE@XZ ENDP				; std::bad_alloc::~bad_alloc
_TEXT	ENDS
; Function compile flags: /Odtp /RTCsu /ZI
; File C:\Program Files (x86)\Microsoft Visual Studio\2019\Community\VC\Tools\MSVC\14.29.30133\include\vcruntime_exception.h
;	COMDAT ??0bad_alloc@std@@AAE@QBD@Z
_TEXT	SEGMENT
_this$ = -8						; size = 4
__Message$ = 8						; size = 4
??0bad_alloc@std@@AAE@QBD@Z PROC			; std::bad_alloc::bad_alloc, COMDAT
; _this$ = ecx

; 130  :     {

  00000	55		 push	 ebp
  00001	8b ec		 mov	 ebp, esp
  00003	81 ec cc 00 00
	00		 sub	 esp, 204		; 000000ccH
  00009	53		 push	 ebx
  0000a	56		 push	 esi
  0000b	57		 push	 edi
  0000c	51		 push	 ecx
  0000d	8d 7d f4	 lea	 edi, DWORD PTR [ebp-12]
  00010	b9 03 00 00 00	 mov	 ecx, 3
  00015	b8 cc cc cc cc	 mov	 eax, -858993460		; ccccccccH
  0001a	f3 ab		 rep stosd
  0001c	59		 pop	 ecx
  0001d	89 4d f8	 mov	 DWORD PTR _this$[ebp], ecx
  00020	b9 00 00 00 00	 mov	 ecx, OFFSET __B0A13A33_vcruntime_exception@h
  00025	e8 00 00 00 00	 call	 @__CheckForDebuggerJustMyCode@4

; 129  :         : exception(_Message, 1)

  0002a	6a 01		 push	 1
  0002c	8b 45 08	 mov	 eax, DWORD PTR __Message$[ebp]
  0002f	50		 push	 eax
  00030	8b 4d f8	 mov	 ecx, DWORD PTR _this$[ebp]
  00033	e8 00 00 00 00	 call	 ??0exception@std@@QAE@QBDH@Z ; std::exception::exception

; 130  :     {

  00038	8b 45 f8	 mov	 eax, DWORD PTR _this$[ebp]
  0003b	c7 00 00 00 00
	00		 mov	 DWORD PTR [eax], OFFSET ??_7bad_alloc@std@@6B@

; 131  :     }

  00041	8b 45 f8	 mov	 eax, DWORD PTR _this$[ebp]
  00044	5f		 pop	 edi
  00045	5e		 pop	 esi
  00046	5b		 pop	 ebx
  00047	81 c4 cc 00 00
	00		 add	 esp, 204		; 000000ccH
  0004d	3b ec		 cmp	 ebp, esp
  0004f	e8 00 00 00 00	 call	 __RTC_CheckEsp
  00054	8b e5		 mov	 esp, ebp
  00056	5d		 pop	 ebp
  00057	c2 04 00	 ret	 4
??0bad_alloc@std@@AAE@QBD@Z ENDP			; std::bad_alloc::bad_alloc
_TEXT	ENDS
; Function compile flags: /Odtp /RTCsu /ZI
;	COMDAT ??_Gexception@std@@UAEPAXI@Z
_TEXT	SEGMENT
_this$ = -8						; size = 4
___flags$ = 8						; size = 4
??_Gexception@std@@UAEPAXI@Z PROC			; std::exception::`scalar deleting destructor', COMDAT
; _this$ = ecx
  00000	55		 push	 ebp
  00001	8b ec		 mov	 ebp, esp
  00003	81 ec cc 00 00
	00		 sub	 esp, 204		; 000000ccH
  00009	53		 push	 ebx
  0000a	56		 push	 esi
  0000b	57		 push	 edi
  0000c	51		 push	 ecx
  0000d	8d 7d f4	 lea	 edi, DWORD PTR [ebp-12]
  00010	b9 03 00 00 00	 mov	 ecx, 3
  00015	b8 cc cc cc cc	 mov	 eax, -858993460		; ccccccccH
  0001a	f3 ab		 rep stosd
  0001c	59		 pop	 ecx
  0001d	89 4d f8	 mov	 DWORD PTR _this$[ebp], ecx
  00020	8b 4d f8	 mov	 ecx, DWORD PTR _this$[ebp]
  00023	e8 00 00 00 00	 call	 ??1exception@std@@UAE@XZ ; std::exception::~exception
  00028	8b 45 08	 mov	 eax, DWORD PTR ___flags$[ebp]
  0002b	83 e0 01	 and	 eax, 1
  0002e	74 0e		 je	 SHORT $LN2@scalar
  00030	6a 0c		 push	 12			; 0000000cH
  00032	8b 45 f8	 mov	 eax, DWORD PTR _this$[ebp]
  00035	50		 push	 eax
  00036	e8 00 00 00 00	 call	 ??3@YAXPAXI@Z		; operator delete
  0003b	83 c4 08	 add	 esp, 8
$LN2@scalar:
  0003e	8b 45 f8	 mov	 eax, DWORD PTR _this$[ebp]
  00041	5f		 pop	 edi
  00042	5e		 pop	 esi
  00043	5b		 pop	 ebx
  00044	81 c4 cc 00 00
	00		 add	 esp, 204		; 000000ccH
  0004a	3b ec		 cmp	 ebp, esp
  0004c	e8 00 00 00 00	 call	 __RTC_CheckEsp
  00051	8b e5		 mov	 esp, ebp
  00053	5d		 pop	 ebp
  00054	c2 04 00	 ret	 4
??_Gexception@std@@UAEPAXI@Z ENDP			; std::exception::`scalar deleting destructor'
_TEXT	ENDS
; Function compile flags: /Odtp /RTCsu /ZI
; File C:\Program Files (x86)\Microsoft Visual Studio\2019\Community\VC\Tools\MSVC\14.29.30133\include\vcruntime_exception.h
;	COMDAT ?what@exception@std@@UBEPBDXZ
_TEXT	SEGMENT
tv69 = -208						; size = 4
_this$ = -8						; size = 4
?what@exception@std@@UBEPBDXZ PROC			; std::exception::what, COMDAT
; _this$ = ecx

; 94   :     {

  00000	55		 push	 ebp
  00001	8b ec		 mov	 ebp, esp
  00003	81 ec d0 00 00
	00		 sub	 esp, 208		; 000000d0H
  00009	53		 push	 ebx
  0000a	56		 push	 esi
  0000b	57		 push	 edi
  0000c	51		 push	 ecx
  0000d	8d 7d f0	 lea	 edi, DWORD PTR [ebp-16]
  00010	b9 04 00 00 00	 mov	 ecx, 4
  00015	b8 cc cc cc cc	 mov	 eax, -858993460		; ccccccccH
  0001a	f3 ab		 rep stosd
  0001c	59		 pop	 ecx
  0001d	89 4d f8	 mov	 DWORD PTR _this$[ebp], ecx
  00020	b9 00 00 00 00	 mov	 ecx, OFFSET __B0A13A33_vcruntime_exception@h
  00025	e8 00 00 00 00	 call	 @__CheckForDebuggerJustMyCode@4

; 95   :         return _Data._What ? _Data._What : "Unknown exception";

  0002a	8b 45 f8	 mov	 eax, DWORD PTR _this$[ebp]
  0002d	83 78 04 00	 cmp	 DWORD PTR [eax+4], 0
  00031	74 0e		 je	 SHORT $LN3@what
  00033	8b 4d f8	 mov	 ecx, DWORD PTR _this$[ebp]
  00036	8b 51 04	 mov	 edx, DWORD PTR [ecx+4]
  00039	89 95 30 ff ff
	ff		 mov	 DWORD PTR tv69[ebp], edx
  0003f	eb 0a		 jmp	 SHORT $LN4@what
$LN3@what:
  00041	c7 85 30 ff ff
	ff 00 00 00 00	 mov	 DWORD PTR tv69[ebp], OFFSET ??_C@_0BC@EOODALEL@Unknown?5exception@
$LN4@what:
  0004b	8b 85 30 ff ff
	ff		 mov	 eax, DWORD PTR tv69[ebp]

; 96   :     }

  00051	5f		 pop	 edi
  00052	5e		 pop	 esi
  00053	5b		 pop	 ebx
  00054	81 c4 d0 00 00
	00		 add	 esp, 208		; 000000d0H
  0005a	3b ec		 cmp	 ebp, esp
  0005c	e8 00 00 00 00	 call	 __RTC_CheckEsp
  00061	8b e5		 mov	 esp, ebp
  00063	5d		 pop	 ebp
  00064	c3		 ret	 0
?what@exception@std@@UBEPBDXZ ENDP			; std::exception::what
_TEXT	ENDS
; Function compile flags: /Odtp /RTCsu /ZI
; File C:\Program Files (x86)\Microsoft Visual Studio\2019\Community\VC\Tools\MSVC\14.29.30133\include\vcruntime_exception.h
;	COMDAT ??1exception@std@@UAE@XZ
_TEXT	SEGMENT
_this$ = -8						; size = 4
??1exception@std@@UAE@XZ PROC				; std::exception::~exception, COMDAT
; _this$ = ecx

; 89   :     {

  00000	55		 push	 ebp
  00001	8b ec		 mov	 ebp, esp
  00003	81 ec cc 00 00
	00		 sub	 esp, 204		; 000000ccH
  00009	53		 push	 ebx
  0000a	56		 push	 esi
  0000b	57		 push	 edi
  0000c	51		 push	 ecx
  0000d	8d 7d f4	 lea	 edi, DWORD PTR [ebp-12]
  00010	b9 03 00 00 00	 mov	 ecx, 3
  00015	b8 cc cc cc cc	 mov	 eax, -858993460		; ccccccccH
  0001a	f3 ab		 rep stosd
  0001c	59		 pop	 ecx
  0001d	89 4d f8	 mov	 DWORD PTR _this$[ebp], ecx
  00020	b9 00 00 00 00	 mov	 ecx, OFFSET __B0A13A33_vcruntime_exception@h
  00025	e8 00 00 00 00	 call	 @__CheckForDebuggerJustMyCode@4
  0002a	8b 45 f8	 mov	 eax, DWORD PTR _this$[ebp]
  0002d	c7 00 00 00 00
	00		 mov	 DWORD PTR [eax], OFFSET ??_7exception@std@@6B@

; 90   :         __std_exception_destroy(&_Data);

  00033	8b 45 f8	 mov	 eax, DWORD PTR _this$[ebp]
  00036	83 c0 04	 add	 eax, 4
  00039	50		 push	 eax
  0003a	e8 00 00 00 00	 call	 ___std_exception_destroy
  0003f	83 c4 04	 add	 esp, 4

; 91   :     }

  00042	5f		 pop	 edi
  00043	5e		 pop	 esi
  00044	5b		 pop	 ebx
  00045	81 c4 cc 00 00
	00		 add	 esp, 204		; 000000ccH
  0004b	3b ec		 cmp	 ebp, esp
  0004d	e8 00 00 00 00	 call	 __RTC_CheckEsp
  00052	8b e5		 mov	 esp, ebp
  00054	5d		 pop	 ebp
  00055	c3		 ret	 0
??1exception@std@@UAE@XZ ENDP				; std::exception::~exception
_TEXT	ENDS
; Function compile flags: /Odtp /RTCsu /ZI
; File C:\Program Files (x86)\Microsoft Visual Studio\2019\Community\VC\Tools\MSVC\14.29.30133\include\vcruntime_exception.h
;	COMDAT ??0exception@std@@QAE@ABV01@@Z
_TEXT	SEGMENT
_this$ = -8						; size = 4
__Other$ = 8						; size = 4
??0exception@std@@QAE@ABV01@@Z PROC			; std::exception::exception, COMDAT
; _this$ = ecx

; 72   :     {

  00000	55		 push	 ebp
  00001	8b ec		 mov	 ebp, esp
  00003	81 ec cc 00 00
	00		 sub	 esp, 204		; 000000ccH
  00009	53		 push	 ebx
  0000a	56		 push	 esi
  0000b	57		 push	 edi
  0000c	51		 push	 ecx
  0000d	8d 7d f4	 lea	 edi, DWORD PTR [ebp-12]
  00010	b9 03 00 00 00	 mov	 ecx, 3
  00015	b8 cc cc cc cc	 mov	 eax, -858993460		; ccccccccH
  0001a	f3 ab		 rep stosd
  0001c	59		 pop	 ecx
  0001d	89 4d f8	 mov	 DWORD PTR _this$[ebp], ecx
  00020	b9 00 00 00 00	 mov	 ecx, OFFSET __B0A13A33_vcruntime_exception@h
  00025	e8 00 00 00 00	 call	 @__CheckForDebuggerJustMyCode@4
  0002a	8b 45 f8	 mov	 eax, DWORD PTR _this$[ebp]
  0002d	c7 00 00 00 00
	00		 mov	 DWORD PTR [eax], OFFSET ??_7exception@std@@6B@

; 71   :         : _Data()

  00033	33 c0		 xor	 eax, eax
  00035	8b 4d f8	 mov	 ecx, DWORD PTR _this$[ebp]
  00038	83 c1 04	 add	 ecx, 4
  0003b	89 01		 mov	 DWORD PTR [ecx], eax
  0003d	89 41 04	 mov	 DWORD PTR [ecx+4], eax

; 73   :         __std_exception_copy(&_Other._Data, &_Data);

  00040	8b 45 f8	 mov	 eax, DWORD PTR _this$[ebp]
  00043	83 c0 04	 add	 eax, 4
  00046	50		 push	 eax
  00047	8b 4d 08	 mov	 ecx, DWORD PTR __Other$[ebp]
  0004a	83 c1 04	 add	 ecx, 4
  0004d	51		 push	 ecx
  0004e	e8 00 00 00 00	 call	 ___std_exception_copy
  00053	83 c4 08	 add	 esp, 8

; 74   :     }

  00056	8b 45 f8	 mov	 eax, DWORD PTR _this$[ebp]
  00059	5f		 pop	 edi
  0005a	5e		 pop	 esi
  0005b	5b		 pop	 ebx
  0005c	81 c4 cc 00 00
	00		 add	 esp, 204		; 000000ccH
  00062	3b ec		 cmp	 ebp, esp
  00064	e8 00 00 00 00	 call	 __RTC_CheckEsp
  00069	8b e5		 mov	 esp, ebp
  0006b	5d		 pop	 ebp
  0006c	c2 04 00	 ret	 4
??0exception@std@@QAE@ABV01@@Z ENDP			; std::exception::exception
_TEXT	ENDS
; Function compile flags: /Odtp /RTCsu /ZI
; File C:\Program Files (x86)\Microsoft Visual Studio\2019\Community\VC\Tools\MSVC\14.29.30133\include\vcruntime_exception.h
;	COMDAT ??0exception@std@@QAE@QBDH@Z
_TEXT	SEGMENT
_this$ = -8						; size = 4
__Message$ = 8						; size = 4
___formal$ = 12						; size = 4
??0exception@std@@QAE@QBDH@Z PROC			; std::exception::exception, COMDAT
; _this$ = ecx

; 66   :     {

  00000	55		 push	 ebp
  00001	8b ec		 mov	 ebp, esp
  00003	81 ec cc 00 00
	00		 sub	 esp, 204		; 000000ccH
  00009	53		 push	 ebx
  0000a	56		 push	 esi
  0000b	57		 push	 edi
  0000c	51		 push	 ecx
  0000d	8d 7d f4	 lea	 edi, DWORD PTR [ebp-12]
  00010	b9 03 00 00 00	 mov	 ecx, 3
  00015	b8 cc cc cc cc	 mov	 eax, -858993460		; ccccccccH
  0001a	f3 ab		 rep stosd
  0001c	59		 pop	 ecx
  0001d	89 4d f8	 mov	 DWORD PTR _this$[ebp], ecx
  00020	b9 00 00 00 00	 mov	 ecx, OFFSET __B0A13A33_vcruntime_exception@h
  00025	e8 00 00 00 00	 call	 @__CheckForDebuggerJustMyCode@4
  0002a	8b 45 f8	 mov	 eax, DWORD PTR _this$[ebp]
  0002d	c7 00 00 00 00
	00		 mov	 DWORD PTR [eax], OFFSET ??_7exception@std@@6B@

; 65   :         : _Data()

  00033	33 c0		 xor	 eax, eax
  00035	8b 4d f8	 mov	 ecx, DWORD PTR _this$[ebp]
  00038	83 c1 04	 add	 ecx, 4
  0003b	89 01		 mov	 DWORD PTR [ecx], eax
  0003d	89 41 04	 mov	 DWORD PTR [ecx+4], eax

; 67   :         _Data._What = _Message;

  00040	8b 45 f8	 mov	 eax, DWORD PTR _this$[ebp]
  00043	8b 4d 08	 mov	 ecx, DWORD PTR __Message$[ebp]
  00046	89 48 04	 mov	 DWORD PTR [eax+4], ecx

; 68   :     }

  00049	8b 45 f8	 mov	 eax, DWORD PTR _this$[ebp]
  0004c	5f		 pop	 edi
  0004d	5e		 pop	 esi
  0004e	5b		 pop	 ebx
  0004f	81 c4 cc 00 00
	00		 add	 esp, 204		; 000000ccH
  00055	3b ec		 cmp	 ebp, esp
  00057	e8 00 00 00 00	 call	 __RTC_CheckEsp
  0005c	8b e5		 mov	 esp, ebp
  0005e	5d		 pop	 ebp
  0005f	c2 08 00	 ret	 8
??0exception@std@@QAE@QBDH@Z ENDP			; std::exception::exception
_TEXT	ENDS
; Function compile flags: /Odtp /RTCsu /ZI
; File C:\Program Files (x86)\Microsoft Visual Studio\2019\Community\VC\Tools\MSVC\14.29.30133\include\vcruntime_new.h
;	COMDAT ??2@YAPAXIPAX@Z
_TEXT	SEGMENT
__Size$ = 8						; size = 4
__Where$ = 12						; size = 4
??2@YAPAXIPAX@Z PROC					; operator new, COMDAT

; 167  :     {

  00000	55		 push	 ebp
  00001	8b ec		 mov	 ebp, esp
  00003	81 ec c0 00 00
	00		 sub	 esp, 192		; 000000c0H
  00009	53		 push	 ebx
  0000a	56		 push	 esi
  0000b	57		 push	 edi
  0000c	8b fd		 mov	 edi, ebp
  0000e	33 c9		 xor	 ecx, ecx
  00010	b8 cc cc cc cc	 mov	 eax, -858993460		; ccccccccH
  00015	f3 ab		 rep stosd
  00017	b9 00 00 00 00	 mov	 ecx, OFFSET __97D3638F_vcruntime_new@h
  0001c	e8 00 00 00 00	 call	 @__CheckForDebuggerJustMyCode@4

; 168  :         (void)_Size;
; 169  :         return _Where;

  00021	8b 45 0c	 mov	 eax, DWORD PTR __Where$[ebp]

; 170  :     }

  00024	5f		 pop	 edi
  00025	5e		 pop	 esi
  00026	5b		 pop	 ebx
  00027	81 c4 c0 00 00
	00		 add	 esp, 192		; 000000c0H
  0002d	3b ec		 cmp	 ebp, esp
  0002f	e8 00 00 00 00	 call	 __RTC_CheckEsp
  00034	8b e5		 mov	 esp, ebp
  00036	5d		 pop	 ebp
  00037	c3		 ret	 0
??2@YAPAXIPAX@Z ENDP					; operator new
_TEXT	ENDS
; Function compile flags: /Odtp /RTCsu /ZI
; File F:\лабы\КПО\1 лаба\kpo_lab1v2\kpo_lab1v2\kpo_lab1v2.cpp
;	COMDAT ?__empty_global_delete@@YAXPAXI@Z
_TEXT	SEGMENT
___formal$ = 8						; size = 4
___formal$ = 12						; size = 4
?__empty_global_delete@@YAXPAXI@Z PROC			; __empty_global_delete, COMDAT

  00000	55		 push	 ebp
  00001	8b ec		 mov	 ebp, esp
  00003	81 ec c0 00 00
	00		 sub	 esp, 192		; 000000c0H
  00009	53		 push	 ebx
  0000a	56		 push	 esi
  0000b	57		 push	 edi
  0000c	8b fd		 mov	 edi, ebp
  0000e	33 c9		 xor	 ecx, ecx
  00010	b8 cc cc cc cc	 mov	 eax, -858993460		; ccccccccH
  00015	f3 ab		 rep stosd
  00017	b9 00 00 00 00	 mov	 ecx, OFFSET __94B3D082_kpo_lab1v2@cpp
  0001c	e8 00 00 00 00	 call	 @__CheckForDebuggerJustMyCode@4
  00021	5f		 pop	 edi
  00022	5e		 pop	 esi
  00023	5b		 pop	 ebx
  00024	81 c4 c0 00 00
	00		 add	 esp, 192		; 000000c0H
  0002a	3b ec		 cmp	 ebp, esp
  0002c	e8 00 00 00 00	 call	 __RTC_CheckEsp
  00031	8b e5		 mov	 esp, ebp
  00033	5d		 pop	 ebp
  00034	c3		 ret	 0
?__empty_global_delete@@YAXPAXI@Z ENDP			; __empty_global_delete
_TEXT	ENDS
; Function compile flags: /Odtp /RTCsu /ZI
; File F:\лабы\КПО\1 лаба\kpo_lab1v2\kpo_lab1v2\kpo_lab1v2.cpp
;	COMDAT ?__empty_global_delete@@YAXPAX@Z
_TEXT	SEGMENT
___formal$ = 8						; size = 4
?__empty_global_delete@@YAXPAX@Z PROC			; __empty_global_delete, COMDAT

  00000	55		 push	 ebp
  00001	8b ec		 mov	 ebp, esp
  00003	81 ec c0 00 00
	00		 sub	 esp, 192		; 000000c0H
  00009	53		 push	 ebx
  0000a	56		 push	 esi
  0000b	57		 push	 edi
  0000c	8b fd		 mov	 edi, ebp
  0000e	33 c9		 xor	 ecx, ecx
  00010	b8 cc cc cc cc	 mov	 eax, -858993460		; ccccccccH
  00015	f3 ab		 rep stosd
  00017	b9 00 00 00 00	 mov	 ecx, OFFSET __94B3D082_kpo_lab1v2@cpp
  0001c	e8 00 00 00 00	 call	 @__CheckForDebuggerJustMyCode@4
  00021	5f		 pop	 edi
  00022	5e		 pop	 esi
  00023	5b		 pop	 ebx
  00024	81 c4 c0 00 00
	00		 add	 esp, 192		; 000000c0H
  0002a	3b ec		 cmp	 ebp, esp
  0002c	e8 00 00 00 00	 call	 __RTC_CheckEsp
  00031	8b e5		 mov	 esp, ebp
  00033	5d		 pop	 ebp
  00034	c3		 ret	 0
?__empty_global_delete@@YAXPAX@Z ENDP			; __empty_global_delete
_TEXT	ENDS
END
